
ROBOS2.elf:     file format elf32-avr

Sections:
Idx Name          Size      VMA       LMA       File off  Algn
  0 .data         00000218  00800100  00001eac  00001f40  2**0
                  CONTENTS, ALLOC, LOAD, DATA
  1 .text         00001eac  00000000  00000000  00000094  2**1
                  CONTENTS, ALLOC, LOAD, READONLY, CODE
  2 .bss          0000006a  00800318  00800318  00002158  2**0
                  ALLOC
  3 .debug_aranges 00000180  00000000  00000000  00002158  2**0
                  CONTENTS, READONLY, DEBUGGING
  4 .debug_pubnames 00000362  00000000  00000000  000022d8  2**0
                  CONTENTS, READONLY, DEBUGGING
  5 .debug_info   00001624  00000000  00000000  0000263a  2**0
                  CONTENTS, READONLY, DEBUGGING
  6 .debug_abbrev 000009b1  00000000  00000000  00003c5e  2**0
                  CONTENTS, READONLY, DEBUGGING
  7 .debug_line   00001620  00000000  00000000  0000460f  2**0
                  CONTENTS, READONLY, DEBUGGING
  8 .debug_frame  00000360  00000000  00000000  00005c30  2**2
                  CONTENTS, READONLY, DEBUGGING
  9 .debug_str    000005e3  00000000  00000000  00005f90  2**0
                  CONTENTS, READONLY, DEBUGGING

Disassembly of section .text:

00000000 <__vectors>:
       0:	0c 94 46 00 	jmp	0x8c	; 0x8c <__ctors_end>
       4:	0c 94 65 00 	jmp	0xca	; 0xca <__bad_interrupt>
       8:	0c 94 65 00 	jmp	0xca	; 0xca <__bad_interrupt>
       c:	0c 94 65 00 	jmp	0xca	; 0xca <__bad_interrupt>
      10:	0c 94 65 00 	jmp	0xca	; 0xca <__bad_interrupt>
      14:	0c 94 65 00 	jmp	0xca	; 0xca <__bad_interrupt>
      18:	0c 94 65 00 	jmp	0xca	; 0xca <__bad_interrupt>
      1c:	0c 94 65 00 	jmp	0xca	; 0xca <__bad_interrupt>
      20:	0c 94 65 00 	jmp	0xca	; 0xca <__bad_interrupt>
      24:	0c 94 65 00 	jmp	0xca	; 0xca <__bad_interrupt>
      28:	0c 94 65 00 	jmp	0xca	; 0xca <__bad_interrupt>
      2c:	0c 94 65 00 	jmp	0xca	; 0xca <__bad_interrupt>
      30:	0c 94 65 00 	jmp	0xca	; 0xca <__bad_interrupt>
      34:	0c 94 65 00 	jmp	0xca	; 0xca <__bad_interrupt>
      38:	0c 94 65 00 	jmp	0xca	; 0xca <__bad_interrupt>
      3c:	0c 94 4f 05 	jmp	0xa9e	; 0xa9e <__vector_15>
      40:	0c 94 65 00 	jmp	0xca	; 0xca <__bad_interrupt>
      44:	0c 94 65 00 	jmp	0xca	; 0xca <__bad_interrupt>
      48:	0c 94 65 00 	jmp	0xca	; 0xca <__bad_interrupt>
      4c:	0c 94 65 00 	jmp	0xca	; 0xca <__bad_interrupt>
      50:	0c 94 bc 04 	jmp	0x978	; 0x978 <__vector_20>
      54:	0c 94 7d 08 	jmp	0x10fa	; 0x10fa <__vector_21>
      58:	0c 94 65 00 	jmp	0xca	; 0xca <__bad_interrupt>
      5c:	0c 94 65 00 	jmp	0xca	; 0xca <__bad_interrupt>
      60:	0c 94 65 00 	jmp	0xca	; 0xca <__bad_interrupt>
      64:	0c 94 65 00 	jmp	0xca	; 0xca <__bad_interrupt>
      68:	0c 94 65 00 	jmp	0xca	; 0xca <__bad_interrupt>
      6c:	0c 94 65 00 	jmp	0xca	; 0xca <__bad_interrupt>
      70:	0c 94 25 09 	jmp	0x124a	; 0x124a <__vector_28>
      74:	0c 94 d1 08 	jmp	0x11a2	; 0x11a2 <__vector_29>
      78:	0c 94 65 00 	jmp	0xca	; 0xca <__bad_interrupt>
      7c:	0c 94 65 00 	jmp	0xca	; 0xca <__bad_interrupt>
      80:	0c 94 65 00 	jmp	0xca	; 0xca <__bad_interrupt>
      84:	0c 94 65 00 	jmp	0xca	; 0xca <__bad_interrupt>
      88:	0c 94 65 00 	jmp	0xca	; 0xca <__bad_interrupt>

0000008c <__ctors_end>:
      8c:	11 24       	eor	r1, r1
      8e:	1f be       	out	0x3f, r1	; 63
      90:	cf ef       	ldi	r28, 0xFF	; 255
      92:	d0 e4       	ldi	r29, 0x40	; 64
      94:	de bf       	out	0x3e, r29	; 62
      96:	cd bf       	out	0x3d, r28	; 61

00000098 <__do_copy_data>:
      98:	13 e0       	ldi	r17, 0x03	; 3
      9a:	a0 e0       	ldi	r26, 0x00	; 0
      9c:	b1 e0       	ldi	r27, 0x01	; 1
      9e:	ec ea       	ldi	r30, 0xAC	; 172
      a0:	fe e1       	ldi	r31, 0x1E	; 30
      a2:	00 e0       	ldi	r16, 0x00	; 0
      a4:	0b bf       	out	0x3b, r16	; 59
      a6:	02 c0       	rjmp	.+4      	; 0xac <__do_copy_data+0x14>
      a8:	07 90       	elpm	r0, Z+
      aa:	0d 92       	st	X+, r0
      ac:	a8 31       	cpi	r26, 0x18	; 24
      ae:	b1 07       	cpc	r27, r17
      b0:	d9 f7       	brne	.-10     	; 0xa8 <__do_copy_data+0x10>

000000b2 <__do_clear_bss>:
      b2:	13 e0       	ldi	r17, 0x03	; 3
      b4:	a8 e1       	ldi	r26, 0x18	; 24
      b6:	b3 e0       	ldi	r27, 0x03	; 3
      b8:	01 c0       	rjmp	.+2      	; 0xbc <.do_clear_bss_start>

000000ba <.do_clear_bss_loop>:
      ba:	1d 92       	st	X+, r1

000000bc <.do_clear_bss_start>:
      bc:	a2 38       	cpi	r26, 0x82	; 130
      be:	b1 07       	cpc	r27, r17
      c0:	e1 f7       	brne	.-8      	; 0xba <.do_clear_bss_loop>
      c2:	0e 94 67 00 	call	0xce	; 0xce <main>
      c6:	0c 94 54 0f 	jmp	0x1ea8	; 0x1ea8 <_exit>

000000ca <__bad_interrupt>:
      ca:	0c 94 00 00 	jmp	0	; 0x0 <__vectors>

000000ce <main>:


#define SUPPLY_WATCHING (1)

int main(void)
{
      ce:	0f 93       	push	r16
      d0:	1f 93       	push	r17
      d2:	df 93       	push	r29
      d4:	cf 93       	push	r28
      d6:	cd b7       	in	r28, 0x3d	; 61
      d8:	de b7       	in	r29, 0x3e	; 62
      da:	cc 50       	subi	r28, 0x0C	; 12
      dc:	d2 40       	sbci	r29, 0x02	; 2
      de:	0f b6       	in	r0, 0x3f	; 63
      e0:	f8 94       	cli
      e2:	de bf       	out	0x3e, r29	; 62
      e4:	0f be       	out	0x3f, r0	; 63
      e6:	cd bf       	out	0x3d, r28	; 61
	uint8_t _group,_channel; 

	union controller_data *controller;

	int8_t slaveBuf[16]={0},m_size;
      e8:	80 e1       	ldi	r24, 0x10	; 16
      ea:	fe 01       	movw	r30, r28
      ec:	3d 96       	adiw	r30, 0x0d	; 13
      ee:	df 01       	movw	r26, r30
      f0:	98 2f       	mov	r25, r24
      f2:	1d 92       	st	X+, r1
      f4:	9a 95       	dec	r25
      f6:	e9 f7       	brne	.-6      	; 0xf2 <main+0x24>

	_group=0;
      f8:	1c 86       	std	Y+12, r1	; 0x0c
	_channel=0;
      fa:	1b 86       	std	Y+11, r1	; 0x0b

	m_size = 4;
      fc:	84 e0       	ldi	r24, 0x04	; 4
      fe:	88 87       	std	Y+8, r24	; 0x08
	int8_t L_duty=0,Z_duty=0,Z_action,L_action;
     100:	1f 82       	std	Y+7, r1	; 0x07
     102:	1e 82       	std	Y+6, r1	; 0x06
	{   0,   0,	  0,   0,	0,	-8,	-12, -12,  -8,	 0,	 12,  29,  49,	73,	100},
	{   0, 	 0,	  0,   0, -12, -20,	-24, -24, -20, -12,	  0,  16,  37,	61,	 90},
	{	0,	 0,	  0, -16, -29, -37,	-41, -41, -37, -29,	-16,   0,  20,	45,	 73},
	{	0,	 0,	-20, -37, -49, -57,	-61, -61, -57, -49,	-37, -20,   0,  24,	 53},
	{	0, -24,	-45, -61, -73, -82,	-86, -86, -82, -73,	-61, -45, -24,	 0,	 29},
	{ -29, -53,	-73, -90,-100,-100,-100,-100,-100,-100,	-90, -73, -53, -29,	  0}};
     104:	de 01       	movw	r26, r28
     106:	91 96       	adiw	r26, 0x21	; 33
     108:	c2 50       	subi	r28, 0x02	; 2
     10a:	de 4f       	sbci	r29, 0xFE	; 254
     10c:	b9 83       	std	Y+1, r27	; 0x01
     10e:	a8 83       	st	Y, r26
     110:	ce 5f       	subi	r28, 0xFE	; 254
     112:	d1 40       	sbci	r29, 0x01	; 1
     114:	e9 e0       	ldi	r30, 0x09	; 9
     116:	f2 e0       	ldi	r31, 0x02	; 2
     118:	c0 50       	subi	r28, 0x00	; 0
     11a:	de 4f       	sbci	r29, 0xFE	; 254
     11c:	f9 83       	std	Y+1, r31	; 0x01
     11e:	e8 83       	st	Y, r30
     120:	c0 50       	subi	r28, 0x00	; 0
     122:	d2 40       	sbci	r29, 0x02	; 2
     124:	f1 ee       	ldi	r31, 0xE1	; 225
     126:	ce 5f       	subi	r28, 0xFE	; 254
     128:	dd 4f       	sbci	r29, 0xFD	; 253
     12a:	f8 83       	st	Y, r31
     12c:	c2 50       	subi	r28, 0x02	; 2
     12e:	d2 40       	sbci	r29, 0x02	; 2
     130:	c0 50       	subi	r28, 0x00	; 0
     132:	de 4f       	sbci	r29, 0xFE	; 254
     134:	a8 81       	ld	r26, Y
     136:	b9 81       	ldd	r27, Y+1	; 0x01
     138:	c0 50       	subi	r28, 0x00	; 0
     13a:	d2 40       	sbci	r29, 0x02	; 2
     13c:	0c 90       	ld	r0, X
     13e:	c0 50       	subi	r28, 0x00	; 0
     140:	de 4f       	sbci	r29, 0xFE	; 254
     142:	e8 81       	ld	r30, Y
     144:	f9 81       	ldd	r31, Y+1	; 0x01
     146:	c0 50       	subi	r28, 0x00	; 0
     148:	d2 40       	sbci	r29, 0x02	; 2
     14a:	31 96       	adiw	r30, 0x01	; 1
     14c:	c0 50       	subi	r28, 0x00	; 0
     14e:	de 4f       	sbci	r29, 0xFE	; 254
     150:	f9 83       	std	Y+1, r31	; 0x01
     152:	e8 83       	st	Y, r30
     154:	c0 50       	subi	r28, 0x00	; 0
     156:	d2 40       	sbci	r29, 0x02	; 2
     158:	c2 50       	subi	r28, 0x02	; 2
     15a:	de 4f       	sbci	r29, 0xFE	; 254
     15c:	a8 81       	ld	r26, Y
     15e:	b9 81       	ldd	r27, Y+1	; 0x01
     160:	ce 5f       	subi	r28, 0xFE	; 254
     162:	d1 40       	sbci	r29, 0x01	; 1
     164:	0c 92       	st	X, r0
     166:	c2 50       	subi	r28, 0x02	; 2
     168:	de 4f       	sbci	r29, 0xFE	; 254
     16a:	e8 81       	ld	r30, Y
     16c:	f9 81       	ldd	r31, Y+1	; 0x01
     16e:	ce 5f       	subi	r28, 0xFE	; 254
     170:	d1 40       	sbci	r29, 0x01	; 1
     172:	31 96       	adiw	r30, 0x01	; 1
     174:	c2 50       	subi	r28, 0x02	; 2
     176:	de 4f       	sbci	r29, 0xFE	; 254
     178:	f9 83       	std	Y+1, r31	; 0x01
     17a:	e8 83       	st	Y, r30
     17c:	ce 5f       	subi	r28, 0xFE	; 254
     17e:	d1 40       	sbci	r29, 0x01	; 1
     180:	ce 5f       	subi	r28, 0xFE	; 254
     182:	dd 4f       	sbci	r29, 0xFD	; 253
     184:	f8 81       	ld	r31, Y
     186:	c2 50       	subi	r28, 0x02	; 2
     188:	d2 40       	sbci	r29, 0x02	; 2
     18a:	f1 50       	subi	r31, 0x01	; 1
     18c:	ce 5f       	subi	r28, 0xFE	; 254
     18e:	dd 4f       	sbci	r29, 0xFD	; 253
     190:	f8 83       	st	Y, r31
     192:	c2 50       	subi	r28, 0x02	; 2
     194:	d2 40       	sbci	r29, 0x02	; 2
     196:	ce 5f       	subi	r28, 0xFE	; 254
     198:	dd 4f       	sbci	r29, 0xFD	; 253
     19a:	88 81       	ld	r24, Y
     19c:	c2 50       	subi	r28, 0x02	; 2
     19e:	d2 40       	sbci	r29, 0x02	; 2
     1a0:	88 23       	and	r24, r24
     1a2:	31 f6       	brne	.-116    	; 0x130 <main+0x62>
	{ 100,	73,	 49,  29,  12,	 0,	 -8, -12, -12,  -8,	  0,   0,	0,	 0,	  0},
	{  90,	61,	 37,  16,	0, -12,	-20, -24, -24, -20,	-12,   0,	0,	 0,	  0},
	{  73,	45,	 20,   0, -16, -29,	-37, -41, -41, -37,	-29, -16,	0,	 0,	  0},
	{  53,	24,	  0, -20, -37, -49,	-57, -61, -61, -57,	-49, -37, -20,	 0,	  0},
	{  29,	 0,	-24, -45, -61, -73,	-82, -86, -86, -82,	-73, -61, -45, -24,	  0},
	{	0, -29,	-53, -73, -90,-100,-100,-100,-100,-100,-100, -90, -73, -53,	-29}};
     1a4:	ce 01       	movw	r24, r28
     1a6:	8e 5f       	subi	r24, 0xFE	; 254
     1a8:	9e 4f       	sbci	r25, 0xFE	; 254
     1aa:	cd 5f       	subi	r28, 0xFD	; 253
     1ac:	dd 4f       	sbci	r29, 0xFD	; 253
     1ae:	99 83       	std	Y+1, r25	; 0x01
     1b0:	88 83       	st	Y, r24
     1b2:	c3 50       	subi	r28, 0x03	; 3
     1b4:	d2 40       	sbci	r29, 0x02	; 2
     1b6:	a8 e2       	ldi	r26, 0x28	; 40
     1b8:	b1 e0       	ldi	r27, 0x01	; 1
     1ba:	cb 5f       	subi	r28, 0xFB	; 251
     1bc:	dd 4f       	sbci	r29, 0xFD	; 253
     1be:	b9 83       	std	Y+1, r27	; 0x01
     1c0:	a8 83       	st	Y, r26
     1c2:	c5 50       	subi	r28, 0x05	; 5
     1c4:	d2 40       	sbci	r29, 0x02	; 2
     1c6:	b1 ee       	ldi	r27, 0xE1	; 225
     1c8:	c9 5f       	subi	r28, 0xF9	; 249
     1ca:	dd 4f       	sbci	r29, 0xFD	; 253
     1cc:	b8 83       	st	Y, r27
     1ce:	c7 50       	subi	r28, 0x07	; 7
     1d0:	d2 40       	sbci	r29, 0x02	; 2
     1d2:	cb 5f       	subi	r28, 0xFB	; 251
     1d4:	dd 4f       	sbci	r29, 0xFD	; 253
     1d6:	e8 81       	ld	r30, Y
     1d8:	f9 81       	ldd	r31, Y+1	; 0x01
     1da:	c5 50       	subi	r28, 0x05	; 5
     1dc:	d2 40       	sbci	r29, 0x02	; 2
     1de:	00 80       	ld	r0, Z
     1e0:	cb 5f       	subi	r28, 0xFB	; 251
     1e2:	dd 4f       	sbci	r29, 0xFD	; 253
     1e4:	88 81       	ld	r24, Y
     1e6:	99 81       	ldd	r25, Y+1	; 0x01
     1e8:	c5 50       	subi	r28, 0x05	; 5
     1ea:	d2 40       	sbci	r29, 0x02	; 2
     1ec:	01 96       	adiw	r24, 0x01	; 1
     1ee:	cb 5f       	subi	r28, 0xFB	; 251
     1f0:	dd 4f       	sbci	r29, 0xFD	; 253
     1f2:	99 83       	std	Y+1, r25	; 0x01
     1f4:	88 83       	st	Y, r24
     1f6:	c5 50       	subi	r28, 0x05	; 5
     1f8:	d2 40       	sbci	r29, 0x02	; 2
     1fa:	cd 5f       	subi	r28, 0xFD	; 253
     1fc:	dd 4f       	sbci	r29, 0xFD	; 253
     1fe:	a8 81       	ld	r26, Y
     200:	b9 81       	ldd	r27, Y+1	; 0x01
     202:	c3 50       	subi	r28, 0x03	; 3
     204:	d2 40       	sbci	r29, 0x02	; 2
     206:	0c 92       	st	X, r0
     208:	cd 5f       	subi	r28, 0xFD	; 253
     20a:	dd 4f       	sbci	r29, 0xFD	; 253
     20c:	e8 81       	ld	r30, Y
     20e:	f9 81       	ldd	r31, Y+1	; 0x01
     210:	c3 50       	subi	r28, 0x03	; 3
     212:	d2 40       	sbci	r29, 0x02	; 2
     214:	31 96       	adiw	r30, 0x01	; 1
     216:	cd 5f       	subi	r28, 0xFD	; 253
     218:	dd 4f       	sbci	r29, 0xFD	; 253
     21a:	f9 83       	std	Y+1, r31	; 0x01
     21c:	e8 83       	st	Y, r30
     21e:	c3 50       	subi	r28, 0x03	; 3
     220:	d2 40       	sbci	r29, 0x02	; 2
     222:	c9 5f       	subi	r28, 0xF9	; 249
     224:	dd 4f       	sbci	r29, 0xFD	; 253
     226:	f8 81       	ld	r31, Y
     228:	c7 50       	subi	r28, 0x07	; 7
     22a:	d2 40       	sbci	r29, 0x02	; 2
     22c:	f1 50       	subi	r31, 0x01	; 1
     22e:	c9 5f       	subi	r28, 0xF9	; 249
     230:	dd 4f       	sbci	r29, 0xFD	; 253
     232:	f8 83       	st	Y, r31
     234:	c7 50       	subi	r28, 0x07	; 7
     236:	d2 40       	sbci	r29, 0x02	; 2
     238:	c9 5f       	subi	r28, 0xF9	; 249
     23a:	dd 4f       	sbci	r29, 0xFD	; 253
     23c:	88 81       	ld	r24, Y
     23e:	c7 50       	subi	r28, 0x07	; 7
     240:	d2 40       	sbci	r29, 0x02	; 2
     242:	88 23       	and	r24, r24
     244:	31 f6       	brne	.-116    	; 0x1d2 <main+0x104>

	Slave Motor = {MOTOR,{(int8_t*)&slaveBuf[0],m_size},{(int8_t*)&slaveBuf[m_size],m_size}};
     246:	88 85       	ldd	r24, Y+8	; 0x08
     248:	48 2f       	mov	r20, r24
     24a:	55 27       	eor	r21, r21
     24c:	47 fd       	sbrc	r20, 7
     24e:	50 95       	com	r21
     250:	88 85       	ldd	r24, Y+8	; 0x08
     252:	99 27       	eor	r25, r25
     254:	87 fd       	sbrc	r24, 7
     256:	90 95       	com	r25
     258:	9e 01       	movw	r18, r28
     25a:	23 5f       	subi	r18, 0xF3	; 243
     25c:	3f 4f       	sbci	r19, 0xFF	; 255
     25e:	28 0f       	add	r18, r24
     260:	39 1f       	adc	r19, r25
     262:	88 85       	ldd	r24, Y+8	; 0x08
     264:	68 2f       	mov	r22, r24
     266:	77 27       	eor	r23, r23
     268:	67 fd       	sbrc	r22, 7
     26a:	70 95       	com	r23
     26c:	fe 01       	movw	r30, r28
     26e:	ed 51       	subi	r30, 0x1D	; 29
     270:	fe 4f       	sbci	r31, 0xFE	; 254
     272:	81 e0       	ldi	r24, 0x01	; 1
     274:	80 83       	st	Z, r24
     276:	fe 01       	movw	r30, r28
     278:	ed 51       	subi	r30, 0x1D	; 29
     27a:	fe 4f       	sbci	r31, 0xFE	; 254
     27c:	ce 01       	movw	r24, r28
     27e:	0d 96       	adiw	r24, 0x0d	; 13
     280:	92 83       	std	Z+2, r25	; 0x02
     282:	81 83       	std	Z+1, r24	; 0x01
     284:	fe 01       	movw	r30, r28
     286:	ed 51       	subi	r30, 0x1D	; 29
     288:	fe 4f       	sbci	r31, 0xFE	; 254
     28a:	54 83       	std	Z+4, r21	; 0x04
     28c:	43 83       	std	Z+3, r20	; 0x03
     28e:	fe 01       	movw	r30, r28
     290:	ed 51       	subi	r30, 0x1D	; 29
     292:	fe 4f       	sbci	r31, 0xFE	; 254
     294:	36 83       	std	Z+6, r19	; 0x06
     296:	25 83       	std	Z+5, r18	; 0x05
     298:	fe 01       	movw	r30, r28
     29a:	ed 51       	subi	r30, 0x1D	; 29
     29c:	fe 4f       	sbci	r31, 0xFE	; 254
     29e:	70 87       	std	Z+8, r23	; 0x08
     2a0:	67 83       	std	Z+7, r22	; 0x07
	Slave Throw = {THROW,{(int8_t*)&slaveBuf[10],1},{(int8_t*)&slaveBuf[11],1}};
     2a2:	fe 01       	movw	r30, r28
     2a4:	e4 51       	subi	r30, 0x14	; 20
     2a6:	fe 4f       	sbci	r31, 0xFE	; 254
     2a8:	80 e4       	ldi	r24, 0x40	; 64
     2aa:	80 83       	st	Z, r24
     2ac:	fe 01       	movw	r30, r28
     2ae:	e4 51       	subi	r30, 0x14	; 20
     2b0:	fe 4f       	sbci	r31, 0xFE	; 254
     2b2:	ce 01       	movw	r24, r28
     2b4:	0d 96       	adiw	r24, 0x0d	; 13
     2b6:	0a 96       	adiw	r24, 0x0a	; 10
     2b8:	92 83       	std	Z+2, r25	; 0x02
     2ba:	81 83       	std	Z+1, r24	; 0x01
     2bc:	fe 01       	movw	r30, r28
     2be:	e4 51       	subi	r30, 0x14	; 20
     2c0:	fe 4f       	sbci	r31, 0xFE	; 254
     2c2:	81 e0       	ldi	r24, 0x01	; 1
     2c4:	90 e0       	ldi	r25, 0x00	; 0
     2c6:	94 83       	std	Z+4, r25	; 0x04
     2c8:	83 83       	std	Z+3, r24	; 0x03
     2ca:	fe 01       	movw	r30, r28
     2cc:	e4 51       	subi	r30, 0x14	; 20
     2ce:	fe 4f       	sbci	r31, 0xFE	; 254
     2d0:	ce 01       	movw	r24, r28
     2d2:	0d 96       	adiw	r24, 0x0d	; 13
     2d4:	0b 96       	adiw	r24, 0x0b	; 11
     2d6:	96 83       	std	Z+6, r25	; 0x06
     2d8:	85 83       	std	Z+5, r24	; 0x05
     2da:	fe 01       	movw	r30, r28
     2dc:	e4 51       	subi	r30, 0x14	; 20
     2de:	fe 4f       	sbci	r31, 0xFE	; 254
     2e0:	81 e0       	ldi	r24, 0x01	; 1
     2e2:	90 e0       	ldi	r25, 0x00	; 0
     2e4:	90 87       	std	Z+8, r25	; 0x08
     2e6:	87 83       	std	Z+7, r24	; 0x07
#if SUPPLY_WATCHING
	Slave EStop = {ESTOP,{(int8_t*)&slaveBuf[12],1},{(int8_t*)&slaveBuf[13],1}};		
     2e8:	fe 01       	movw	r30, r28
     2ea:	eb 50       	subi	r30, 0x0B	; 11
     2ec:	fe 4f       	sbci	r31, 0xFE	; 254
     2ee:	80 e1       	ldi	r24, 0x10	; 16
     2f0:	80 83       	st	Z, r24
     2f2:	fe 01       	movw	r30, r28
     2f4:	eb 50       	subi	r30, 0x0B	; 11
     2f6:	fe 4f       	sbci	r31, 0xFE	; 254
     2f8:	ce 01       	movw	r24, r28
     2fa:	0d 96       	adiw	r24, 0x0d	; 13
     2fc:	0c 96       	adiw	r24, 0x0c	; 12
     2fe:	92 83       	std	Z+2, r25	; 0x02
     300:	81 83       	std	Z+1, r24	; 0x01
     302:	fe 01       	movw	r30, r28
     304:	eb 50       	subi	r30, 0x0B	; 11
     306:	fe 4f       	sbci	r31, 0xFE	; 254
     308:	81 e0       	ldi	r24, 0x01	; 1
     30a:	90 e0       	ldi	r25, 0x00	; 0
     30c:	94 83       	std	Z+4, r25	; 0x04
     30e:	83 83       	std	Z+3, r24	; 0x03
     310:	fe 01       	movw	r30, r28
     312:	eb 50       	subi	r30, 0x0B	; 11
     314:	fe 4f       	sbci	r31, 0xFE	; 254
     316:	ce 01       	movw	r24, r28
     318:	0d 96       	adiw	r24, 0x0d	; 13
     31a:	0d 96       	adiw	r24, 0x0d	; 13
     31c:	96 83       	std	Z+6, r25	; 0x06
     31e:	85 83       	std	Z+5, r24	; 0x05
     320:	fe 01       	movw	r30, r28
     322:	eb 50       	subi	r30, 0x0B	; 11
     324:	fe 4f       	sbci	r31, 0xFE	; 254
     326:	81 e0       	ldi	r24, 0x01	; 1
     328:	90 e0       	ldi	r25, 0x00	; 0
     32a:	90 87       	std	Z+8, r25	; 0x08
     32c:	87 83       	std	Z+7, r24	; 0x07
	uint8_t e_flag=0;
     32e:	1b 82       	std	Y+3, r1	; 0x03
#endif
	
	bool act=false,i2cStatus;
     330:	1a 82       	std	Y+2, r1	; 0x02
/*---------------------------------------------------------------*/
// 						書きかえちゃダメよ！
/*---------------------------------------------------------------*/
	LEDInit();
     332:	0e 94 b8 0c 	call	0x1970	; 0x1970 <LEDInit>
	SwitchInit();
     336:	0e 94 ef 0d 	call	0x1bde	; 0x1bde <SwitchInit>
	BeepInit();
     33a:	0e 94 6a 0e 	call	0x1cd4	; 0x1cd4 <BeepInit>
	initCtrlData();
     33e:	0e 94 72 04 	call	0x8e4	; 0x8e4 <initCtrlData>
	DDRC |= 0x04;
     342:	a7 e2       	ldi	r26, 0x27	; 39
     344:	b0 e0       	ldi	r27, 0x00	; 0
     346:	e7 e2       	ldi	r30, 0x27	; 39
     348:	f0 e0       	ldi	r31, 0x00	; 0
     34a:	80 81       	ld	r24, Z
     34c:	84 60       	ori	r24, 0x04	; 4
     34e:	8c 93       	st	X, r24
	PORTC = 0x04;
     350:	e8 e2       	ldi	r30, 0x28	; 40
     352:	f0 e0       	ldi	r31, 0x00	; 0
     354:	84 e0       	ldi	r24, 0x04	; 4
     356:	80 83       	st	Z, r24
	initI2CMaster(100);
     358:	84 e6       	ldi	r24, 0x64	; 100
     35a:	0e 94 48 0a 	call	0x1490	; 0x1490 <initI2CMaster>

	wdt_reset();
     35e:	a8 95       	wdr
	wdt_enable(WDTO_500MS);
     360:	88 e1       	ldi	r24, 0x18	; 24
     362:	90 e0       	ldi	r25, 0x00	; 0
     364:	2d e0       	ldi	r18, 0x0D	; 13
     366:	0f b6       	in	r0, 0x3f	; 63
     368:	f8 94       	cli
     36a:	a8 95       	wdr
     36c:	80 93 60 00 	sts	0x0060, r24
     370:	0f be       	out	0x3f, r0	; 63
     372:	20 93 60 00 	sts	0x0060, r18
	
	uart_init(1,UART_TE,BR_115200);
     376:	81 e0       	ldi	r24, 0x01	; 1
     378:	90 e0       	ldi	r25, 0x00	; 0
     37a:	68 e0       	ldi	r22, 0x08	; 8
     37c:	4a e0       	ldi	r20, 0x0A	; 10
     37e:	50 e0       	ldi	r21, 0x00	; 0
     380:	0e 94 d0 06 	call	0xda0	; 0xda0 <uart_init>
	uart_setbuffer(0,buf,36);
     384:	28 e1       	ldi	r18, 0x18	; 24
     386:	33 e0       	ldi	r19, 0x03	; 3
     388:	80 e0       	ldi	r24, 0x00	; 0
     38a:	90 e0       	ldi	r25, 0x00	; 0
     38c:	b9 01       	movw	r22, r18
     38e:	44 e2       	ldi	r20, 0x24	; 36
     390:	50 e0       	ldi	r21, 0x00	; 0
     392:	0e 94 63 07 	call	0xec6	; 0xec6 <uart_setbuffer>
	wait_ms(100);
     396:	84 e6       	ldi	r24, 0x64	; 100
     398:	90 e0       	ldi	r25, 0x00	; 0
     39a:	0e 94 cd 0c 	call	0x199a	; 0x199a <wait_ms>
	uart_init(0,UART_RE|UART_TE,BR_19200);
     39e:	80 e0       	ldi	r24, 0x00	; 0
     3a0:	90 e0       	ldi	r25, 0x00	; 0
     3a2:	68 e1       	ldi	r22, 0x18	; 24
     3a4:	40 e4       	ldi	r20, 0x40	; 64
     3a6:	50 e0       	ldi	r21, 0x00	; 0
     3a8:	0e 94 d0 06 	call	0xda0	; 0xda0 <uart_init>
	mu2_command("GI",group[_group]);
     3ac:	8c 85       	ldd	r24, Y+12	; 0x0c
     3ae:	88 2f       	mov	r24, r24
     3b0:	90 e0       	ldi	r25, 0x00	; 0
     3b2:	88 0f       	add	r24, r24
     3b4:	99 1f       	adc	r25, r25
     3b6:	fc 01       	movw	r30, r24
     3b8:	e4 5f       	subi	r30, 0xF4	; 244
     3ba:	fe 4f       	sbci	r31, 0xFE	; 254
     3bc:	20 81       	ld	r18, Z
     3be:	31 81       	ldd	r19, Z+1	; 0x01
     3c0:	8a ee       	ldi	r24, 0xEA	; 234
     3c2:	92 e0       	ldi	r25, 0x02	; 2
     3c4:	b9 01       	movw	r22, r18
     3c6:	0e 94 c6 05 	call	0xb8c	; 0xb8c <mu2_command>
	mu2_command("CH",channel[_channel]);
     3ca:	8b 85       	ldd	r24, Y+11	; 0x0b
     3cc:	88 2f       	mov	r24, r24
     3ce:	90 e0       	ldi	r25, 0x00	; 0
     3d0:	88 0f       	add	r24, r24
     3d2:	99 1f       	adc	r25, r25
     3d4:	fc 01       	movw	r30, r24
     3d6:	e0 5e       	subi	r30, 0xE0	; 224
     3d8:	fe 4f       	sbci	r31, 0xFE	; 254
     3da:	20 81       	ld	r18, Z
     3dc:	31 81       	ldd	r19, Z+1	; 0x01
     3de:	8d ee       	ldi	r24, 0xED	; 237
     3e0:	92 e0       	ldi	r25, 0x02	; 2
     3e2:	b9 01       	movw	r22, r18
     3e4:	0e 94 c6 05 	call	0xb8c	; 0xb8c <mu2_command>
	mu2_command("EI","08");
     3e8:	80 ef       	ldi	r24, 0xF0	; 240
     3ea:	92 e0       	ldi	r25, 0x02	; 2
     3ec:	24 e1       	ldi	r18, 0x14	; 20
     3ee:	31 e0       	ldi	r19, 0x01	; 1
     3f0:	b9 01       	movw	r22, r18
     3f2:	0e 94 c6 05 	call	0xb8c	; 0xb8c <mu2_command>
	mu2_command("DI","80");
     3f6:	83 ef       	ldi	r24, 0xF3	; 243
     3f8:	92 e0       	ldi	r25, 0x02	; 2
     3fa:	26 ef       	ldi	r18, 0xF6	; 246
     3fc:	32 e0       	ldi	r19, 0x02	; 2
     3fe:	b9 01       	movw	r22, r18
     400:	0e 94 c6 05 	call	0xb8c	; 0xb8c <mu2_command>
	mu2_command("BR","48");
     404:	89 ef       	ldi	r24, 0xF9	; 249
     406:	92 e0       	ldi	r25, 0x02	; 2
     408:	2c ef       	ldi	r18, 0xFC	; 252
     40a:	32 e0       	ldi	r19, 0x02	; 2
     40c:	b9 01       	movw	r22, r18
     40e:	0e 94 c6 05 	call	0xb8c	; 0xb8c <mu2_command>
	uart_init(0,UART_RE|UART_RXCIE,BR_4800);
     412:	80 e0       	ldi	r24, 0x00	; 0
     414:	90 e0       	ldi	r25, 0x00	; 0
     416:	60 e9       	ldi	r22, 0x90	; 144
     418:	43 e0       	ldi	r20, 0x03	; 3
     41a:	51 e0       	ldi	r21, 0x01	; 1
     41c:	0e 94 d0 06 	call	0xda0	; 0xda0 <uart_init>
	LED(0,false);LED(1,false);LED(2,false);
     420:	80 e0       	ldi	r24, 0x00	; 0
     422:	60 e0       	ldi	r22, 0x00	; 0
     424:	0e 94 7e 0c 	call	0x18fc	; 0x18fc <LED>
     428:	81 e0       	ldi	r24, 0x01	; 1
     42a:	60 e0       	ldi	r22, 0x00	; 0
     42c:	0e 94 7e 0c 	call	0x18fc	; 0x18fc <LED>
     430:	82 e0       	ldi	r24, 0x02	; 2
     432:	60 e0       	ldi	r22, 0x00	; 0
     434:	0e 94 7e 0c 	call	0x18fc	; 0x18fc <LED>
	sei();
     438:	78 94       	sei
	wait_ms(100);
     43a:	84 e6       	ldi	r24, 0x64	; 100
     43c:	90 e0       	ldi	r25, 0x00	; 0
     43e:	0e 94 cd 0c 	call	0x199a	; 0x199a <wait_ms>
	PORTC &= 0xFB;
     442:	a8 e2       	ldi	r26, 0x28	; 40
     444:	b0 e0       	ldi	r27, 0x00	; 0
     446:	e8 e2       	ldi	r30, 0x28	; 40
     448:	f0 e0       	ldi	r31, 0x00	; 0
     44a:	80 81       	ld	r24, Z
     44c:	8b 7f       	andi	r24, 0xFB	; 251
     44e:	8c 93       	st	X, r24
	wait_ms(25);
     450:	89 e1       	ldi	r24, 0x19	; 25
     452:	90 e0       	ldi	r25, 0x00	; 0
     454:	0e 94 cd 0c 	call	0x199a	; 0x199a <wait_ms>

	TCCR1A = 0;
     458:	e0 e8       	ldi	r30, 0x80	; 128
     45a:	f0 e0       	ldi	r31, 0x00	; 0
     45c:	10 82       	st	Z, r1
	TCCR1B = 5;
     45e:	e1 e8       	ldi	r30, 0x81	; 129
     460:	f0 e0       	ldi	r31, 0x00	; 0
     462:	85 e0       	ldi	r24, 0x05	; 5
     464:	80 83       	st	Z, r24
	TIMSK1 = 1;
     466:	ef e6       	ldi	r30, 0x6F	; 111
     468:	f0 e0       	ldi	r31, 0x00	; 0
     46a:	81 e0       	ldi	r24, 0x01	; 1
     46c:	80 83       	st	Z, r24
	TCNT1 = 0;
     46e:	e4 e8       	ldi	r30, 0x84	; 132
     470:	f0 e0       	ldi	r31, 0x00	; 0
     472:	11 82       	std	Z+1, r1	; 0x01
     474:	10 82       	st	Z, r1

	while(1){	
		controller = Toggle_RC_Rx_Buffer();
     476:	0e 94 95 04 	call	0x92a	; 0x92a <Toggle_RC_Rx_Buffer>
     47a:	9a 87       	std	Y+10, r25	; 0x0a
     47c:	89 87       	std	Y+9, r24	; 0x09
		if(controller->detail.Button.HOME&&controller->detail.Button.X && controller->detail.Button.UP&&
     47e:	e9 85       	ldd	r30, Y+9	; 0x09
     480:	fa 85       	ldd	r31, Y+10	; 0x0a
     482:	81 81       	ldd	r24, Z+1	; 0x01
     484:	82 70       	andi	r24, 0x02	; 2
     486:	88 23       	and	r24, r24
     488:	09 f4       	brne	.+2      	; 0x48c <main+0x3be>
     48a:	fa c0       	rjmp	.+500    	; 0x680 <main+0x5b2>
     48c:	e9 85       	ldd	r30, Y+9	; 0x09
     48e:	fa 85       	ldd	r31, Y+10	; 0x0a
     490:	80 81       	ld	r24, Z
     492:	81 70       	andi	r24, 0x01	; 1
     494:	88 23       	and	r24, r24
     496:	09 f4       	brne	.+2      	; 0x49a <main+0x3cc>
     498:	f3 c0       	rjmp	.+486    	; 0x680 <main+0x5b2>
     49a:	e9 85       	ldd	r30, Y+9	; 0x09
     49c:	fa 85       	ldd	r31, Y+10	; 0x0a
     49e:	80 81       	ld	r24, Z
     4a0:	80 71       	andi	r24, 0x10	; 16
     4a2:	88 23       	and	r24, r24
     4a4:	09 f4       	brne	.+2      	; 0x4a8 <main+0x3da>
     4a6:	ec c0       	rjmp	.+472    	; 0x680 <main+0x5b2>
     4a8:	e9 85       	ldd	r30, Y+9	; 0x09
     4aa:	fa 85       	ldd	r31, Y+10	; 0x0a
     4ac:	82 81       	ldd	r24, Z+2	; 0x02
     4ae:	8f 70       	andi	r24, 0x0F	; 15
     4b0:	88 2f       	mov	r24, r24
     4b2:	90 e0       	ldi	r25, 0x00	; 0
     4b4:	8d 30       	cpi	r24, 0x0D	; 13
     4b6:	91 05       	cpc	r25, r1
     4b8:	0c f4       	brge	.+2      	; 0x4bc <main+0x3ee>
     4ba:	e2 c0       	rjmp	.+452    	; 0x680 <main+0x5b2>
     4bc:	e9 85       	ldd	r30, Y+9	; 0x09
     4be:	fa 85       	ldd	r31, Y+10	; 0x0a
     4c0:	83 81       	ldd	r24, Z+3	; 0x03
     4c2:	8f 70       	andi	r24, 0x0F	; 15
     4c4:	88 2f       	mov	r24, r24
     4c6:	90 e0       	ldi	r25, 0x00	; 0
     4c8:	8d 30       	cpi	r24, 0x0D	; 13
     4ca:	91 05       	cpc	r25, r1
     4cc:	0c f4       	brge	.+2      	; 0x4d0 <main+0x402>
     4ce:	d8 c0       	rjmp	.+432    	; 0x680 <main+0x5b2>
			controller->detail.AnalogL.Y >12 &&	controller->detail.AnalogR.Y >12){
				LED(0,false);LED(1,false);LED(2,false);
     4d0:	80 e0       	ldi	r24, 0x00	; 0
     4d2:	60 e0       	ldi	r22, 0x00	; 0
     4d4:	0e 94 7e 0c 	call	0x18fc	; 0x18fc <LED>
     4d8:	81 e0       	ldi	r24, 0x01	; 1
     4da:	60 e0       	ldi	r22, 0x00	; 0
     4dc:	0e 94 7e 0c 	call	0x18fc	; 0x18fc <LED>
     4e0:	82 e0       	ldi	r24, 0x02	; 2
     4e2:	60 e0       	ldi	r22, 0x00	; 0
     4e4:	0e 94 7e 0c 	call	0x18fc	; 0x18fc <LED>
				uart_init(0,UART_RE|UART_TE,BR_4800);
     4e8:	80 e0       	ldi	r24, 0x00	; 0
     4ea:	90 e0       	ldi	r25, 0x00	; 0
     4ec:	68 e1       	ldi	r22, 0x18	; 24
     4ee:	43 e0       	ldi	r20, 0x03	; 3
     4f0:	51 e0       	ldi	r21, 0x01	; 1
     4f2:	0e 94 d0 06 	call	0xda0	; 0xda0 <uart_init>
				LED(2,mu2_command_eeprom("GI",group[_group]));
     4f6:	8c 85       	ldd	r24, Y+12	; 0x0c
     4f8:	88 2f       	mov	r24, r24
     4fa:	90 e0       	ldi	r25, 0x00	; 0
     4fc:	88 0f       	add	r24, r24
     4fe:	99 1f       	adc	r25, r25
     500:	fc 01       	movw	r30, r24
     502:	e4 5f       	subi	r30, 0xF4	; 244
     504:	fe 4f       	sbci	r31, 0xFE	; 254
     506:	20 81       	ld	r18, Z
     508:	31 81       	ldd	r19, Z+1	; 0x01
     50a:	8a ee       	ldi	r24, 0xEA	; 234
     50c:	92 e0       	ldi	r25, 0x02	; 2
     50e:	b9 01       	movw	r22, r18
     510:	0e 94 48 06 	call	0xc90	; 0xc90 <mu2_command_eeprom>
     514:	c8 5f       	subi	r28, 0xF8	; 248
     516:	dd 4f       	sbci	r29, 0xFD	; 253
     518:	88 83       	st	Y, r24
     51a:	c8 50       	subi	r28, 0x08	; 8
     51c:	d2 40       	sbci	r29, 0x02	; 2
     51e:	c8 5f       	subi	r28, 0xF8	; 248
     520:	dd 4f       	sbci	r29, 0xFD	; 253
     522:	98 81       	ld	r25, Y
     524:	c8 50       	subi	r28, 0x08	; 8
     526:	d2 40       	sbci	r29, 0x02	; 2
     528:	99 23       	and	r25, r25
     52a:	31 f0       	breq	.+12     	; 0x538 <main+0x46a>
     52c:	a1 e0       	ldi	r26, 0x01	; 1
     52e:	c8 5f       	subi	r28, 0xF8	; 248
     530:	dd 4f       	sbci	r29, 0xFD	; 253
     532:	a8 83       	st	Y, r26
     534:	c8 50       	subi	r28, 0x08	; 8
     536:	d2 40       	sbci	r29, 0x02	; 2
     538:	c8 5f       	subi	r28, 0xF8	; 248
     53a:	dd 4f       	sbci	r29, 0xFD	; 253
     53c:	98 81       	ld	r25, Y
     53e:	c8 50       	subi	r28, 0x08	; 8
     540:	d2 40       	sbci	r29, 0x02	; 2
     542:	82 e0       	ldi	r24, 0x02	; 2
     544:	69 2f       	mov	r22, r25
     546:	0e 94 7e 0c 	call	0x18fc	; 0x18fc <LED>
				LED(2,mu2_command_eeprom("CH",channel[_channel]));
     54a:	8b 85       	ldd	r24, Y+11	; 0x0b
     54c:	88 2f       	mov	r24, r24
     54e:	90 e0       	ldi	r25, 0x00	; 0
     550:	88 0f       	add	r24, r24
     552:	99 1f       	adc	r25, r25
     554:	fc 01       	movw	r30, r24
     556:	e0 5e       	subi	r30, 0xE0	; 224
     558:	fe 4f       	sbci	r31, 0xFE	; 254
     55a:	20 81       	ld	r18, Z
     55c:	31 81       	ldd	r19, Z+1	; 0x01
     55e:	8d ee       	ldi	r24, 0xED	; 237
     560:	92 e0       	ldi	r25, 0x02	; 2
     562:	b9 01       	movw	r22, r18
     564:	0e 94 48 06 	call	0xc90	; 0xc90 <mu2_command_eeprom>
     568:	c7 5f       	subi	r28, 0xF7	; 247
     56a:	dd 4f       	sbci	r29, 0xFD	; 253
     56c:	88 83       	st	Y, r24
     56e:	c9 50       	subi	r28, 0x09	; 9
     570:	d2 40       	sbci	r29, 0x02	; 2
     572:	c7 5f       	subi	r28, 0xF7	; 247
     574:	dd 4f       	sbci	r29, 0xFD	; 253
     576:	b8 81       	ld	r27, Y
     578:	c9 50       	subi	r28, 0x09	; 9
     57a:	d2 40       	sbci	r29, 0x02	; 2
     57c:	bb 23       	and	r27, r27
     57e:	31 f0       	breq	.+12     	; 0x58c <main+0x4be>
     580:	e1 e0       	ldi	r30, 0x01	; 1
     582:	c7 5f       	subi	r28, 0xF7	; 247
     584:	dd 4f       	sbci	r29, 0xFD	; 253
     586:	e8 83       	st	Y, r30
     588:	c9 50       	subi	r28, 0x09	; 9
     58a:	d2 40       	sbci	r29, 0x02	; 2
     58c:	c7 5f       	subi	r28, 0xF7	; 247
     58e:	dd 4f       	sbci	r29, 0xFD	; 253
     590:	98 81       	ld	r25, Y
     592:	c9 50       	subi	r28, 0x09	; 9
     594:	d2 40       	sbci	r29, 0x02	; 2
     596:	82 e0       	ldi	r24, 0x02	; 2
     598:	69 2f       	mov	r22, r25
     59a:	0e 94 7e 0c 	call	0x18fc	; 0x18fc <LED>
				LED(2,mu2_command_eeprom("EI","08"));
     59e:	80 ef       	ldi	r24, 0xF0	; 240
     5a0:	92 e0       	ldi	r25, 0x02	; 2
     5a2:	24 e1       	ldi	r18, 0x14	; 20
     5a4:	31 e0       	ldi	r19, 0x01	; 1
     5a6:	b9 01       	movw	r22, r18
     5a8:	0e 94 48 06 	call	0xc90	; 0xc90 <mu2_command_eeprom>
     5ac:	c6 5f       	subi	r28, 0xF6	; 246
     5ae:	dd 4f       	sbci	r29, 0xFD	; 253
     5b0:	88 83       	st	Y, r24
     5b2:	ca 50       	subi	r28, 0x0A	; 10
     5b4:	d2 40       	sbci	r29, 0x02	; 2
     5b6:	c6 5f       	subi	r28, 0xF6	; 246
     5b8:	dd 4f       	sbci	r29, 0xFD	; 253
     5ba:	f8 81       	ld	r31, Y
     5bc:	ca 50       	subi	r28, 0x0A	; 10
     5be:	d2 40       	sbci	r29, 0x02	; 2
     5c0:	ff 23       	and	r31, r31
     5c2:	31 f0       	breq	.+12     	; 0x5d0 <main+0x502>
     5c4:	81 e0       	ldi	r24, 0x01	; 1
     5c6:	c6 5f       	subi	r28, 0xF6	; 246
     5c8:	dd 4f       	sbci	r29, 0xFD	; 253
     5ca:	88 83       	st	Y, r24
     5cc:	ca 50       	subi	r28, 0x0A	; 10
     5ce:	d2 40       	sbci	r29, 0x02	; 2
     5d0:	c6 5f       	subi	r28, 0xF6	; 246
     5d2:	dd 4f       	sbci	r29, 0xFD	; 253
     5d4:	98 81       	ld	r25, Y
     5d6:	ca 50       	subi	r28, 0x0A	; 10
     5d8:	d2 40       	sbci	r29, 0x02	; 2
     5da:	82 e0       	ldi	r24, 0x02	; 2
     5dc:	69 2f       	mov	r22, r25
     5de:	0e 94 7e 0c 	call	0x18fc	; 0x18fc <LED>
				LED(2,mu2_command_eeprom("DI","80"));
     5e2:	83 ef       	ldi	r24, 0xF3	; 243
     5e4:	92 e0       	ldi	r25, 0x02	; 2
     5e6:	26 ef       	ldi	r18, 0xF6	; 246
     5e8:	32 e0       	ldi	r19, 0x02	; 2
     5ea:	b9 01       	movw	r22, r18
     5ec:	0e 94 48 06 	call	0xc90	; 0xc90 <mu2_command_eeprom>
     5f0:	c5 5f       	subi	r28, 0xF5	; 245
     5f2:	dd 4f       	sbci	r29, 0xFD	; 253
     5f4:	88 83       	st	Y, r24
     5f6:	cb 50       	subi	r28, 0x0B	; 11
     5f8:	d2 40       	sbci	r29, 0x02	; 2
     5fa:	c5 5f       	subi	r28, 0xF5	; 245
     5fc:	dd 4f       	sbci	r29, 0xFD	; 253
     5fe:	98 81       	ld	r25, Y
     600:	cb 50       	subi	r28, 0x0B	; 11
     602:	d2 40       	sbci	r29, 0x02	; 2
     604:	99 23       	and	r25, r25
     606:	31 f0       	breq	.+12     	; 0x614 <main+0x546>
     608:	a1 e0       	ldi	r26, 0x01	; 1
     60a:	c5 5f       	subi	r28, 0xF5	; 245
     60c:	dd 4f       	sbci	r29, 0xFD	; 253
     60e:	a8 83       	st	Y, r26
     610:	cb 50       	subi	r28, 0x0B	; 11
     612:	d2 40       	sbci	r29, 0x02	; 2
     614:	c5 5f       	subi	r28, 0xF5	; 245
     616:	dd 4f       	sbci	r29, 0xFD	; 253
     618:	98 81       	ld	r25, Y
     61a:	cb 50       	subi	r28, 0x0B	; 11
     61c:	d2 40       	sbci	r29, 0x02	; 2
     61e:	82 e0       	ldi	r24, 0x02	; 2
     620:	69 2f       	mov	r22, r25
     622:	0e 94 7e 0c 	call	0x18fc	; 0x18fc <LED>
				LED(2,mu2_command_eeprom("BR","48"));
     626:	89 ef       	ldi	r24, 0xF9	; 249
     628:	92 e0       	ldi	r25, 0x02	; 2
     62a:	2c ef       	ldi	r18, 0xFC	; 252
     62c:	32 e0       	ldi	r19, 0x02	; 2
     62e:	b9 01       	movw	r22, r18
     630:	0e 94 48 06 	call	0xc90	; 0xc90 <mu2_command_eeprom>
     634:	c4 5f       	subi	r28, 0xF4	; 244
     636:	dd 4f       	sbci	r29, 0xFD	; 253
     638:	88 83       	st	Y, r24
     63a:	cc 50       	subi	r28, 0x0C	; 12
     63c:	d2 40       	sbci	r29, 0x02	; 2
     63e:	c4 5f       	subi	r28, 0xF4	; 244
     640:	dd 4f       	sbci	r29, 0xFD	; 253
     642:	b8 81       	ld	r27, Y
     644:	cc 50       	subi	r28, 0x0C	; 12
     646:	d2 40       	sbci	r29, 0x02	; 2
     648:	bb 23       	and	r27, r27
     64a:	31 f0       	breq	.+12     	; 0x658 <main+0x58a>
     64c:	e1 e0       	ldi	r30, 0x01	; 1
     64e:	c4 5f       	subi	r28, 0xF4	; 244
     650:	dd 4f       	sbci	r29, 0xFD	; 253
     652:	e8 83       	st	Y, r30
     654:	cc 50       	subi	r28, 0x0C	; 12
     656:	d2 40       	sbci	r29, 0x02	; 2
     658:	c4 5f       	subi	r28, 0xF4	; 244
     65a:	dd 4f       	sbci	r29, 0xFD	; 253
     65c:	98 81       	ld	r25, Y
     65e:	cc 50       	subi	r28, 0x0C	; 12
     660:	d2 40       	sbci	r29, 0x02	; 2
     662:	82 e0       	ldi	r24, 0x02	; 2
     664:	69 2f       	mov	r22, r25
     666:	0e 94 7e 0c 	call	0x18fc	; 0x18fc <LED>
				wait_ms(100);
     66a:	84 e6       	ldi	r24, 0x64	; 100
     66c:	90 e0       	ldi	r25, 0x00	; 0
     66e:	0e 94 cd 0c 	call	0x199a	; 0x199a <wait_ms>
				uart_init(0,UART_RE|UART_RXCIE,BR_4800);
     672:	80 e0       	ldi	r24, 0x00	; 0
     674:	90 e0       	ldi	r25, 0x00	; 0
     676:	60 e9       	ldi	r22, 0x90	; 144
     678:	43 e0       	ldi	r20, 0x03	; 3
     67a:	51 e0       	ldi	r21, 0x01	; 1
     67c:	0e 94 d0 06 	call	0xda0	; 0xda0 <uart_init>
			}
/*-------------------------------------------------------------------------*/


		L_duty = 0;
     680:	1f 82       	std	Y+7, r1	; 0x07
		Z_duty = 0;
     682:	1e 82       	std	Y+6, r1	; 0x06
		L_action=CW;
     684:	81 e0       	ldi	r24, 0x01	; 1
     686:	8c 83       	std	Y+4, r24	; 0x04
		Z_action=CW;
     688:	81 e0       	ldi	r24, 0x01	; 1
     68a:	8d 83       	std	Y+5, r24	; 0x05
		if(controller->detail.Button.LEFT){
     68c:	e9 85       	ldd	r30, Y+9	; 0x09
     68e:	fa 85       	ldd	r31, Y+10	; 0x0a
     690:	80 81       	ld	r24, Z
     692:	80 78       	andi	r24, 0x80	; 128
     694:	88 23       	and	r24, r24
     696:	29 f0       	breq	.+10     	; 0x6a2 <main+0x5d4>
			L_duty = 50;Z_duty = 54;
     698:	82 e3       	ldi	r24, 0x32	; 50
     69a:	8f 83       	std	Y+7, r24	; 0x07
     69c:	86 e3       	ldi	r24, 0x36	; 54
     69e:	8e 83       	std	Y+6, r24	; 0x06
     6a0:	67 c0       	rjmp	.+206    	; 0x770 <main+0x6a2>
			}
		else if(controller->detail.Button.RIGHT){
     6a2:	e9 85       	ldd	r30, Y+9	; 0x09
     6a4:	fa 85       	ldd	r31, Y+10	; 0x0a
     6a6:	80 81       	ld	r24, Z
     6a8:	80 72       	andi	r24, 0x20	; 32
     6aa:	88 23       	and	r24, r24
     6ac:	29 f0       	breq	.+10     	; 0x6b8 <main+0x5ea>
			L_duty =-53;Z_duty =-50;
     6ae:	8b ec       	ldi	r24, 0xCB	; 203
     6b0:	8f 83       	std	Y+7, r24	; 0x07
     6b2:	8e ec       	ldi	r24, 0xCE	; 206
     6b4:	8e 83       	std	Y+6, r24	; 0x06
     6b6:	5c c0       	rjmp	.+184    	; 0x770 <main+0x6a2>
			}
		else if(controller->detail.Button.L){
     6b8:	e9 85       	ldd	r30, Y+9	; 0x09
     6ba:	fa 85       	ldd	r31, Y+10	; 0x0a
     6bc:	81 81       	ldd	r24, Z+1	; 0x01
     6be:	80 72       	andi	r24, 0x20	; 32
     6c0:	88 23       	and	r24, r24
     6c2:	c9 f0       	breq	.+50     	; 0x6f6 <main+0x628>
			L_duty= 55;Z_duty= -50;
     6c4:	87 e3       	ldi	r24, 0x37	; 55
     6c6:	8f 83       	std	Y+7, r24	; 0x07
     6c8:	8e ec       	ldi	r24, 0xCE	; 206
     6ca:	8e 83       	std	Y+6, r24	; 0x06
/*さいくろん*/
			if(controller->detail.Button.ZL){
     6cc:	e9 85       	ldd	r30, Y+9	; 0x09
     6ce:	fa 85       	ldd	r31, Y+10	; 0x0a
     6d0:	81 81       	ldd	r24, Z+1	; 0x01
     6d2:	88 70       	andi	r24, 0x08	; 8
     6d4:	88 23       	and	r24, r24
     6d6:	19 f0       	breq	.+6      	; 0x6de <main+0x610>
				L_duty=100;
     6d8:	84 e6       	ldi	r24, 0x64	; 100
     6da:	8f 83       	std	Y+7, r24	; 0x07
				Z_duty= 0;
     6dc:	1e 82       	std	Y+6, r1	; 0x06
				}
			if(controller->detail.Button.X){
     6de:	e9 85       	ldd	r30, Y+9	; 0x09
     6e0:	fa 85       	ldd	r31, Y+10	; 0x0a
     6e2:	80 81       	ld	r24, Z
     6e4:	81 70       	andi	r24, 0x01	; 1
     6e6:	88 23       	and	r24, r24
     6e8:	09 f4       	brne	.+2      	; 0x6ec <main+0x61e>
     6ea:	42 c0       	rjmp	.+132    	; 0x770 <main+0x6a2>
					L_duty=100;
     6ec:	84 e6       	ldi	r24, 0x64	; 100
     6ee:	8f 83       	std	Y+7, r24	; 0x07
					Z_duty= -100;
     6f0:	8c e9       	ldi	r24, 0x9C	; 156
     6f2:	8e 83       	std	Y+6, r24	; 0x06
     6f4:	3d c0       	rjmp	.+122    	; 0x770 <main+0x6a2>
				}
			}
			
		else if(controller->detail.Button.R){
     6f6:	e9 85       	ldd	r30, Y+9	; 0x09
     6f8:	fa 85       	ldd	r31, Y+10	; 0x0a
     6fa:	81 81       	ldd	r24, Z+1	; 0x01
     6fc:	80 74       	andi	r24, 0x40	; 64
     6fe:	88 23       	and	r24, r24
     700:	c1 f0       	breq	.+48     	; 0x732 <main+0x664>
			L_duty= -50;Z_duty= 50;
     702:	8e ec       	ldi	r24, 0xCE	; 206
     704:	8f 83       	std	Y+7, r24	; 0x07
     706:	82 e3       	ldi	r24, 0x32	; 50
     708:	8e 83       	std	Y+6, r24	; 0x06
/*さいくろん*/
			if(controller->detail.Button.ZR){
     70a:	e9 85       	ldd	r30, Y+9	; 0x09
     70c:	fa 85       	ldd	r31, Y+10	; 0x0a
     70e:	81 81       	ldd	r24, Z+1	; 0x01
     710:	80 71       	andi	r24, 0x10	; 16
     712:	88 23       	and	r24, r24
     714:	19 f0       	breq	.+6      	; 0x71c <main+0x64e>
				Z_duty=100;
     716:	84 e6       	ldi	r24, 0x64	; 100
     718:	8e 83       	std	Y+6, r24	; 0x06
				L_duty=0;
     71a:	1f 82       	std	Y+7, r1	; 0x07
				}
			if(controller->detail.Button.X){
     71c:	e9 85       	ldd	r30, Y+9	; 0x09
     71e:	fa 85       	ldd	r31, Y+10	; 0x0a
     720:	80 81       	ld	r24, Z
     722:	81 70       	andi	r24, 0x01	; 1
     724:	88 23       	and	r24, r24
     726:	21 f1       	breq	.+72     	; 0x770 <main+0x6a2>
				L_duty=-100;
     728:	8c e9       	ldi	r24, 0x9C	; 156
     72a:	8f 83       	std	Y+7, r24	; 0x07
				Z_duty= 100;
     72c:	84 e6       	ldi	r24, 0x64	; 100
     72e:	8e 83       	std	Y+6, r24	; 0x06
     730:	1f c0       	rjmp	.+62     	; 0x770 <main+0x6a2>
				}
			}
		else {
			x = controller->detail.AnalogL.X;
     732:	e9 85       	ldd	r30, Y+9	; 0x09
     734:	fa 85       	ldd	r31, Y+10	; 0x0a
     736:	82 81       	ldd	r24, Z+2	; 0x02
     738:	82 95       	swap	r24
     73a:	8f 70       	andi	r24, 0x0F	; 15
     73c:	88 2f       	mov	r24, r24
     73e:	90 e0       	ldi	r25, 0x00	; 0
     740:	9e 8f       	std	Y+30, r25	; 0x1e
     742:	8d 8f       	std	Y+29, r24	; 0x1d
			y = controller->detail.AnalogL.Y;
     744:	e9 85       	ldd	r30, Y+9	; 0x09
     746:	fa 85       	ldd	r31, Y+10	; 0x0a
     748:	82 81       	ldd	r24, Z+2	; 0x02
     74a:	8f 70       	andi	r24, 0x0F	; 15
     74c:	88 2f       	mov	r24, r24
     74e:	90 e0       	ldi	r25, 0x00	; 0
     750:	98 a3       	std	Y+32, r25	; 0x20
     752:	8f 8f       	std	Y+31, r24	; 0x1f
			Z_action=CW;
			L_action=CW;
			L_duty /= 2;
			Z_duty /= 2;
*/
			if(x==7&&y==7) { Z_action=BRAKE; L_action=BRAKE; }
     754:	8d 8d       	ldd	r24, Y+29	; 0x1d
     756:	9e 8d       	ldd	r25, Y+30	; 0x1e
     758:	87 30       	cpi	r24, 0x07	; 7
     75a:	91 05       	cpc	r25, r1
     75c:	49 f4       	brne	.+18     	; 0x770 <main+0x6a2>
     75e:	8f 8d       	ldd	r24, Y+31	; 0x1f
     760:	98 a1       	ldd	r25, Y+32	; 0x20
     762:	87 30       	cpi	r24, 0x07	; 7
     764:	91 05       	cpc	r25, r1
     766:	21 f4       	brne	.+8      	; 0x770 <main+0x6a2>
     768:	83 e0       	ldi	r24, 0x03	; 3
     76a:	8d 83       	std	Y+5, r24	; 0x05
     76c:	83 e0       	ldi	r24, 0x03	; 3
     76e:	8c 83       	std	Y+4, r24	; 0x04
		}
		if(Z_duty==0) { Z_action=BRAKE; }
     770:	8e 81       	ldd	r24, Y+6	; 0x06
     772:	88 23       	and	r24, r24
     774:	11 f4       	brne	.+4      	; 0x77a <main+0x6ac>
     776:	83 e0       	ldi	r24, 0x03	; 3
     778:	8d 83       	std	Y+5, r24	; 0x05
		if(L_duty==0) { L_action=BRAKE; }
     77a:	8f 81       	ldd	r24, Y+7	; 0x07
     77c:	88 23       	and	r24, r24
     77e:	11 f4       	brne	.+4      	; 0x784 <main+0x6b6>
     780:	83 e0       	ldi	r24, 0x03	; 3
     782:	8c 83       	std	Y+4, r24	; 0x04
		mDrive(&Motor,Z_action,Z_duty,0);
     784:	2d 81       	ldd	r18, Y+5	; 0x05
     786:	ce 01       	movw	r24, r28
     788:	8d 51       	subi	r24, 0x1D	; 29
     78a:	9e 4f       	sbci	r25, 0xFE	; 254
     78c:	62 2f       	mov	r22, r18
     78e:	4e 81       	ldd	r20, Y+6	; 0x06
     790:	20 e0       	ldi	r18, 0x00	; 0
     792:	0e 94 57 0d 	call	0x1aae	; 0x1aae <mDrive>
		mDrive(&Motor,L_action,-L_duty,1);
     796:	2c 81       	ldd	r18, Y+4	; 0x04
     798:	8f 81       	ldd	r24, Y+7	; 0x07
     79a:	38 2f       	mov	r19, r24
     79c:	31 95       	neg	r19
     79e:	ce 01       	movw	r24, r28
     7a0:	8d 51       	subi	r24, 0x1D	; 29
     7a2:	9e 4f       	sbci	r25, 0xFE	; 254
     7a4:	62 2f       	mov	r22, r18
     7a6:	43 2f       	mov	r20, r19
     7a8:	21 e0       	ldi	r18, 0x01	; 1
     7aa:	0e 94 57 0d 	call	0x1aae	; 0x1aae <mDrive>
		mDrive(&Motor,Z_action,Z_duty,2);
     7ae:	2d 81       	ldd	r18, Y+5	; 0x05
     7b0:	ce 01       	movw	r24, r28
     7b2:	8d 51       	subi	r24, 0x1D	; 29
     7b4:	9e 4f       	sbci	r25, 0xFE	; 254
     7b6:	62 2f       	mov	r22, r18
     7b8:	4e 81       	ldd	r20, Y+6	; 0x06
     7ba:	22 e0       	ldi	r18, 0x02	; 2
     7bc:	0e 94 57 0d 	call	0x1aae	; 0x1aae <mDrive>
		mDrive(&Motor,L_action,-L_duty,3);
     7c0:	2c 81       	ldd	r18, Y+4	; 0x04
     7c2:	8f 81       	ldd	r24, Y+7	; 0x07
     7c4:	38 2f       	mov	r19, r24
     7c6:	31 95       	neg	r19
     7c8:	ce 01       	movw	r24, r28
     7ca:	8d 51       	subi	r24, 0x1D	; 29
     7cc:	9e 4f       	sbci	r25, 0xFE	; 254
     7ce:	62 2f       	mov	r22, r18
     7d0:	43 2f       	mov	r20, r19
     7d2:	23 e0       	ldi	r18, 0x03	; 3
     7d4:	0e 94 57 0d 	call	0x1aae	; 0x1aae <mDrive>
/*AIR*/
		if(controller->detail.Button.Y) act=1;
     7d8:	e9 85       	ldd	r30, Y+9	; 0x09
     7da:	fa 85       	ldd	r31, Y+10	; 0x0a
     7dc:	80 81       	ld	r24, Z
     7de:	88 70       	andi	r24, 0x08	; 8
     7e0:	88 23       	and	r24, r24
     7e2:	19 f0       	breq	.+6      	; 0x7ea <main+0x71c>
     7e4:	81 e0       	ldi	r24, 0x01	; 1
     7e6:	8a 83       	std	Y+2, r24	; 0x02
     7e8:	01 c0       	rjmp	.+2      	; 0x7ec <main+0x71e>
		else act=0;
     7ea:	1a 82       	std	Y+2, r1	; 0x02
		aDrive(&Throw,0x03,act);
     7ec:	ce 01       	movw	r24, r28
     7ee:	84 51       	subi	r24, 0x14	; 20
     7f0:	9e 4f       	sbci	r25, 0xFE	; 254
     7f2:	63 e0       	ldi	r22, 0x03	; 3
     7f4:	4a 81       	ldd	r20, Y+2	; 0x02
     7f6:	0e 94 cd 0d 	call	0x1b9a	; 0x1b9a <aDrive>

#if SUPPLY_WATCHING
/*バルスモード*/
		/*バルス!!!!!*/
		if(controller->detail.Button.SELECT&&controller->detail.Button.START) e_flag=E_ON;
     7fa:	e9 85       	ldd	r30, Y+9	; 0x09
     7fc:	fa 85       	ldd	r31, Y+10	; 0x0a
     7fe:	81 81       	ldd	r24, Z+1	; 0x01
     800:	81 70       	andi	r24, 0x01	; 1
     802:	88 23       	and	r24, r24
     804:	49 f0       	breq	.+18     	; 0x818 <main+0x74a>
     806:	e9 85       	ldd	r30, Y+9	; 0x09
     808:	fa 85       	ldd	r31, Y+10	; 0x0a
     80a:	81 81       	ldd	r24, Z+1	; 0x01
     80c:	84 70       	andi	r24, 0x04	; 4
     80e:	88 23       	and	r24, r24
     810:	19 f0       	breq	.+6      	; 0x818 <main+0x74a>
     812:	81 e0       	ldi	r24, 0x01	; 1
     814:	8b 83       	std	Y+3, r24	; 0x03
     816:	0a c0       	rjmp	.+20     	; 0x82c <main+0x75e>
		/*復活!!!!!!!*/
		else if(controller->detail.Button.HOME) e_flag=E_OFF;
     818:	e9 85       	ldd	r30, Y+9	; 0x09
     81a:	fa 85       	ldd	r31, Y+10	; 0x0a
     81c:	81 81       	ldd	r24, Z+1	; 0x01
     81e:	82 70       	andi	r24, 0x02	; 2
     820:	88 23       	and	r24, r24
     822:	19 f0       	breq	.+6      	; 0x82a <main+0x75c>
     824:	82 e0       	ldi	r24, 0x02	; 2
     826:	8b 83       	std	Y+3, r24	; 0x03
     828:	01 c0       	rjmp	.+2      	; 0x82c <main+0x75e>
		else e_flag=E_KEEP;	
     82a:	1b 82       	std	Y+3, r1	; 0x03
#endif

/*I2C Writeing And Check*/
		i2cStatus = true;
     82c:	81 e0       	ldi	r24, 0x01	; 1
     82e:	89 83       	std	Y+1, r24	; 0x01
		i2cStatus &= i2cWrite(&Motor); wait_us(4);  
     830:	89 81       	ldd	r24, Y+1	; 0x01
     832:	08 2f       	mov	r16, r24
     834:	10 e0       	ldi	r17, 0x00	; 0
     836:	ce 01       	movw	r24, r28
     838:	8d 51       	subi	r24, 0x1D	; 29
     83a:	9e 4f       	sbci	r25, 0xFE	; 254
     83c:	0e 94 7f 0a 	call	0x14fe	; 0x14fe <i2cWrite>
     840:	88 2f       	mov	r24, r24
     842:	90 e0       	ldi	r25, 0x00	; 0
     844:	80 23       	and	r24, r16
     846:	91 23       	and	r25, r17
     848:	19 82       	std	Y+1, r1	; 0x01
     84a:	00 97       	sbiw	r24, 0x00	; 0
     84c:	11 f0       	breq	.+4      	; 0x852 <main+0x784>
     84e:	81 e0       	ldi	r24, 0x01	; 1
     850:	89 83       	std	Y+1, r24	; 0x01
     852:	84 e0       	ldi	r24, 0x04	; 4
     854:	90 e0       	ldi	r25, 0x00	; 0
     856:	0e 94 1b 0d 	call	0x1a36	; 0x1a36 <wait_us>
#if SUPPLY_WATCHING
		i2cStatus &= Emergency(&EStop,e_flag);	
     85a:	89 81       	ldd	r24, Y+1	; 0x01
     85c:	08 2f       	mov	r16, r24
     85e:	10 e0       	ldi	r17, 0x00	; 0
     860:	2b 81       	ldd	r18, Y+3	; 0x03
     862:	ce 01       	movw	r24, r28
     864:	8b 50       	subi	r24, 0x0B	; 11
     866:	9e 4f       	sbci	r25, 0xFE	; 254
     868:	62 2f       	mov	r22, r18
     86a:	0e 94 ad 0e 	call	0x1d5a	; 0x1d5a <Emergency>
     86e:	88 2f       	mov	r24, r24
     870:	90 e0       	ldi	r25, 0x00	; 0
     872:	80 23       	and	r24, r16
     874:	91 23       	and	r25, r17
     876:	19 82       	std	Y+1, r1	; 0x01
     878:	00 97       	sbiw	r24, 0x00	; 0
     87a:	11 f0       	breq	.+4      	; 0x880 <main+0x7b2>
     87c:	81 e0       	ldi	r24, 0x01	; 1
     87e:	89 83       	std	Y+1, r24	; 0x01
		i2cStatus &= i2cWrite(&EStop); wait_us(4);
     880:	89 81       	ldd	r24, Y+1	; 0x01
     882:	08 2f       	mov	r16, r24
     884:	10 e0       	ldi	r17, 0x00	; 0
     886:	ce 01       	movw	r24, r28
     888:	8b 50       	subi	r24, 0x0B	; 11
     88a:	9e 4f       	sbci	r25, 0xFE	; 254
     88c:	0e 94 7f 0a 	call	0x14fe	; 0x14fe <i2cWrite>
     890:	88 2f       	mov	r24, r24
     892:	90 e0       	ldi	r25, 0x00	; 0
     894:	80 23       	and	r24, r16
     896:	91 23       	and	r25, r17
     898:	19 82       	std	Y+1, r1	; 0x01
     89a:	00 97       	sbiw	r24, 0x00	; 0
     89c:	11 f0       	breq	.+4      	; 0x8a2 <main+0x7d4>
     89e:	81 e0       	ldi	r24, 0x01	; 1
     8a0:	89 83       	std	Y+1, r24	; 0x01
     8a2:	84 e0       	ldi	r24, 0x04	; 4
     8a4:	90 e0       	ldi	r25, 0x00	; 0
     8a6:	0e 94 1b 0d 	call	0x1a36	; 0x1a36 <wait_us>
#endif
		i2cStatus &= i2cWrite(&Throw); wait_us(4);
     8aa:	89 81       	ldd	r24, Y+1	; 0x01
     8ac:	08 2f       	mov	r16, r24
     8ae:	10 e0       	ldi	r17, 0x00	; 0
     8b0:	ce 01       	movw	r24, r28
     8b2:	84 51       	subi	r24, 0x14	; 20
     8b4:	9e 4f       	sbci	r25, 0xFE	; 254
     8b6:	0e 94 7f 0a 	call	0x14fe	; 0x14fe <i2cWrite>
     8ba:	88 2f       	mov	r24, r24
     8bc:	90 e0       	ldi	r25, 0x00	; 0
     8be:	80 23       	and	r24, r16
     8c0:	91 23       	and	r25, r17
     8c2:	19 82       	std	Y+1, r1	; 0x01
     8c4:	00 97       	sbiw	r24, 0x00	; 0
     8c6:	11 f0       	breq	.+4      	; 0x8cc <main+0x7fe>
     8c8:	81 e0       	ldi	r24, 0x01	; 1
     8ca:	89 83       	std	Y+1, r24	; 0x01
     8cc:	84 e0       	ldi	r24, 0x04	; 4
     8ce:	90 e0       	ldi	r25, 0x00	; 0
     8d0:	0e 94 1b 0d 	call	0x1a36	; 0x1a36 <wait_us>
		i2cCheck(i2cStatus);
     8d4:	89 81       	ldd	r24, Y+1	; 0x01
     8d6:	0e 94 7f 0e 	call	0x1cfe	; 0x1cfe <i2cCheck>

/********これ以降を書き換えることは推奨されないよ!!!********/
		wait_ms(25);
     8da:	89 e1       	ldi	r24, 0x19	; 25
     8dc:	90 e0       	ldi	r25, 0x00	; 0
     8de:	0e 94 cd 0c 	call	0x199a	; 0x199a <wait_ms>
     8e2:	c9 cd       	rjmp	.-1134   	; 0x476 <main+0x3a8>

000008e4 <initCtrlData>:
static volatile uint8_t i=0,cnt=0;
static volatile bool phase = false;
static volatile char check[] = "DR=";
static volatile uint8_t ovf_cnt = 0;

void initCtrlData(void){
     8e4:	df 93       	push	r29
     8e6:	cf 93       	push	r28
     8e8:	cd b7       	in	r28, 0x3d	; 61
     8ea:	de b7       	in	r29, 0x3e	; 62
	for(i=0;i<RC_DATA_LENGTH;i++){
     8ec:	10 92 3c 03 	sts	0x033C, r1
     8f0:	15 c0       	rjmp	.+42     	; 0x91c <initCtrlData+0x38>
			ctrlData.buf[i] = defaultCtrlData[i];
     8f2:	80 91 3c 03 	lds	r24, 0x033C
     8f6:	28 2f       	mov	r18, r24
     8f8:	30 e0       	ldi	r19, 0x00	; 0
     8fa:	80 91 3c 03 	lds	r24, 0x033C
     8fe:	88 2f       	mov	r24, r24
     900:	90 e0       	ldi	r25, 0x00	; 0
     902:	fc 01       	movw	r30, r24
     904:	e1 50       	subi	r30, 0x01	; 1
     906:	fd 4f       	sbci	r31, 0xFD	; 253
     908:	80 81       	ld	r24, Z
     90a:	f9 01       	movw	r30, r18
     90c:	e0 5c       	subi	r30, 0xC0	; 192
     90e:	fc 4f       	sbci	r31, 0xFC	; 252
     910:	80 83       	st	Z, r24
static volatile bool phase = false;
static volatile char check[] = "DR=";
static volatile uint8_t ovf_cnt = 0;

void initCtrlData(void){
	for(i=0;i<RC_DATA_LENGTH;i++){
     912:	80 91 3c 03 	lds	r24, 0x033C
     916:	8f 5f       	subi	r24, 0xFF	; 255
     918:	80 93 3c 03 	sts	0x033C, r24
     91c:	80 91 3c 03 	lds	r24, 0x033C
     920:	84 30       	cpi	r24, 0x04	; 4
     922:	38 f3       	brcs	.-50     	; 0x8f2 <initCtrlData+0xe>
			ctrlData.buf[i] = defaultCtrlData[i];
		}
}
     924:	cf 91       	pop	r28
     926:	df 91       	pop	r29
     928:	08 95       	ret

0000092a <Toggle_RC_Rx_Buffer>:
		Sleep(5);
	}
}
*/
union controller_data *Toggle_RC_Rx_Buffer(void)
{
     92a:	df 93       	push	r29
     92c:	cf 93       	push	r28
     92e:	cd b7       	in	r28, 0x3d	; 61
     930:	de b7       	in	r29, 0x3e	; 62
	cli();
     932:	f8 94       	cli
	for(i=0;i<RC_DATA_LENGTH;i++){
     934:	10 92 3c 03 	sts	0x033C, r1
     938:	15 c0       	rjmp	.+42     	; 0x964 <Toggle_RC_Rx_Buffer+0x3a>
		keepCtrlData.buf[i] = ctrlData.buf[i];
     93a:	80 91 3c 03 	lds	r24, 0x033C
     93e:	28 2f       	mov	r18, r24
     940:	30 e0       	ldi	r19, 0x00	; 0
     942:	80 91 3c 03 	lds	r24, 0x033C
     946:	88 2f       	mov	r24, r24
     948:	90 e0       	ldi	r25, 0x00	; 0
     94a:	fc 01       	movw	r30, r24
     94c:	e0 5c       	subi	r30, 0xC0	; 192
     94e:	fc 4f       	sbci	r31, 0xFC	; 252
     950:	80 81       	ld	r24, Z
     952:	f9 01       	movw	r30, r18
     954:	ec 5b       	subi	r30, 0xBC	; 188
     956:	fc 4f       	sbci	r31, 0xFC	; 252
     958:	80 83       	st	Z, r24
}
*/
union controller_data *Toggle_RC_Rx_Buffer(void)
{
	cli();
	for(i=0;i<RC_DATA_LENGTH;i++){
     95a:	80 91 3c 03 	lds	r24, 0x033C
     95e:	8f 5f       	subi	r24, 0xFF	; 255
     960:	80 93 3c 03 	sts	0x033C, r24
     964:	80 91 3c 03 	lds	r24, 0x033C
     968:	84 30       	cpi	r24, 0x04	; 4
     96a:	38 f3       	brcs	.-50     	; 0x93a <Toggle_RC_Rx_Buffer+0x10>
		keepCtrlData.buf[i] = ctrlData.buf[i];
	}
	sei();
     96c:	78 94       	sei
	return &keepCtrlData;
     96e:	84 e4       	ldi	r24, 0x44	; 68
     970:	93 e0       	ldi	r25, 0x03	; 3
}
     972:	cf 91       	pop	r28
     974:	df 91       	pop	r29
     976:	08 95       	ret

00000978 <__vector_20>:


ISR(USART0_RX_vect)
{
     978:	1f 92       	push	r1
     97a:	0f 92       	push	r0
     97c:	0f b6       	in	r0, 0x3f	; 63
     97e:	0f 92       	push	r0
     980:	00 90 5b 00 	lds	r0, 0x005B
     984:	0f 92       	push	r0
     986:	11 24       	eor	r1, r1
     988:	2f 93       	push	r18
     98a:	3f 93       	push	r19
     98c:	4f 93       	push	r20
     98e:	5f 93       	push	r21
     990:	6f 93       	push	r22
     992:	7f 93       	push	r23
     994:	8f 93       	push	r24
     996:	9f 93       	push	r25
     998:	af 93       	push	r26
     99a:	bf 93       	push	r27
     99c:	ef 93       	push	r30
     99e:	ff 93       	push	r31
     9a0:	df 93       	push	r29
     9a2:	cf 93       	push	r28
     9a4:	cd b7       	in	r28, 0x3d	; 61
     9a6:	de b7       	in	r29, 0x3e	; 62
	val = UDR0;
     9a8:	e6 ec       	ldi	r30, 0xC6	; 198
     9aa:	f0 e0       	ldi	r31, 0x00	; 0
     9ac:	80 81       	ld	r24, Z
     9ae:	80 93 60 03 	sts	0x0360, r24

	if(phase){
     9b2:	80 91 3e 03 	lds	r24, 0x033E
     9b6:	88 23       	and	r24, r24
     9b8:	09 f4       	brne	.+2      	; 0x9bc <__vector_20+0x44>
     9ba:	52 c0       	rjmp	.+164    	; 0xa60 <__vector_20+0xe8>
		packet[cnt] = val;
     9bc:	80 91 3d 03 	lds	r24, 0x033D
     9c0:	88 2f       	mov	r24, r24
     9c2:	90 e0       	ldi	r25, 0x00	; 0
     9c4:	20 91 60 03 	lds	r18, 0x0360
     9c8:	fc 01       	movw	r30, r24
     9ca:	e8 5b       	subi	r30, 0xB8	; 184
     9cc:	fc 4f       	sbci	r31, 0xFC	; 252
     9ce:	20 83       	st	Z, r18
//		uart1_putchar(packet[cnt]);
		if(cnt<2){
     9d0:	80 91 3d 03 	lds	r24, 0x033D
     9d4:	82 30       	cpi	r24, 0x02	; 2
     9d6:	b0 f4       	brcc	.+44     	; 0xa04 <__vector_20+0x8c>
			if(val != check[cnt]){
     9d8:	80 91 3d 03 	lds	r24, 0x033D
     9dc:	88 2f       	mov	r24, r24
     9de:	90 e0       	ldi	r25, 0x00	; 0
     9e0:	fc 01       	movw	r30, r24
     9e2:	ed 5f       	subi	r30, 0xFD	; 253
     9e4:	fc 4f       	sbci	r31, 0xFC	; 252
     9e6:	90 81       	ld	r25, Z
     9e8:	80 91 60 03 	lds	r24, 0x0360
     9ec:	98 17       	cp	r25, r24
     9ee:	91 f1       	breq	.+100    	; 0xa54 <__vector_20+0xdc>
				phase = false;
     9f0:	10 92 3e 03 	sts	0x033E, r1
//				uart1_putchar('@');
				LED(0,false);
     9f4:	80 e0       	ldi	r24, 0x00	; 0
     9f6:	60 e0       	ldi	r22, 0x00	; 0
     9f8:	0e 94 7e 0c 	call	0x18fc	; 0x18fc <LED>
				beep(1);
     9fc:	81 e0       	ldi	r24, 0x01	; 1
     9fe:	0e 94 42 0e 	call	0x1c84	; 0x1c84 <beep>
     a02:	28 c0       	rjmp	.+80     	; 0xa54 <__vector_20+0xdc>
			}
		}else if(cnt==8){
     a04:	80 91 3d 03 	lds	r24, 0x033D
     a08:	88 30       	cpi	r24, 0x08	; 8
     a0a:	21 f5       	brne	.+72     	; 0xa54 <__vector_20+0xdc>
			ctrlData.buf[0] = packet[5];
     a0c:	80 91 4d 03 	lds	r24, 0x034D
     a10:	80 93 40 03 	sts	0x0340, r24
			ctrlData.buf[1] = packet[6];
     a14:	80 91 4e 03 	lds	r24, 0x034E
     a18:	80 93 41 03 	sts	0x0341, r24
			ctrlData.buf[2] = packet[7];
     a1c:	80 91 4f 03 	lds	r24, 0x034F
     a20:	80 93 42 03 	sts	0x0342, r24
			ctrlData.buf[3] = packet[8];
     a24:	80 91 50 03 	lds	r24, 0x0350
     a28:	80 93 43 03 	sts	0x0343, r24
			phase = false;
     a2c:	10 92 3e 03 	sts	0x033E, r1
			wdt_reset();
     a30:	a8 95       	wdr
			LED(0,true);
     a32:	80 e0       	ldi	r24, 0x00	; 0
     a34:	61 e0       	ldi	r22, 0x01	; 1
     a36:	0e 94 7e 0c 	call	0x18fc	; 0x18fc <LED>
			if(EmergencyStatus()) beep(0);
     a3a:	0e 94 1b 0f 	call	0x1e36	; 0x1e36 <EmergencyStatus>
     a3e:	88 23       	and	r24, r24
     a40:	19 f0       	breq	.+6      	; 0xa48 <__vector_20+0xd0>
     a42:	80 e0       	ldi	r24, 0x00	; 0
     a44:	0e 94 42 0e 	call	0x1c84	; 0x1c84 <beep>
			ovf_cnt = 0;
     a48:	10 92 3f 03 	sts	0x033F, r1
			TCNT1 = 0;
     a4c:	e4 e8       	ldi	r30, 0x84	; 132
     a4e:	f0 e0       	ldi	r31, 0x00	; 0
     a50:	11 82       	std	Z+1, r1	; 0x01
     a52:	10 82       	st	Z, r1
		}
		cnt++;
     a54:	80 91 3d 03 	lds	r24, 0x033D
     a58:	8f 5f       	subi	r24, 0xFF	; 255
     a5a:	80 93 3d 03 	sts	0x033D, r24
     a5e:	09 c0       	rjmp	.+18     	; 0xa72 <__vector_20+0xfa>
	}else{
		if(val=='*'){
     a60:	80 91 60 03 	lds	r24, 0x0360
     a64:	8a 32       	cpi	r24, 0x2A	; 42
     a66:	29 f4       	brne	.+10     	; 0xa72 <__vector_20+0xfa>
		cnt = 0;
     a68:	10 92 3d 03 	sts	0x033D, r1
		phase = true;
     a6c:	81 e0       	ldi	r24, 0x01	; 1
     a6e:	80 93 3e 03 	sts	0x033E, r24
		}
	}

}
     a72:	cf 91       	pop	r28
     a74:	df 91       	pop	r29
     a76:	ff 91       	pop	r31
     a78:	ef 91       	pop	r30
     a7a:	bf 91       	pop	r27
     a7c:	af 91       	pop	r26
     a7e:	9f 91       	pop	r25
     a80:	8f 91       	pop	r24
     a82:	7f 91       	pop	r23
     a84:	6f 91       	pop	r22
     a86:	5f 91       	pop	r21
     a88:	4f 91       	pop	r20
     a8a:	3f 91       	pop	r19
     a8c:	2f 91       	pop	r18
     a8e:	0f 90       	pop	r0
     a90:	00 92 5b 00 	sts	0x005B, r0
     a94:	0f 90       	pop	r0
     a96:	0f be       	out	0x3f, r0	; 63
     a98:	0f 90       	pop	r0
     a9a:	1f 90       	pop	r1
     a9c:	18 95       	reti

00000a9e <__vector_15>:

ISR (TIMER1_OVF_vect){
     a9e:	1f 92       	push	r1
     aa0:	0f 92       	push	r0
     aa2:	0f b6       	in	r0, 0x3f	; 63
     aa4:	0f 92       	push	r0
     aa6:	00 90 5b 00 	lds	r0, 0x005B
     aaa:	0f 92       	push	r0
     aac:	11 24       	eor	r1, r1
     aae:	2f 93       	push	r18
     ab0:	3f 93       	push	r19
     ab2:	8f 93       	push	r24
     ab4:	9f 93       	push	r25
     ab6:	ef 93       	push	r30
     ab8:	ff 93       	push	r31
     aba:	df 93       	push	r29
     abc:	cf 93       	push	r28
     abe:	cd b7       	in	r28, 0x3d	; 61
     ac0:	de b7       	in	r29, 0x3e	; 62
	ovf_cnt++;
     ac2:	80 91 3f 03 	lds	r24, 0x033F
     ac6:	8f 5f       	subi	r24, 0xFF	; 255
     ac8:	80 93 3f 03 	sts	0x033F, r24
	if(ovf_cnt>150){
     acc:	80 91 3f 03 	lds	r24, 0x033F
     ad0:	87 39       	cpi	r24, 0x97	; 151
     ad2:	f0 f0       	brcs	.+60     	; 0xb10 <__vector_15+0x72>
		ovf_cnt = 0;
     ad4:	10 92 3f 03 	sts	0x033F, r1
		for(i=0;i<RC_DATA_LENGTH;i++){
     ad8:	10 92 3c 03 	sts	0x033C, r1
     adc:	15 c0       	rjmp	.+42     	; 0xb08 <__vector_15+0x6a>
			ctrlData.buf[i] = defaultCtrlData[i];
     ade:	80 91 3c 03 	lds	r24, 0x033C
     ae2:	28 2f       	mov	r18, r24
     ae4:	30 e0       	ldi	r19, 0x00	; 0
     ae6:	80 91 3c 03 	lds	r24, 0x033C
     aea:	88 2f       	mov	r24, r24
     aec:	90 e0       	ldi	r25, 0x00	; 0
     aee:	fc 01       	movw	r30, r24
     af0:	e1 50       	subi	r30, 0x01	; 1
     af2:	fd 4f       	sbci	r31, 0xFD	; 253
     af4:	80 81       	ld	r24, Z
     af6:	f9 01       	movw	r30, r18
     af8:	e0 5c       	subi	r30, 0xC0	; 192
     afa:	fc 4f       	sbci	r31, 0xFC	; 252
     afc:	80 83       	st	Z, r24

ISR (TIMER1_OVF_vect){
	ovf_cnt++;
	if(ovf_cnt>150){
		ovf_cnt = 0;
		for(i=0;i<RC_DATA_LENGTH;i++){
     afe:	80 91 3c 03 	lds	r24, 0x033C
     b02:	8f 5f       	subi	r24, 0xFF	; 255
     b04:	80 93 3c 03 	sts	0x033C, r24
     b08:	80 91 3c 03 	lds	r24, 0x033C
     b0c:	84 30       	cpi	r24, 0x04	; 4
     b0e:	38 f3       	brcs	.-50     	; 0xade <__vector_15+0x40>
			ctrlData.buf[i] = defaultCtrlData[i];
		}
	}
}
     b10:	cf 91       	pop	r28
     b12:	df 91       	pop	r29
     b14:	ff 91       	pop	r31
     b16:	ef 91       	pop	r30
     b18:	9f 91       	pop	r25
     b1a:	8f 91       	pop	r24
     b1c:	3f 91       	pop	r19
     b1e:	2f 91       	pop	r18
     b20:	0f 90       	pop	r0
     b22:	00 92 5b 00 	sts	0x005B, r0
     b26:	0f 90       	pop	r0
     b28:	0f be       	out	0x3f, r0	; 63
     b2a:	0f 90       	pop	r0
     b2c:	1f 90       	pop	r1
     b2e:	18 95       	reti

00000b30 <Byte2Str>:
/// バイト（0x00〜0xFF）の数を2桁の文字列に変換
/// </summary>
/// <param name="num">変換対象の数字</param>
/// <param name="str">変換後の文字列を格納する領域</param>
void Byte2Str(unsigned char num, char *str)
{
     b30:	df 93       	push	r29
     b32:	cf 93       	push	r28
     b34:	00 d0       	rcall	.+0      	; 0xb36 <Byte2Str+0x6>
     b36:	0f 92       	push	r0
     b38:	cd b7       	in	r28, 0x3d	; 61
     b3a:	de b7       	in	r29, 0x3e	; 62
     b3c:	89 83       	std	Y+1, r24	; 0x01
     b3e:	7b 83       	std	Y+3, r23	; 0x03
     b40:	6a 83       	std	Y+2, r22	; 0x02
	str[0] = ascii[(num >> 4) & 0x0F];
     b42:	89 81       	ldd	r24, Y+1	; 0x01
     b44:	82 95       	swap	r24
     b46:	8f 70       	andi	r24, 0x0F	; 15
     b48:	88 2f       	mov	r24, r24
     b4a:	90 e0       	ldi	r25, 0x00	; 0
     b4c:	fc 01       	movw	r30, r24
     b4e:	e9 5f       	subi	r30, 0xF9	; 249
     b50:	fc 4f       	sbci	r31, 0xFC	; 252
     b52:	80 81       	ld	r24, Z
     b54:	ea 81       	ldd	r30, Y+2	; 0x02
     b56:	fb 81       	ldd	r31, Y+3	; 0x03
     b58:	80 83       	st	Z, r24
	str[1] = ascii[num&0x0F];
     b5a:	8a 81       	ldd	r24, Y+2	; 0x02
     b5c:	9b 81       	ldd	r25, Y+3	; 0x03
     b5e:	dc 01       	movw	r26, r24
     b60:	11 96       	adiw	r26, 0x01	; 1
     b62:	89 81       	ldd	r24, Y+1	; 0x01
     b64:	88 2f       	mov	r24, r24
     b66:	90 e0       	ldi	r25, 0x00	; 0
     b68:	8f 70       	andi	r24, 0x0F	; 15
     b6a:	90 70       	andi	r25, 0x00	; 0
     b6c:	fc 01       	movw	r30, r24
     b6e:	e9 5f       	subi	r30, 0xF9	; 249
     b70:	fc 4f       	sbci	r31, 0xFC	; 252
     b72:	80 81       	ld	r24, Z
     b74:	8c 93       	st	X, r24
	str[2] = '\0';
     b76:	8a 81       	ldd	r24, Y+2	; 0x02
     b78:	9b 81       	ldd	r25, Y+3	; 0x03
     b7a:	fc 01       	movw	r30, r24
     b7c:	32 96       	adiw	r30, 0x02	; 2
     b7e:	10 82       	st	Z, r1
}
     b80:	0f 90       	pop	r0
     b82:	0f 90       	pop	r0
     b84:	0f 90       	pop	r0
     b86:	cf 91       	pop	r28
     b88:	df 91       	pop	r29
     b8a:	08 95       	ret

00000b8c <mu2_command>:

unsigned char mu2_command(const char *cmd, char *val){
     b8c:	0f 93       	push	r16
     b8e:	1f 93       	push	r17
     b90:	df 93       	push	r29
     b92:	cf 93       	push	r28
     b94:	00 d0       	rcall	.+0      	; 0xb96 <mu2_command+0xa>
     b96:	00 d0       	rcall	.+0      	; 0xb98 <mu2_command+0xc>
     b98:	0f 92       	push	r0
     b9a:	cd b7       	in	r28, 0x3d	; 61
     b9c:	de b7       	in	r29, 0x3e	; 62
     b9e:	9a 83       	std	Y+2, r25	; 0x02
     ba0:	89 83       	std	Y+1, r24	; 0x01
     ba2:	7c 83       	std	Y+4, r23	; 0x04
     ba4:	6b 83       	std	Y+3, r22	; 0x03
	uart0_putchar('@');
     ba6:	80 e4       	ldi	r24, 0x40	; 64
     ba8:	0e 94 ac 07 	call	0xf58	; 0xf58 <uart0_putchar>
	uart0_putchar(cmd[0]);
     bac:	e9 81       	ldd	r30, Y+1	; 0x01
     bae:	fa 81       	ldd	r31, Y+2	; 0x02
     bb0:	80 81       	ld	r24, Z
     bb2:	0e 94 ac 07 	call	0xf58	; 0xf58 <uart0_putchar>
	uart0_putchar(cmd[1]);
     bb6:	89 81       	ldd	r24, Y+1	; 0x01
     bb8:	9a 81       	ldd	r25, Y+2	; 0x02
     bba:	fc 01       	movw	r30, r24
     bbc:	31 96       	adiw	r30, 0x01	; 1
     bbe:	80 81       	ld	r24, Z
     bc0:	0e 94 ac 07 	call	0xf58	; 0xf58 <uart0_putchar>
     bc4:	0a c0       	rjmp	.+20     	; 0xbda <mu2_command+0x4e>
	while(*val!='\0'){
		uart0_putchar(*val);
     bc6:	eb 81       	ldd	r30, Y+3	; 0x03
     bc8:	fc 81       	ldd	r31, Y+4	; 0x04
     bca:	80 81       	ld	r24, Z
     bcc:	0e 94 ac 07 	call	0xf58	; 0xf58 <uart0_putchar>
		val++;
     bd0:	8b 81       	ldd	r24, Y+3	; 0x03
     bd2:	9c 81       	ldd	r25, Y+4	; 0x04
     bd4:	01 96       	adiw	r24, 0x01	; 1
     bd6:	9c 83       	std	Y+4, r25	; 0x04
     bd8:	8b 83       	std	Y+3, r24	; 0x03

unsigned char mu2_command(const char *cmd, char *val){
	uart0_putchar('@');
	uart0_putchar(cmd[0]);
	uart0_putchar(cmd[1]);
	while(*val!='\0'){
     bda:	eb 81       	ldd	r30, Y+3	; 0x03
     bdc:	fc 81       	ldd	r31, Y+4	; 0x04
     bde:	80 81       	ld	r24, Z
     be0:	88 23       	and	r24, r24
     be2:	89 f7       	brne	.-30     	; 0xbc6 <mu2_command+0x3a>
		uart0_putchar(*val);
		val++;
	}
	uart0_putchar(0x0d);
     be4:	8d e0       	ldi	r24, 0x0D	; 13
     be6:	0e 94 ac 07 	call	0xf58	; 0xf58 <uart0_putchar>
	uart0_putchar(0x0a);
     bea:	8a e0       	ldi	r24, 0x0A	; 10
     bec:	0e 94 ac 07 	call	0xf58	; 0xf58 <uart0_putchar>
	for(i=0;i<10;i++){
     bf0:	10 92 61 03 	sts	0x0361, r1
     bf4:	32 c0       	rjmp	.+100    	; 0xc5a <mu2_command+0xce>
		tmp[i] = uart0_getchar();
     bf6:	80 91 61 03 	lds	r24, 0x0361
     bfa:	08 2f       	mov	r16, r24
     bfc:	10 e0       	ldi	r17, 0x00	; 0
     bfe:	0e 94 96 07 	call	0xf2c	; 0xf2c <uart0_getchar>
     c02:	f8 01       	movw	r30, r16
     c04:	ee 59       	subi	r30, 0x9E	; 158
     c06:	fc 4f       	sbci	r31, 0xFC	; 252
     c08:	80 83       	st	Z, r24
		uart1_putchar(tmp[i]);
     c0a:	80 91 61 03 	lds	r24, 0x0361
     c0e:	88 2f       	mov	r24, r24
     c10:	90 e0       	ldi	r25, 0x00	; 0
     c12:	fc 01       	movw	r30, r24
     c14:	ee 59       	subi	r30, 0x9E	; 158
     c16:	fc 4f       	sbci	r31, 0xFC	; 252
     c18:	80 81       	ld	r24, Z
     c1a:	0e 94 cc 07 	call	0xf98	; 0xf98 <uart1_putchar>
		if(i>0&&tmp[i-1] == 0x0d && tmp[i] == 0x0a) break;
     c1e:	80 91 61 03 	lds	r24, 0x0361
     c22:	88 23       	and	r24, r24
     c24:	a9 f0       	breq	.+42     	; 0xc50 <mu2_command+0xc4>
     c26:	80 91 61 03 	lds	r24, 0x0361
     c2a:	88 2f       	mov	r24, r24
     c2c:	90 e0       	ldi	r25, 0x00	; 0
     c2e:	01 97       	sbiw	r24, 0x01	; 1
     c30:	fc 01       	movw	r30, r24
     c32:	ee 59       	subi	r30, 0x9E	; 158
     c34:	fc 4f       	sbci	r31, 0xFC	; 252
     c36:	80 81       	ld	r24, Z
     c38:	8d 30       	cpi	r24, 0x0D	; 13
     c3a:	51 f4       	brne	.+20     	; 0xc50 <mu2_command+0xc4>
     c3c:	80 91 61 03 	lds	r24, 0x0361
     c40:	88 2f       	mov	r24, r24
     c42:	90 e0       	ldi	r25, 0x00	; 0
     c44:	fc 01       	movw	r30, r24
     c46:	ee 59       	subi	r30, 0x9E	; 158
     c48:	fc 4f       	sbci	r31, 0xFC	; 252
     c4a:	80 81       	ld	r24, Z
     c4c:	8a 30       	cpi	r24, 0x0A	; 10
     c4e:	49 f0       	breq	.+18     	; 0xc62 <mu2_command+0xd6>
		uart0_putchar(*val);
		val++;
	}
	uart0_putchar(0x0d);
	uart0_putchar(0x0a);
	for(i=0;i<10;i++){
     c50:	80 91 61 03 	lds	r24, 0x0361
     c54:	8f 5f       	subi	r24, 0xFF	; 255
     c56:	80 93 61 03 	sts	0x0361, r24
     c5a:	80 91 61 03 	lds	r24, 0x0361
     c5e:	8a 30       	cpi	r24, 0x0A	; 10
     c60:	50 f2       	brcs	.-108    	; 0xbf6 <mu2_command+0x6a>
		tmp[i] = uart0_getchar();
		uart1_putchar(tmp[i]);
		if(i>0&&tmp[i-1] == 0x0d && tmp[i] == 0x0a) break;
	} 
	if(tmp[1]=='E'&&tmp[2]=='R'){return 1;}
     c62:	80 91 63 03 	lds	r24, 0x0363
     c66:	85 34       	cpi	r24, 0x45	; 69
     c68:	39 f4       	brne	.+14     	; 0xc78 <mu2_command+0xec>
     c6a:	80 91 64 03 	lds	r24, 0x0364
     c6e:	82 35       	cpi	r24, 0x52	; 82
     c70:	19 f4       	brne	.+6      	; 0xc78 <mu2_command+0xec>
     c72:	81 e0       	ldi	r24, 0x01	; 1
     c74:	8d 83       	std	Y+5, r24	; 0x05
     c76:	01 c0       	rjmp	.+2      	; 0xc7a <mu2_command+0xee>
	return 0;
     c78:	1d 82       	std	Y+5, r1	; 0x05
     c7a:	8d 81       	ldd	r24, Y+5	; 0x05
}
     c7c:	0f 90       	pop	r0
     c7e:	0f 90       	pop	r0
     c80:	0f 90       	pop	r0
     c82:	0f 90       	pop	r0
     c84:	0f 90       	pop	r0
     c86:	cf 91       	pop	r28
     c88:	df 91       	pop	r29
     c8a:	1f 91       	pop	r17
     c8c:	0f 91       	pop	r16
     c8e:	08 95       	ret

00000c90 <mu2_command_eeprom>:

unsigned char mu2_command_eeprom(const char *cmd, char *val){
     c90:	0f 93       	push	r16
     c92:	1f 93       	push	r17
     c94:	df 93       	push	r29
     c96:	cf 93       	push	r28
     c98:	00 d0       	rcall	.+0      	; 0xc9a <mu2_command_eeprom+0xa>
     c9a:	00 d0       	rcall	.+0      	; 0xc9c <mu2_command_eeprom+0xc>
     c9c:	0f 92       	push	r0
     c9e:	cd b7       	in	r28, 0x3d	; 61
     ca0:	de b7       	in	r29, 0x3e	; 62
     ca2:	9a 83       	std	Y+2, r25	; 0x02
     ca4:	89 83       	std	Y+1, r24	; 0x01
     ca6:	7c 83       	std	Y+4, r23	; 0x04
     ca8:	6b 83       	std	Y+3, r22	; 0x03
	uart0_putchar('@');
     caa:	80 e4       	ldi	r24, 0x40	; 64
     cac:	0e 94 ac 07 	call	0xf58	; 0xf58 <uart0_putchar>
	uart0_putchar(cmd[0]);
     cb0:	e9 81       	ldd	r30, Y+1	; 0x01
     cb2:	fa 81       	ldd	r31, Y+2	; 0x02
     cb4:	80 81       	ld	r24, Z
     cb6:	0e 94 ac 07 	call	0xf58	; 0xf58 <uart0_putchar>
	uart0_putchar(cmd[1]);
     cba:	89 81       	ldd	r24, Y+1	; 0x01
     cbc:	9a 81       	ldd	r25, Y+2	; 0x02
     cbe:	fc 01       	movw	r30, r24
     cc0:	31 96       	adiw	r30, 0x01	; 1
     cc2:	80 81       	ld	r24, Z
     cc4:	0e 94 ac 07 	call	0xf58	; 0xf58 <uart0_putchar>
     cc8:	0a c0       	rjmp	.+20     	; 0xcde <mu2_command_eeprom+0x4e>
	while(*val!='\0'){
		uart0_putchar(*val);
     cca:	eb 81       	ldd	r30, Y+3	; 0x03
     ccc:	fc 81       	ldd	r31, Y+4	; 0x04
     cce:	80 81       	ld	r24, Z
     cd0:	0e 94 ac 07 	call	0xf58	; 0xf58 <uart0_putchar>
		val++;
     cd4:	8b 81       	ldd	r24, Y+3	; 0x03
     cd6:	9c 81       	ldd	r25, Y+4	; 0x04
     cd8:	01 96       	adiw	r24, 0x01	; 1
     cda:	9c 83       	std	Y+4, r25	; 0x04
     cdc:	8b 83       	std	Y+3, r24	; 0x03

unsigned char mu2_command_eeprom(const char *cmd, char *val){
	uart0_putchar('@');
	uart0_putchar(cmd[0]);
	uart0_putchar(cmd[1]);
	while(*val!='\0'){
     cde:	eb 81       	ldd	r30, Y+3	; 0x03
     ce0:	fc 81       	ldd	r31, Y+4	; 0x04
     ce2:	80 81       	ld	r24, Z
     ce4:	88 23       	and	r24, r24
     ce6:	89 f7       	brne	.-30     	; 0xcca <mu2_command_eeprom+0x3a>
		uart0_putchar(*val);
		val++;
	}
	uart0_putchar('/');
     ce8:	8f e2       	ldi	r24, 0x2F	; 47
     cea:	0e 94 ac 07 	call	0xf58	; 0xf58 <uart0_putchar>
	uart0_putchar('W');
     cee:	87 e5       	ldi	r24, 0x57	; 87
     cf0:	0e 94 ac 07 	call	0xf58	; 0xf58 <uart0_putchar>
	uart0_putchar(0x0d);
     cf4:	8d e0       	ldi	r24, 0x0D	; 13
     cf6:	0e 94 ac 07 	call	0xf58	; 0xf58 <uart0_putchar>
	uart0_putchar(0x0a);
     cfa:	8a e0       	ldi	r24, 0x0A	; 10
     cfc:	0e 94 ac 07 	call	0xf58	; 0xf58 <uart0_putchar>
	for(i=0;i<10;i++){
     d00:	10 92 61 03 	sts	0x0361, r1
     d04:	32 c0       	rjmp	.+100    	; 0xd6a <mu2_command_eeprom+0xda>
		tmp[i] = uart0_getchar();
     d06:	80 91 61 03 	lds	r24, 0x0361
     d0a:	08 2f       	mov	r16, r24
     d0c:	10 e0       	ldi	r17, 0x00	; 0
     d0e:	0e 94 96 07 	call	0xf2c	; 0xf2c <uart0_getchar>
     d12:	f8 01       	movw	r30, r16
     d14:	ee 59       	subi	r30, 0x9E	; 158
     d16:	fc 4f       	sbci	r31, 0xFC	; 252
     d18:	80 83       	st	Z, r24
		uart1_putchar(tmp[i]);
     d1a:	80 91 61 03 	lds	r24, 0x0361
     d1e:	88 2f       	mov	r24, r24
     d20:	90 e0       	ldi	r25, 0x00	; 0
     d22:	fc 01       	movw	r30, r24
     d24:	ee 59       	subi	r30, 0x9E	; 158
     d26:	fc 4f       	sbci	r31, 0xFC	; 252
     d28:	80 81       	ld	r24, Z
     d2a:	0e 94 cc 07 	call	0xf98	; 0xf98 <uart1_putchar>
		if(i>0&&tmp[i-1] == 0x0d && tmp[i] == 0x0a) break;
     d2e:	80 91 61 03 	lds	r24, 0x0361
     d32:	88 23       	and	r24, r24
     d34:	a9 f0       	breq	.+42     	; 0xd60 <mu2_command_eeprom+0xd0>
     d36:	80 91 61 03 	lds	r24, 0x0361
     d3a:	88 2f       	mov	r24, r24
     d3c:	90 e0       	ldi	r25, 0x00	; 0
     d3e:	01 97       	sbiw	r24, 0x01	; 1
     d40:	fc 01       	movw	r30, r24
     d42:	ee 59       	subi	r30, 0x9E	; 158
     d44:	fc 4f       	sbci	r31, 0xFC	; 252
     d46:	80 81       	ld	r24, Z
     d48:	8d 30       	cpi	r24, 0x0D	; 13
     d4a:	51 f4       	brne	.+20     	; 0xd60 <mu2_command_eeprom+0xd0>
     d4c:	80 91 61 03 	lds	r24, 0x0361
     d50:	88 2f       	mov	r24, r24
     d52:	90 e0       	ldi	r25, 0x00	; 0
     d54:	fc 01       	movw	r30, r24
     d56:	ee 59       	subi	r30, 0x9E	; 158
     d58:	fc 4f       	sbci	r31, 0xFC	; 252
     d5a:	80 81       	ld	r24, Z
     d5c:	8a 30       	cpi	r24, 0x0A	; 10
     d5e:	49 f0       	breq	.+18     	; 0xd72 <mu2_command_eeprom+0xe2>
	}
	uart0_putchar('/');
	uart0_putchar('W');
	uart0_putchar(0x0d);
	uart0_putchar(0x0a);
	for(i=0;i<10;i++){
     d60:	80 91 61 03 	lds	r24, 0x0361
     d64:	8f 5f       	subi	r24, 0xFF	; 255
     d66:	80 93 61 03 	sts	0x0361, r24
     d6a:	80 91 61 03 	lds	r24, 0x0361
     d6e:	8a 30       	cpi	r24, 0x0A	; 10
     d70:	50 f2       	brcs	.-108    	; 0xd06 <mu2_command_eeprom+0x76>
		tmp[i] = uart0_getchar();
		uart1_putchar(tmp[i]);
		if(i>0&&tmp[i-1] == 0x0d && tmp[i] == 0x0a) break;
	} 
	if(tmp[1]=='E'&&tmp[2]=='R'){return 1;}
     d72:	80 91 63 03 	lds	r24, 0x0363
     d76:	85 34       	cpi	r24, 0x45	; 69
     d78:	39 f4       	brne	.+14     	; 0xd88 <mu2_command_eeprom+0xf8>
     d7a:	80 91 64 03 	lds	r24, 0x0364
     d7e:	82 35       	cpi	r24, 0x52	; 82
     d80:	19 f4       	brne	.+6      	; 0xd88 <mu2_command_eeprom+0xf8>
     d82:	81 e0       	ldi	r24, 0x01	; 1
     d84:	8d 83       	std	Y+5, r24	; 0x05
     d86:	01 c0       	rjmp	.+2      	; 0xd8a <mu2_command_eeprom+0xfa>
	return 0;
     d88:	1d 82       	std	Y+5, r1	; 0x05
     d8a:	8d 81       	ldd	r24, Y+5	; 0x05
}
     d8c:	0f 90       	pop	r0
     d8e:	0f 90       	pop	r0
     d90:	0f 90       	pop	r0
     d92:	0f 90       	pop	r0
     d94:	0f 90       	pop	r0
     d96:	cf 91       	pop	r28
     d98:	df 91       	pop	r29
     d9a:	1f 91       	pop	r17
     d9c:	0f 91       	pop	r16
     d9e:	08 95       	ret

00000da0 <uart_init>:
#define stop_uart0tx_interrupt()	cbi(UCSR0B,UDRIE0)
#define start_uart1tx_interrupt()	sbi(UCSR1B,UDRIE1)
#define stop_uart1tx_interrupt()	cbi(UCSR1B,UDRIE1)

int uart_init(int uart_no,unsigned char option,unsigned int baud)
{
     da0:	df 93       	push	r29
     da2:	cf 93       	push	r28
     da4:	cd b7       	in	r28, 0x3d	; 61
     da6:	de b7       	in	r29, 0x3e	; 62
     da8:	2d 97       	sbiw	r28, 0x0d	; 13
     daa:	0f b6       	in	r0, 0x3f	; 63
     dac:	f8 94       	cli
     dae:	de bf       	out	0x3e, r29	; 62
     db0:	0f be       	out	0x3f, r0	; 63
     db2:	cd bf       	out	0x3d, r28	; 61
     db4:	9c 83       	std	Y+4, r25	; 0x04
     db6:	8b 83       	std	Y+3, r24	; 0x03
     db8:	6d 83       	std	Y+5, r22	; 0x05
     dba:	5f 83       	std	Y+7, r21	; 0x07
     dbc:	4e 83       	std	Y+6, r20	; 0x06
	int i;
	switch( uart_no ){
     dbe:	8b 81       	ldd	r24, Y+3	; 0x03
     dc0:	9c 81       	ldd	r25, Y+4	; 0x04
     dc2:	9d 87       	std	Y+13, r25	; 0x0d
     dc4:	8c 87       	std	Y+12, r24	; 0x0c
     dc6:	8c 85       	ldd	r24, Y+12	; 0x0c
     dc8:	9d 85       	ldd	r25, Y+13	; 0x0d
     dca:	00 97       	sbiw	r24, 0x00	; 0
     dcc:	31 f0       	breq	.+12     	; 0xdda <uart_init+0x3a>
     dce:	8c 85       	ldd	r24, Y+12	; 0x0c
     dd0:	9d 85       	ldd	r25, Y+13	; 0x0d
     dd2:	81 30       	cpi	r24, 0x01	; 1
     dd4:	91 05       	cpc	r25, r1
     dd6:	b1 f1       	breq	.+108    	; 0xe44 <uart_init+0xa4>
     dd8:	64 c0       	rjmp	.+200    	; 0xea2 <uart_init+0x102>
		case 0:
			UCSR0B = 0x00;
     dda:	e1 ec       	ldi	r30, 0xC1	; 193
     ddc:	f0 e0       	ldi	r31, 0x00	; 0
     dde:	10 82       	st	Z, r1
			UCSR0C |= 0x06;
     de0:	a2 ec       	ldi	r26, 0xC2	; 194
     de2:	b0 e0       	ldi	r27, 0x00	; 0
     de4:	e2 ec       	ldi	r30, 0xC2	; 194
     de6:	f0 e0       	ldi	r31, 0x00	; 0
     de8:	80 81       	ld	r24, Z
     dea:	86 60       	ori	r24, 0x06	; 6
     dec:	8c 93       	st	X, r24
			for(i=0; i<5000; i++);		// Wait
     dee:	1a 82       	std	Y+2, r1	; 0x02
     df0:	19 82       	std	Y+1, r1	; 0x01
     df2:	05 c0       	rjmp	.+10     	; 0xdfe <uart_init+0x5e>
     df4:	89 81       	ldd	r24, Y+1	; 0x01
     df6:	9a 81       	ldd	r25, Y+2	; 0x02
     df8:	01 96       	adiw	r24, 0x01	; 1
     dfa:	9a 83       	std	Y+2, r25	; 0x02
     dfc:	89 83       	std	Y+1, r24	; 0x01
     dfe:	89 81       	ldd	r24, Y+1	; 0x01
     e00:	9a 81       	ldd	r25, Y+2	; 0x02
     e02:	23 e1       	ldi	r18, 0x13	; 19
     e04:	88 38       	cpi	r24, 0x88	; 136
     e06:	92 07       	cpc	r25, r18
     e08:	ac f3       	brlt	.-22     	; 0xdf4 <uart_init+0x54>
			UCSR0B = option;					
     e0a:	e1 ec       	ldi	r30, 0xC1	; 193
     e0c:	f0 e0       	ldi	r31, 0x00	; 0
     e0e:	8d 81       	ldd	r24, Y+5	; 0x05
     e10:	80 83       	st	Z, r24
			UBRR0H = (unsigned char)(baud>>8);
     e12:	e5 ec       	ldi	r30, 0xC5	; 197
     e14:	f0 e0       	ldi	r31, 0x00	; 0
     e16:	8e 81       	ldd	r24, Y+6	; 0x06
     e18:	9f 81       	ldd	r25, Y+7	; 0x07
     e1a:	89 2f       	mov	r24, r25
     e1c:	99 27       	eor	r25, r25
     e1e:	80 83       	st	Z, r24
	 		UBRR0L = (unsigned char)baud;		
     e20:	e4 ec       	ldi	r30, 0xC4	; 196
     e22:	f0 e0       	ldi	r31, 0x00	; 0
     e24:	8e 81       	ldd	r24, Y+6	; 0x06
     e26:	80 83       	st	Z, r24
			UCSR0A;						// DummyRead
     e28:	e0 ec       	ldi	r30, 0xC0	; 192
     e2a:	f0 e0       	ldi	r31, 0x00	; 0
     e2c:	80 81       	ld	r24, Z
			UCSR0A &= 0xe3;				// Clear Error Flag
     e2e:	a0 ec       	ldi	r26, 0xC0	; 192
     e30:	b0 e0       	ldi	r27, 0x00	; 0
     e32:	e0 ec       	ldi	r30, 0xC0	; 192
     e34:	f0 e0       	ldi	r31, 0x00	; 0
     e36:	80 81       	ld	r24, Z
     e38:	83 7e       	andi	r24, 0xE3	; 227
     e3a:	8c 93       	st	X, r24
			UDR0 = 0;
     e3c:	e6 ec       	ldi	r30, 0xC6	; 198
     e3e:	f0 e0       	ldi	r31, 0x00	; 0
     e40:	10 82       	st	Z, r1
     e42:	34 c0       	rjmp	.+104    	; 0xeac <uart_init+0x10c>
			break;
		case 1:
			UBRR1H = (unsigned char)(baud>>8);
     e44:	ed ec       	ldi	r30, 0xCD	; 205
     e46:	f0 e0       	ldi	r31, 0x00	; 0
     e48:	8e 81       	ldd	r24, Y+6	; 0x06
     e4a:	9f 81       	ldd	r25, Y+7	; 0x07
     e4c:	89 2f       	mov	r24, r25
     e4e:	99 27       	eor	r25, r25
     e50:	80 83       	st	Z, r24
	 		UBRR1L = (unsigned char)baud;	 
     e52:	ec ec       	ldi	r30, 0xCC	; 204
     e54:	f0 e0       	ldi	r31, 0x00	; 0
     e56:	8e 81       	ldd	r24, Y+6	; 0x06
     e58:	80 83       	st	Z, r24
			for(i=0; i<5000; i++);		// Wait
     e5a:	1a 82       	std	Y+2, r1	; 0x02
     e5c:	19 82       	std	Y+1, r1	; 0x01
     e5e:	05 c0       	rjmp	.+10     	; 0xe6a <uart_init+0xca>
     e60:	89 81       	ldd	r24, Y+1	; 0x01
     e62:	9a 81       	ldd	r25, Y+2	; 0x02
     e64:	01 96       	adiw	r24, 0x01	; 1
     e66:	9a 83       	std	Y+2, r25	; 0x02
     e68:	89 83       	std	Y+1, r24	; 0x01
     e6a:	89 81       	ldd	r24, Y+1	; 0x01
     e6c:	9a 81       	ldd	r25, Y+2	; 0x02
     e6e:	23 e1       	ldi	r18, 0x13	; 19
     e70:	88 38       	cpi	r24, 0x88	; 136
     e72:	92 07       	cpc	r25, r18
     e74:	ac f3       	brlt	.-22     	; 0xe60 <uart_init+0xc0>
			UCSR1B |= option;
     e76:	a9 ec       	ldi	r26, 0xC9	; 201
     e78:	b0 e0       	ldi	r27, 0x00	; 0
     e7a:	e9 ec       	ldi	r30, 0xC9	; 201
     e7c:	f0 e0       	ldi	r31, 0x00	; 0
     e7e:	90 81       	ld	r25, Z
     e80:	8d 81       	ldd	r24, Y+5	; 0x05
     e82:	89 2b       	or	r24, r25
     e84:	8c 93       	st	X, r24
			UCSR1A;						// DummyRead
     e86:	e8 ec       	ldi	r30, 0xC8	; 200
     e88:	f0 e0       	ldi	r31, 0x00	; 0
     e8a:	80 81       	ld	r24, Z
			UCSR1A &= 0xe3;				// Clear Error Flag
     e8c:	a8 ec       	ldi	r26, 0xC8	; 200
     e8e:	b0 e0       	ldi	r27, 0x00	; 0
     e90:	e8 ec       	ldi	r30, 0xC8	; 200
     e92:	f0 e0       	ldi	r31, 0x00	; 0
     e94:	80 81       	ld	r24, Z
     e96:	83 7e       	andi	r24, 0xE3	; 227
     e98:	8c 93       	st	X, r24
			UDR1 = 0;
     e9a:	ee ec       	ldi	r30, 0xCE	; 206
     e9c:	f0 e0       	ldi	r31, 0x00	; 0
     e9e:	10 82       	st	Z, r1
     ea0:	05 c0       	rjmp	.+10     	; 0xeac <uart_init+0x10c>
			break;
		default:
			return -1;
     ea2:	8f ef       	ldi	r24, 0xFF	; 255
     ea4:	9f ef       	ldi	r25, 0xFF	; 255
     ea6:	99 87       	std	Y+9, r25	; 0x09
     ea8:	88 87       	std	Y+8, r24	; 0x08
     eaa:	02 c0       	rjmp	.+4      	; 0xeb0 <uart_init+0x110>
	}
	return 0;
     eac:	19 86       	std	Y+9, r1	; 0x09
     eae:	18 86       	std	Y+8, r1	; 0x08
     eb0:	88 85       	ldd	r24, Y+8	; 0x08
     eb2:	99 85       	ldd	r25, Y+9	; 0x09
}
     eb4:	2d 96       	adiw	r28, 0x0d	; 13
     eb6:	0f b6       	in	r0, 0x3f	; 63
     eb8:	f8 94       	cli
     eba:	de bf       	out	0x3e, r29	; 62
     ebc:	0f be       	out	0x3f, r0	; 63
     ebe:	cd bf       	out	0x3d, r28	; 61
     ec0:	cf 91       	pop	r28
     ec2:	df 91       	pop	r29
     ec4:	08 95       	ret

00000ec6 <uart_setbuffer>:

void uart_setbuffer(int uart_no, unsigned char *buf, int size)
{
     ec6:	df 93       	push	r29
     ec8:	cf 93       	push	r28
     eca:	00 d0       	rcall	.+0      	; 0xecc <uart_setbuffer+0x6>
     ecc:	00 d0       	rcall	.+0      	; 0xece <uart_setbuffer+0x8>
     ece:	00 d0       	rcall	.+0      	; 0xed0 <uart_setbuffer+0xa>
     ed0:	cd b7       	in	r28, 0x3d	; 61
     ed2:	de b7       	in	r29, 0x3e	; 62
     ed4:	9a 83       	std	Y+2, r25	; 0x02
     ed6:	89 83       	std	Y+1, r24	; 0x01
     ed8:	7c 83       	std	Y+4, r23	; 0x04
     eda:	6b 83       	std	Y+3, r22	; 0x03
     edc:	5e 83       	std	Y+6, r21	; 0x06
     ede:	4d 83       	std	Y+5, r20	; 0x05
	if( uart_no<0 || uart_no>=UART_NUM )	return;
     ee0:	89 81       	ldd	r24, Y+1	; 0x01
     ee2:	9a 81       	ldd	r25, Y+2	; 0x02
     ee4:	99 23       	and	r25, r25
     ee6:	cc f0       	brlt	.+50     	; 0xf1a <uart_setbuffer+0x54>
     ee8:	89 81       	ldd	r24, Y+1	; 0x01
     eea:	9a 81       	ldd	r25, Y+2	; 0x02
     eec:	82 30       	cpi	r24, 0x02	; 2
     eee:	91 05       	cpc	r25, r1
     ef0:	a4 f4       	brge	.+40     	; 0xf1a <uart_setbuffer+0x54>
	RingInit(&(__uartbuf[uart_no]), buf, size);
     ef2:	29 81       	ldd	r18, Y+1	; 0x01
     ef4:	3a 81       	ldd	r19, Y+2	; 0x02
     ef6:	c9 01       	movw	r24, r18
     ef8:	88 0f       	add	r24, r24
     efa:	99 1f       	adc	r25, r25
     efc:	88 0f       	add	r24, r24
     efe:	99 1f       	adc	r25, r25
     f00:	88 0f       	add	r24, r24
     f02:	99 1f       	adc	r25, r25
     f04:	82 0f       	add	r24, r18
     f06:	93 1f       	adc	r25, r19
     f08:	81 59       	subi	r24, 0x91	; 145
     f0a:	9c 4f       	sbci	r25, 0xFC	; 252
     f0c:	4d 81       	ldd	r20, Y+5	; 0x05
     f0e:	5e 81       	ldd	r21, Y+6	; 0x06
     f10:	2b 81       	ldd	r18, Y+3	; 0x03
     f12:	3c 81       	ldd	r19, Y+4	; 0x04
     f14:	b9 01       	movw	r22, r18
     f16:	0e 94 5b 09 	call	0x12b6	; 0x12b6 <RingInit>
}
     f1a:	26 96       	adiw	r28, 0x06	; 6
     f1c:	0f b6       	in	r0, 0x3f	; 63
     f1e:	f8 94       	cli
     f20:	de bf       	out	0x3e, r29	; 62
     f22:	0f be       	out	0x3f, r0	; 63
     f24:	cd bf       	out	0x3d, r28	; 61
     f26:	cf 91       	pop	r28
     f28:	df 91       	pop	r29
     f2a:	08 95       	ret

00000f2c <uart0_getchar>:

unsigned char uart0_getchar(void)
{
     f2c:	df 93       	push	r29
     f2e:	cf 93       	push	r28
     f30:	cd b7       	in	r28, 0x3d	; 61
     f32:	de b7       	in	r29, 0x3e	; 62
	while( !bit_is_set(UCSR0A,RXC0) );
     f34:	e0 ec       	ldi	r30, 0xC0	; 192
     f36:	f0 e0       	ldi	r31, 0x00	; 0
     f38:	80 81       	ld	r24, Z
     f3a:	88 23       	and	r24, r24
     f3c:	dc f7       	brge	.-10     	; 0xf34 <uart0_getchar+0x8>
	cbi(UCSR0A,RXC0);
     f3e:	a0 ec       	ldi	r26, 0xC0	; 192
     f40:	b0 e0       	ldi	r27, 0x00	; 0
     f42:	e0 ec       	ldi	r30, 0xC0	; 192
     f44:	f0 e0       	ldi	r31, 0x00	; 0
     f46:	80 81       	ld	r24, Z
     f48:	8f 77       	andi	r24, 0x7F	; 127
     f4a:	8c 93       	st	X, r24
	return UDR0;
     f4c:	e6 ec       	ldi	r30, 0xC6	; 198
     f4e:	f0 e0       	ldi	r31, 0x00	; 0
     f50:	80 81       	ld	r24, Z
}
     f52:	cf 91       	pop	r28
     f54:	df 91       	pop	r29
     f56:	08 95       	ret

00000f58 <uart0_putchar>:

int uart0_putchar(char c)
{
     f58:	df 93       	push	r29
     f5a:	cf 93       	push	r28
     f5c:	0f 92       	push	r0
     f5e:	cd b7       	in	r28, 0x3d	; 61
     f60:	de b7       	in	r29, 0x3e	; 62
     f62:	89 83       	std	Y+1, r24	; 0x01
#elif (UART0_LINE_FEED == CR_CODE)				// CR
	if( c == '\n' )		c = '\r';
#elif (UART0_LINE_FEED == LF_CODE)
#else
#endif*/
	while( !bit_is_set(UCSR0A,UDRE0) );
     f64:	e0 ec       	ldi	r30, 0xC0	; 192
     f66:	f0 e0       	ldi	r31, 0x00	; 0
     f68:	80 81       	ld	r24, Z
     f6a:	88 2f       	mov	r24, r24
     f6c:	90 e0       	ldi	r25, 0x00	; 0
     f6e:	80 72       	andi	r24, 0x20	; 32
     f70:	90 70       	andi	r25, 0x00	; 0
     f72:	00 97       	sbiw	r24, 0x00	; 0
     f74:	b9 f3       	breq	.-18     	; 0xf64 <uart0_putchar+0xc>
	UDR0 = c;
     f76:	e6 ec       	ldi	r30, 0xC6	; 198
     f78:	f0 e0       	ldi	r31, 0x00	; 0
     f7a:	89 81       	ldd	r24, Y+1	; 0x01
     f7c:	80 83       	st	Z, r24
	cbi(UCSR0A,UDRE0);
     f7e:	a0 ec       	ldi	r26, 0xC0	; 192
     f80:	b0 e0       	ldi	r27, 0x00	; 0
     f82:	e0 ec       	ldi	r30, 0xC0	; 192
     f84:	f0 e0       	ldi	r31, 0x00	; 0
     f86:	80 81       	ld	r24, Z
     f88:	8f 7d       	andi	r24, 0xDF	; 223
     f8a:	8c 93       	st	X, r24
	
	return 0;
     f8c:	80 e0       	ldi	r24, 0x00	; 0
     f8e:	90 e0       	ldi	r25, 0x00	; 0
}
     f90:	0f 90       	pop	r0
     f92:	cf 91       	pop	r28
     f94:	df 91       	pop	r29
     f96:	08 95       	ret

00000f98 <uart1_putchar>:

int uart1_putchar(char c)
{
     f98:	df 93       	push	r29
     f9a:	cf 93       	push	r28
     f9c:	0f 92       	push	r0
     f9e:	cd b7       	in	r28, 0x3d	; 61
     fa0:	de b7       	in	r29, 0x3e	; 62
     fa2:	89 83       	std	Y+1, r24	; 0x01
#if (UART1_LINE_FEED == CR_CODE | LF_CODE)		// CRLF
	if( c == '\n' ){
     fa4:	89 81       	ldd	r24, Y+1	; 0x01
     fa6:	8a 30       	cpi	r24, 0x0A	; 10
     fa8:	a1 f4       	brne	.+40     	; 0xfd2 <uart1_putchar+0x3a>
		while( !bit_is_set(UCSR1A,UDRE1) );
     faa:	e8 ec       	ldi	r30, 0xC8	; 200
     fac:	f0 e0       	ldi	r31, 0x00	; 0
     fae:	80 81       	ld	r24, Z
     fb0:	88 2f       	mov	r24, r24
     fb2:	90 e0       	ldi	r25, 0x00	; 0
     fb4:	80 72       	andi	r24, 0x20	; 32
     fb6:	90 70       	andi	r25, 0x00	; 0
     fb8:	00 97       	sbiw	r24, 0x00	; 0
     fba:	b9 f3       	breq	.-18     	; 0xfaa <uart1_putchar+0x12>
		UDR1 = '\r';
     fbc:	ee ec       	ldi	r30, 0xCE	; 206
     fbe:	f0 e0       	ldi	r31, 0x00	; 0
     fc0:	8d e0       	ldi	r24, 0x0D	; 13
     fc2:	80 83       	st	Z, r24
		cbi(UCSR1A,UDRE1);
     fc4:	a8 ec       	ldi	r26, 0xC8	; 200
     fc6:	b0 e0       	ldi	r27, 0x00	; 0
     fc8:	e8 ec       	ldi	r30, 0xC8	; 200
     fca:	f0 e0       	ldi	r31, 0x00	; 0
     fcc:	80 81       	ld	r24, Z
     fce:	8f 7d       	andi	r24, 0xDF	; 223
     fd0:	8c 93       	st	X, r24
	}
#elif (UART1_LINE_FEED == CR_CODE)				// CR
	if( c == '\n' )		c = '\r';
#elif (UART1_LINE_FEED == LF_CODE)
#endif
	while( !bit_is_set(UCSR1A,UDRE1) );
     fd2:	e8 ec       	ldi	r30, 0xC8	; 200
     fd4:	f0 e0       	ldi	r31, 0x00	; 0
     fd6:	80 81       	ld	r24, Z
     fd8:	88 2f       	mov	r24, r24
     fda:	90 e0       	ldi	r25, 0x00	; 0
     fdc:	80 72       	andi	r24, 0x20	; 32
     fde:	90 70       	andi	r25, 0x00	; 0
     fe0:	00 97       	sbiw	r24, 0x00	; 0
     fe2:	b9 f3       	breq	.-18     	; 0xfd2 <uart1_putchar+0x3a>
	UDR1 = c;
     fe4:	ee ec       	ldi	r30, 0xCE	; 206
     fe6:	f0 e0       	ldi	r31, 0x00	; 0
     fe8:	89 81       	ldd	r24, Y+1	; 0x01
     fea:	80 83       	st	Z, r24
	cbi(UCSR1A,UDRE1);
     fec:	a8 ec       	ldi	r26, 0xC8	; 200
     fee:	b0 e0       	ldi	r27, 0x00	; 0
     ff0:	e8 ec       	ldi	r30, 0xC8	; 200
     ff2:	f0 e0       	ldi	r31, 0x00	; 0
     ff4:	80 81       	ld	r24, Z
     ff6:	8f 7d       	andi	r24, 0xDF	; 223
     ff8:	8c 93       	st	X, r24

	return 0;
     ffa:	80 e0       	ldi	r24, 0x00	; 0
     ffc:	90 e0       	ldi	r25, 0x00	; 0
}
     ffe:	0f 90       	pop	r0
    1000:	cf 91       	pop	r28
    1002:	df 91       	pop	r29
    1004:	08 95       	ret

00001006 <uart0_buf_putchar>:

int uart0_buf_putchar(char c)
{
    1006:	df 93       	push	r29
    1008:	cf 93       	push	r28
    100a:	00 d0       	rcall	.+0      	; 0x100c <uart0_buf_putchar+0x6>
    100c:	0f 92       	push	r0
    100e:	cd b7       	in	r28, 0x3d	; 61
    1010:	de b7       	in	r29, 0x3e	; 62
    1012:	8b 83       	std	Y+3, r24	; 0x03
	int ret;
	
	ret = 0;
    1014:	1a 82       	std	Y+2, r1	; 0x02
    1016:	19 82       	std	Y+1, r1	; 0x01
	_uart_interrupt_status = SREG;
    1018:	ef e5       	ldi	r30, 0x5F	; 95
    101a:	f0 e0       	ldi	r31, 0x00	; 0
    101c:	80 81       	ld	r24, Z
    101e:	80 93 6c 03 	sts	0x036C, r24
	cli();
    1022:	f8 94       	cli
	
#if (UART0_LINE_FEED == CR_CODE | LF_CODE)		// CRLF
	if( c == '\n' ){
    1024:	8b 81       	ldd	r24, Y+3	; 0x03
    1026:	8a 30       	cpi	r24, 0x0A	; 10
    1028:	61 f4       	brne	.+24     	; 0x1042 <uart0_buf_putchar+0x3c>
		if( !RingPut(&__uartbuf[0], '\r') ){
    102a:	8f e6       	ldi	r24, 0x6F	; 111
    102c:	93 e0       	ldi	r25, 0x03	; 3
    102e:	6d e0       	ldi	r22, 0x0D	; 13
    1030:	0e 94 89 09 	call	0x1312	; 0x1312 <RingPut>
    1034:	00 97       	sbiw	r24, 0x00	; 0
    1036:	29 f4       	brne	.+10     	; 0x1042 <uart0_buf_putchar+0x3c>
			ret = -1;	// Buffer Full
    1038:	8f ef       	ldi	r24, 0xFF	; 255
    103a:	9f ef       	ldi	r25, 0xFF	; 255
    103c:	9a 83       	std	Y+2, r25	; 0x02
    103e:	89 83       	std	Y+1, r24	; 0x01
    1040:	12 c0       	rjmp	.+36     	; 0x1066 <uart0_buf_putchar+0x60>
#elif (UART0_LINE_FEED == CR_CODE)				// CR
	if( c == '\n' )		c = '\r';
#elif (UART0_LINE_FEED == LF_CODE)
#endif

	if( !RingPut(&__uartbuf[0], c) ){
    1042:	8f e6       	ldi	r24, 0x6F	; 111
    1044:	93 e0       	ldi	r25, 0x03	; 3
    1046:	6b 81       	ldd	r22, Y+3	; 0x03
    1048:	0e 94 89 09 	call	0x1312	; 0x1312 <RingPut>
    104c:	00 97       	sbiw	r24, 0x00	; 0
    104e:	21 f4       	brne	.+8      	; 0x1058 <uart0_buf_putchar+0x52>
		ret = -1;	// Buffer Full
    1050:	8f ef       	ldi	r24, 0xFF	; 255
    1052:	9f ef       	ldi	r25, 0xFF	; 255
    1054:	9a 83       	std	Y+2, r25	; 0x02
    1056:	89 83       	std	Y+1, r24	; 0x01
	}
	start_uart0tx_interrupt();
    1058:	a1 ec       	ldi	r26, 0xC1	; 193
    105a:	b0 e0       	ldi	r27, 0x00	; 0
    105c:	e1 ec       	ldi	r30, 0xC1	; 193
    105e:	f0 e0       	ldi	r31, 0x00	; 0
    1060:	80 81       	ld	r24, Z
    1062:	80 62       	ori	r24, 0x20	; 32
    1064:	8c 93       	st	X, r24
	
#if (UART0_LINE_FEED == CR_CODE | LF_CODE)		// CRLF
_exit_uart0_buf_putchar:
#endif
	SREG = _uart_interrupt_status;
    1066:	ef e5       	ldi	r30, 0x5F	; 95
    1068:	f0 e0       	ldi	r31, 0x00	; 0
    106a:	80 91 6c 03 	lds	r24, 0x036C
    106e:	80 83       	st	Z, r24

	return ret;
    1070:	89 81       	ldd	r24, Y+1	; 0x01
    1072:	9a 81       	ldd	r25, Y+2	; 0x02
}
    1074:	0f 90       	pop	r0
    1076:	0f 90       	pop	r0
    1078:	0f 90       	pop	r0
    107a:	cf 91       	pop	r28
    107c:	df 91       	pop	r29
    107e:	08 95       	ret

00001080 <uart1_buf_putchar>:

int uart1_buf_putchar(char c)
{
    1080:	df 93       	push	r29
    1082:	cf 93       	push	r28
    1084:	00 d0       	rcall	.+0      	; 0x1086 <uart1_buf_putchar+0x6>
    1086:	0f 92       	push	r0
    1088:	cd b7       	in	r28, 0x3d	; 61
    108a:	de b7       	in	r29, 0x3e	; 62
    108c:	8b 83       	std	Y+3, r24	; 0x03
	int ret;
	
	ret = 0;
    108e:	1a 82       	std	Y+2, r1	; 0x02
    1090:	19 82       	std	Y+1, r1	; 0x01
	_uart_interrupt_status = SREG;
    1092:	ef e5       	ldi	r30, 0x5F	; 95
    1094:	f0 e0       	ldi	r31, 0x00	; 0
    1096:	80 81       	ld	r24, Z
    1098:	80 93 6c 03 	sts	0x036C, r24
	cli();
    109c:	f8 94       	cli
	
#if (UART1_LINE_FEED == CR_CODE | LF_CODE)		// CRLF
	if( c == '\n' ){
    109e:	8b 81       	ldd	r24, Y+3	; 0x03
    10a0:	8a 30       	cpi	r24, 0x0A	; 10
    10a2:	61 f4       	brne	.+24     	; 0x10bc <uart1_buf_putchar+0x3c>
		if( !RingPut(&__uartbuf[1], '\r') ){
    10a4:	88 e7       	ldi	r24, 0x78	; 120
    10a6:	93 e0       	ldi	r25, 0x03	; 3
    10a8:	6d e0       	ldi	r22, 0x0D	; 13
    10aa:	0e 94 89 09 	call	0x1312	; 0x1312 <RingPut>
    10ae:	00 97       	sbiw	r24, 0x00	; 0
    10b0:	29 f4       	brne	.+10     	; 0x10bc <uart1_buf_putchar+0x3c>
			ret = -1;	// Buffer Full
    10b2:	8f ef       	ldi	r24, 0xFF	; 255
    10b4:	9f ef       	ldi	r25, 0xFF	; 255
    10b6:	9a 83       	std	Y+2, r25	; 0x02
    10b8:	89 83       	std	Y+1, r24	; 0x01
    10ba:	12 c0       	rjmp	.+36     	; 0x10e0 <uart1_buf_putchar+0x60>
	}
#elif (UART1_LINE_FEED == CR_CODE)				// CR
	if( c == '\n' )		c = '\r';
#elif (UART1_LINE_FEED == LF_CODE)
#endif
	if( !RingPut(&__uartbuf[1], c) ){
    10bc:	88 e7       	ldi	r24, 0x78	; 120
    10be:	93 e0       	ldi	r25, 0x03	; 3
    10c0:	6b 81       	ldd	r22, Y+3	; 0x03
    10c2:	0e 94 89 09 	call	0x1312	; 0x1312 <RingPut>
    10c6:	00 97       	sbiw	r24, 0x00	; 0
    10c8:	21 f4       	brne	.+8      	; 0x10d2 <uart1_buf_putchar+0x52>
		ret = -1;	// Buffer Full
    10ca:	8f ef       	ldi	r24, 0xFF	; 255
    10cc:	9f ef       	ldi	r25, 0xFF	; 255
    10ce:	9a 83       	std	Y+2, r25	; 0x02
    10d0:	89 83       	std	Y+1, r24	; 0x01
	}
	start_uart1tx_interrupt();
    10d2:	a9 ec       	ldi	r26, 0xC9	; 201
    10d4:	b0 e0       	ldi	r27, 0x00	; 0
    10d6:	e9 ec       	ldi	r30, 0xC9	; 201
    10d8:	f0 e0       	ldi	r31, 0x00	; 0
    10da:	80 81       	ld	r24, Z
    10dc:	80 62       	ori	r24, 0x20	; 32
    10de:	8c 93       	st	X, r24

	
#if (UART1_LINE_FEED == CR_CODE | LF_CODE)		// CRLF
_exit_uart1_buf_putchar:
#endif
	SREG = _uart_interrupt_status;
    10e0:	ef e5       	ldi	r30, 0x5F	; 95
    10e2:	f0 e0       	ldi	r31, 0x00	; 0
    10e4:	80 91 6c 03 	lds	r24, 0x036C
    10e8:	80 83       	st	Z, r24

	return ret;
    10ea:	89 81       	ldd	r24, Y+1	; 0x01
    10ec:	9a 81       	ldd	r25, Y+2	; 0x02
}
    10ee:	0f 90       	pop	r0
    10f0:	0f 90       	pop	r0
    10f2:	0f 90       	pop	r0
    10f4:	cf 91       	pop	r28
    10f6:	df 91       	pop	r29
    10f8:	08 95       	ret

000010fa <__vector_21>:


ISR(USART0_UDRE_vect)
{
    10fa:	1f 92       	push	r1
    10fc:	0f 92       	push	r0
    10fe:	0f b6       	in	r0, 0x3f	; 63
    1100:	0f 92       	push	r0
    1102:	00 90 5b 00 	lds	r0, 0x005B
    1106:	0f 92       	push	r0
    1108:	11 24       	eor	r1, r1
    110a:	2f 93       	push	r18
    110c:	3f 93       	push	r19
    110e:	4f 93       	push	r20
    1110:	5f 93       	push	r21
    1112:	6f 93       	push	r22
    1114:	7f 93       	push	r23
    1116:	8f 93       	push	r24
    1118:	9f 93       	push	r25
    111a:	af 93       	push	r26
    111c:	bf 93       	push	r27
    111e:	ef 93       	push	r30
    1120:	ff 93       	push	r31
    1122:	df 93       	push	r29
    1124:	cf 93       	push	r28
    1126:	0f 92       	push	r0
    1128:	cd b7       	in	r28, 0x3d	; 61
    112a:	de b7       	in	r29, 0x3e	; 62
	unsigned char c;

	if( RingGet(&__uartbuf[0], &c) ){
    112c:	8f e6       	ldi	r24, 0x6F	; 111
    112e:	93 e0       	ldi	r25, 0x03	; 3
    1130:	9e 01       	movw	r18, r28
    1132:	2f 5f       	subi	r18, 0xFF	; 255
    1134:	3f 4f       	sbci	r19, 0xFF	; 255
    1136:	b9 01       	movw	r22, r18
    1138:	0e 94 dc 09 	call	0x13b8	; 0x13b8 <RingGet>
    113c:	00 97       	sbiw	r24, 0x00	; 0
    113e:	61 f0       	breq	.+24     	; 0x1158 <__vector_21+0x5e>
		UDR0 = c;
    1140:	e6 ec       	ldi	r30, 0xC6	; 198
    1142:	f0 e0       	ldi	r31, 0x00	; 0
    1144:	89 81       	ldd	r24, Y+1	; 0x01
    1146:	80 83       	st	Z, r24
		cbi(UCSR0A,UDRE0);			// UDREクリア
    1148:	a0 ec       	ldi	r26, 0xC0	; 192
    114a:	b0 e0       	ldi	r27, 0x00	; 0
    114c:	e0 ec       	ldi	r30, 0xC0	; 192
    114e:	f0 e0       	ldi	r31, 0x00	; 0
    1150:	80 81       	ld	r24, Z
    1152:	8f 7d       	andi	r24, 0xDF	; 223
    1154:	8c 93       	st	X, r24
    1156:	0e c0       	rjmp	.+28     	; 0x1174 <__vector_21+0x7a>
	}else{
		stop_uart0tx_interrupt();
    1158:	a1 ec       	ldi	r26, 0xC1	; 193
    115a:	b0 e0       	ldi	r27, 0x00	; 0
    115c:	e1 ec       	ldi	r30, 0xC1	; 193
    115e:	f0 e0       	ldi	r31, 0x00	; 0
    1160:	80 81       	ld	r24, Z
    1162:	8f 7d       	andi	r24, 0xDF	; 223
    1164:	8c 93       	st	X, r24
		cbi(UCSR0A,UDRE0);
    1166:	a0 ec       	ldi	r26, 0xC0	; 192
    1168:	b0 e0       	ldi	r27, 0x00	; 0
    116a:	e0 ec       	ldi	r30, 0xC0	; 192
    116c:	f0 e0       	ldi	r31, 0x00	; 0
    116e:	80 81       	ld	r24, Z
    1170:	8f 7d       	andi	r24, 0xDF	; 223
    1172:	8c 93       	st	X, r24
	}
}
    1174:	0f 90       	pop	r0
    1176:	cf 91       	pop	r28
    1178:	df 91       	pop	r29
    117a:	ff 91       	pop	r31
    117c:	ef 91       	pop	r30
    117e:	bf 91       	pop	r27
    1180:	af 91       	pop	r26
    1182:	9f 91       	pop	r25
    1184:	8f 91       	pop	r24
    1186:	7f 91       	pop	r23
    1188:	6f 91       	pop	r22
    118a:	5f 91       	pop	r21
    118c:	4f 91       	pop	r20
    118e:	3f 91       	pop	r19
    1190:	2f 91       	pop	r18
    1192:	0f 90       	pop	r0
    1194:	00 92 5b 00 	sts	0x005B, r0
    1198:	0f 90       	pop	r0
    119a:	0f be       	out	0x3f, r0	; 63
    119c:	0f 90       	pop	r0
    119e:	1f 90       	pop	r1
    11a0:	18 95       	reti

000011a2 <__vector_29>:

ISR(USART1_UDRE_vect)
{
    11a2:	1f 92       	push	r1
    11a4:	0f 92       	push	r0
    11a6:	0f b6       	in	r0, 0x3f	; 63
    11a8:	0f 92       	push	r0
    11aa:	00 90 5b 00 	lds	r0, 0x005B
    11ae:	0f 92       	push	r0
    11b0:	11 24       	eor	r1, r1
    11b2:	2f 93       	push	r18
    11b4:	3f 93       	push	r19
    11b6:	4f 93       	push	r20
    11b8:	5f 93       	push	r21
    11ba:	6f 93       	push	r22
    11bc:	7f 93       	push	r23
    11be:	8f 93       	push	r24
    11c0:	9f 93       	push	r25
    11c2:	af 93       	push	r26
    11c4:	bf 93       	push	r27
    11c6:	ef 93       	push	r30
    11c8:	ff 93       	push	r31
    11ca:	df 93       	push	r29
    11cc:	cf 93       	push	r28
    11ce:	0f 92       	push	r0
    11d0:	cd b7       	in	r28, 0x3d	; 61
    11d2:	de b7       	in	r29, 0x3e	; 62
	unsigned char c;
	
	if( RingGet(&__uartbuf[1], &c) ){
    11d4:	88 e7       	ldi	r24, 0x78	; 120
    11d6:	93 e0       	ldi	r25, 0x03	; 3
    11d8:	9e 01       	movw	r18, r28
    11da:	2f 5f       	subi	r18, 0xFF	; 255
    11dc:	3f 4f       	sbci	r19, 0xFF	; 255
    11de:	b9 01       	movw	r22, r18
    11e0:	0e 94 dc 09 	call	0x13b8	; 0x13b8 <RingGet>
    11e4:	00 97       	sbiw	r24, 0x00	; 0
    11e6:	61 f0       	breq	.+24     	; 0x1200 <__vector_29+0x5e>
		UDR1 = c;
    11e8:	ee ec       	ldi	r30, 0xCE	; 206
    11ea:	f0 e0       	ldi	r31, 0x00	; 0
    11ec:	89 81       	ldd	r24, Y+1	; 0x01
    11ee:	80 83       	st	Z, r24
		cbi(UCSR1A,UDRE1);			// UDREクリア
    11f0:	a8 ec       	ldi	r26, 0xC8	; 200
    11f2:	b0 e0       	ldi	r27, 0x00	; 0
    11f4:	e8 ec       	ldi	r30, 0xC8	; 200
    11f6:	f0 e0       	ldi	r31, 0x00	; 0
    11f8:	80 81       	ld	r24, Z
    11fa:	8f 7d       	andi	r24, 0xDF	; 223
    11fc:	8c 93       	st	X, r24
    11fe:	0e c0       	rjmp	.+28     	; 0x121c <__vector_29+0x7a>
	}else{
		stop_uart1tx_interrupt();
    1200:	a9 ec       	ldi	r26, 0xC9	; 201
    1202:	b0 e0       	ldi	r27, 0x00	; 0
    1204:	e9 ec       	ldi	r30, 0xC9	; 201
    1206:	f0 e0       	ldi	r31, 0x00	; 0
    1208:	80 81       	ld	r24, Z
    120a:	8f 7d       	andi	r24, 0xDF	; 223
    120c:	8c 93       	st	X, r24
		cbi(UCSR1A,UDRE1);
    120e:	a8 ec       	ldi	r26, 0xC8	; 200
    1210:	b0 e0       	ldi	r27, 0x00	; 0
    1212:	e8 ec       	ldi	r30, 0xC8	; 200
    1214:	f0 e0       	ldi	r31, 0x00	; 0
    1216:	80 81       	ld	r24, Z
    1218:	8f 7d       	andi	r24, 0xDF	; 223
    121a:	8c 93       	st	X, r24
	}
}
    121c:	0f 90       	pop	r0
    121e:	cf 91       	pop	r28
    1220:	df 91       	pop	r29
    1222:	ff 91       	pop	r31
    1224:	ef 91       	pop	r30
    1226:	bf 91       	pop	r27
    1228:	af 91       	pop	r26
    122a:	9f 91       	pop	r25
    122c:	8f 91       	pop	r24
    122e:	7f 91       	pop	r23
    1230:	6f 91       	pop	r22
    1232:	5f 91       	pop	r21
    1234:	4f 91       	pop	r20
    1236:	3f 91       	pop	r19
    1238:	2f 91       	pop	r18
    123a:	0f 90       	pop	r0
    123c:	00 92 5b 00 	sts	0x005B, r0
    1240:	0f 90       	pop	r0
    1242:	0f be       	out	0x3f, r0	; 63
    1244:	0f 90       	pop	r0
    1246:	1f 90       	pop	r1
    1248:	18 95       	reti

0000124a <__vector_28>:
		LED(0,true);
	}
}
*/
ISR(USART1_RX_vect)
{
    124a:	1f 92       	push	r1
    124c:	0f 92       	push	r0
    124e:	0f b6       	in	r0, 0x3f	; 63
    1250:	0f 92       	push	r0
    1252:	00 90 5b 00 	lds	r0, 0x005B
    1256:	0f 92       	push	r0
    1258:	11 24       	eor	r1, r1
    125a:	2f 93       	push	r18
    125c:	3f 93       	push	r19
    125e:	4f 93       	push	r20
    1260:	5f 93       	push	r21
    1262:	6f 93       	push	r22
    1264:	7f 93       	push	r23
    1266:	8f 93       	push	r24
    1268:	9f 93       	push	r25
    126a:	af 93       	push	r26
    126c:	bf 93       	push	r27
    126e:	ef 93       	push	r30
    1270:	ff 93       	push	r31
    1272:	df 93       	push	r29
    1274:	cf 93       	push	r28
    1276:	cd b7       	in	r28, 0x3d	; 61
    1278:	de b7       	in	r29, 0x3e	; 62
	RingPut(&(__uartbuf[1]), UDR1);
    127a:	ee ec       	ldi	r30, 0xCE	; 206
    127c:	f0 e0       	ldi	r31, 0x00	; 0
    127e:	20 81       	ld	r18, Z
    1280:	88 e7       	ldi	r24, 0x78	; 120
    1282:	93 e0       	ldi	r25, 0x03	; 3
    1284:	62 2f       	mov	r22, r18
    1286:	0e 94 89 09 	call	0x1312	; 0x1312 <RingPut>
}
    128a:	cf 91       	pop	r28
    128c:	df 91       	pop	r29
    128e:	ff 91       	pop	r31
    1290:	ef 91       	pop	r30
    1292:	bf 91       	pop	r27
    1294:	af 91       	pop	r26
    1296:	9f 91       	pop	r25
    1298:	8f 91       	pop	r24
    129a:	7f 91       	pop	r23
    129c:	6f 91       	pop	r22
    129e:	5f 91       	pop	r21
    12a0:	4f 91       	pop	r20
    12a2:	3f 91       	pop	r19
    12a4:	2f 91       	pop	r18
    12a6:	0f 90       	pop	r0
    12a8:	00 92 5b 00 	sts	0x005B, r0
    12ac:	0f 90       	pop	r0
    12ae:	0f be       	out	0x3f, r0	; 63
    12b0:	0f 90       	pop	r0
    12b2:	1f 90       	pop	r1
    12b4:	18 95       	reti

000012b6 <RingInit>:
#include "ringbuffer.h"

__inline__ void RingInit(RingBuffer *ring, unsigned char *buf, unsigned int size)
{
    12b6:	df 93       	push	r29
    12b8:	cf 93       	push	r28
    12ba:	00 d0       	rcall	.+0      	; 0x12bc <RingInit+0x6>
    12bc:	00 d0       	rcall	.+0      	; 0x12be <RingInit+0x8>
    12be:	00 d0       	rcall	.+0      	; 0x12c0 <RingInit+0xa>
    12c0:	cd b7       	in	r28, 0x3d	; 61
    12c2:	de b7       	in	r29, 0x3e	; 62
    12c4:	9a 83       	std	Y+2, r25	; 0x02
    12c6:	89 83       	std	Y+1, r24	; 0x01
    12c8:	7c 83       	std	Y+4, r23	; 0x04
    12ca:	6b 83       	std	Y+3, r22	; 0x03
    12cc:	5e 83       	std	Y+6, r21	; 0x06
    12ce:	4d 83       	std	Y+5, r20	; 0x05
	ring->buf = buf;
    12d0:	e9 81       	ldd	r30, Y+1	; 0x01
    12d2:	fa 81       	ldd	r31, Y+2	; 0x02
    12d4:	8b 81       	ldd	r24, Y+3	; 0x03
    12d6:	9c 81       	ldd	r25, Y+4	; 0x04
    12d8:	91 83       	std	Z+1, r25	; 0x01
    12da:	80 83       	st	Z, r24
	ring->size = size;
    12dc:	e9 81       	ldd	r30, Y+1	; 0x01
    12de:	fa 81       	ldd	r31, Y+2	; 0x02
    12e0:	8d 81       	ldd	r24, Y+5	; 0x05
    12e2:	9e 81       	ldd	r25, Y+6	; 0x06
    12e4:	97 83       	std	Z+7, r25	; 0x07
    12e6:	86 83       	std	Z+6, r24	; 0x06
	ring->rp = 0;
    12e8:	e9 81       	ldd	r30, Y+1	; 0x01
    12ea:	fa 81       	ldd	r31, Y+2	; 0x02
    12ec:	13 82       	std	Z+3, r1	; 0x03
    12ee:	12 82       	std	Z+2, r1	; 0x02
	ring->wp = 0;
    12f0:	e9 81       	ldd	r30, Y+1	; 0x01
    12f2:	fa 81       	ldd	r31, Y+2	; 0x02
    12f4:	15 82       	std	Z+5, r1	; 0x05
    12f6:	14 82       	std	Z+4, r1	; 0x04
	ring->empty = TRUE;
    12f8:	e9 81       	ldd	r30, Y+1	; 0x01
    12fa:	fa 81       	ldd	r31, Y+2	; 0x02
    12fc:	81 e0       	ldi	r24, 0x01	; 1
    12fe:	80 87       	std	Z+8, r24	; 0x08
}
    1300:	26 96       	adiw	r28, 0x06	; 6
    1302:	0f b6       	in	r0, 0x3f	; 63
    1304:	f8 94       	cli
    1306:	de bf       	out	0x3e, r29	; 62
    1308:	0f be       	out	0x3f, r0	; 63
    130a:	cd bf       	out	0x3d, r28	; 61
    130c:	cf 91       	pop	r28
    130e:	df 91       	pop	r29
    1310:	08 95       	ret

00001312 <RingPut>:

__inline__ int RingPut(RingBuffer *ring, unsigned char value)
{
    1312:	df 93       	push	r29
    1314:	cf 93       	push	r28
    1316:	00 d0       	rcall	.+0      	; 0x1318 <RingPut+0x6>
    1318:	00 d0       	rcall	.+0      	; 0x131a <RingPut+0x8>
    131a:	0f 92       	push	r0
    131c:	cd b7       	in	r28, 0x3d	; 61
    131e:	de b7       	in	r29, 0x3e	; 62
    1320:	9a 83       	std	Y+2, r25	; 0x02
    1322:	89 83       	std	Y+1, r24	; 0x01
    1324:	6b 83       	std	Y+3, r22	; 0x03
	if( !ring->empty && ring->rp == ring->wp ){
    1326:	e9 81       	ldd	r30, Y+1	; 0x01
    1328:	fa 81       	ldd	r31, Y+2	; 0x02
    132a:	80 85       	ldd	r24, Z+8	; 0x08
    132c:	88 23       	and	r24, r24
    132e:	71 f4       	brne	.+28     	; 0x134c <RingPut+0x3a>
    1330:	e9 81       	ldd	r30, Y+1	; 0x01
    1332:	fa 81       	ldd	r31, Y+2	; 0x02
    1334:	22 81       	ldd	r18, Z+2	; 0x02
    1336:	33 81       	ldd	r19, Z+3	; 0x03
    1338:	e9 81       	ldd	r30, Y+1	; 0x01
    133a:	fa 81       	ldd	r31, Y+2	; 0x02
    133c:	84 81       	ldd	r24, Z+4	; 0x04
    133e:	95 81       	ldd	r25, Z+5	; 0x05
    1340:	28 17       	cp	r18, r24
    1342:	39 07       	cpc	r19, r25
    1344:	19 f4       	brne	.+6      	; 0x134c <RingPut+0x3a>
		return FALSE;
    1346:	1d 82       	std	Y+5, r1	; 0x05
    1348:	1c 82       	std	Y+4, r1	; 0x04
    134a:	2c c0       	rjmp	.+88     	; 0x13a4 <RingPut+0x92>
	}
	ring->buf[ring->wp] = value;
    134c:	e9 81       	ldd	r30, Y+1	; 0x01
    134e:	fa 81       	ldd	r31, Y+2	; 0x02
    1350:	20 81       	ld	r18, Z
    1352:	31 81       	ldd	r19, Z+1	; 0x01
    1354:	e9 81       	ldd	r30, Y+1	; 0x01
    1356:	fa 81       	ldd	r31, Y+2	; 0x02
    1358:	84 81       	ldd	r24, Z+4	; 0x04
    135a:	95 81       	ldd	r25, Z+5	; 0x05
    135c:	f9 01       	movw	r30, r18
    135e:	e8 0f       	add	r30, r24
    1360:	f9 1f       	adc	r31, r25
    1362:	8b 81       	ldd	r24, Y+3	; 0x03
    1364:	80 83       	st	Z, r24
	ring->wp++;
    1366:	e9 81       	ldd	r30, Y+1	; 0x01
    1368:	fa 81       	ldd	r31, Y+2	; 0x02
    136a:	84 81       	ldd	r24, Z+4	; 0x04
    136c:	95 81       	ldd	r25, Z+5	; 0x05
    136e:	01 96       	adiw	r24, 0x01	; 1
    1370:	e9 81       	ldd	r30, Y+1	; 0x01
    1372:	fa 81       	ldd	r31, Y+2	; 0x02
    1374:	95 83       	std	Z+5, r25	; 0x05
    1376:	84 83       	std	Z+4, r24	; 0x04
	if( ring->wp == ring->size ) ring->wp = 0;
    1378:	e9 81       	ldd	r30, Y+1	; 0x01
    137a:	fa 81       	ldd	r31, Y+2	; 0x02
    137c:	24 81       	ldd	r18, Z+4	; 0x04
    137e:	35 81       	ldd	r19, Z+5	; 0x05
    1380:	e9 81       	ldd	r30, Y+1	; 0x01
    1382:	fa 81       	ldd	r31, Y+2	; 0x02
    1384:	86 81       	ldd	r24, Z+6	; 0x06
    1386:	97 81       	ldd	r25, Z+7	; 0x07
    1388:	28 17       	cp	r18, r24
    138a:	39 07       	cpc	r19, r25
    138c:	21 f4       	brne	.+8      	; 0x1396 <RingPut+0x84>
    138e:	e9 81       	ldd	r30, Y+1	; 0x01
    1390:	fa 81       	ldd	r31, Y+2	; 0x02
    1392:	15 82       	std	Z+5, r1	; 0x05
    1394:	14 82       	std	Z+4, r1	; 0x04

	ring->empty = FALSE;
    1396:	e9 81       	ldd	r30, Y+1	; 0x01
    1398:	fa 81       	ldd	r31, Y+2	; 0x02
    139a:	10 86       	std	Z+8, r1	; 0x08
	
	return TRUE;
    139c:	81 e0       	ldi	r24, 0x01	; 1
    139e:	90 e0       	ldi	r25, 0x00	; 0
    13a0:	9d 83       	std	Y+5, r25	; 0x05
    13a2:	8c 83       	std	Y+4, r24	; 0x04
    13a4:	8c 81       	ldd	r24, Y+4	; 0x04
    13a6:	9d 81       	ldd	r25, Y+5	; 0x05
}
    13a8:	0f 90       	pop	r0
    13aa:	0f 90       	pop	r0
    13ac:	0f 90       	pop	r0
    13ae:	0f 90       	pop	r0
    13b0:	0f 90       	pop	r0
    13b2:	cf 91       	pop	r28
    13b4:	df 91       	pop	r29
    13b6:	08 95       	ret

000013b8 <RingGet>:

__inline__ int RingGet(RingBuffer *ring, unsigned char *value)
{
    13b8:	df 93       	push	r29
    13ba:	cf 93       	push	r28
    13bc:	00 d0       	rcall	.+0      	; 0x13be <RingGet+0x6>
    13be:	00 d0       	rcall	.+0      	; 0x13c0 <RingGet+0x8>
    13c0:	00 d0       	rcall	.+0      	; 0x13c2 <RingGet+0xa>
    13c2:	cd b7       	in	r28, 0x3d	; 61
    13c4:	de b7       	in	r29, 0x3e	; 62
    13c6:	9a 83       	std	Y+2, r25	; 0x02
    13c8:	89 83       	std	Y+1, r24	; 0x01
    13ca:	7c 83       	std	Y+4, r23	; 0x04
    13cc:	6b 83       	std	Y+3, r22	; 0x03
	if( !ring->empty ){
    13ce:	e9 81       	ldd	r30, Y+1	; 0x01
    13d0:	fa 81       	ldd	r31, Y+2	; 0x02
    13d2:	80 85       	ldd	r24, Z+8	; 0x08
    13d4:	88 23       	and	r24, r24
    13d6:	d9 f5       	brne	.+118    	; 0x144e <RingGet+0x96>
		*value = ring->buf[ring->rp];
    13d8:	e9 81       	ldd	r30, Y+1	; 0x01
    13da:	fa 81       	ldd	r31, Y+2	; 0x02
    13dc:	20 81       	ld	r18, Z
    13de:	31 81       	ldd	r19, Z+1	; 0x01
    13e0:	e9 81       	ldd	r30, Y+1	; 0x01
    13e2:	fa 81       	ldd	r31, Y+2	; 0x02
    13e4:	82 81       	ldd	r24, Z+2	; 0x02
    13e6:	93 81       	ldd	r25, Z+3	; 0x03
    13e8:	f9 01       	movw	r30, r18
    13ea:	e8 0f       	add	r30, r24
    13ec:	f9 1f       	adc	r31, r25
    13ee:	80 81       	ld	r24, Z
    13f0:	eb 81       	ldd	r30, Y+3	; 0x03
    13f2:	fc 81       	ldd	r31, Y+4	; 0x04
    13f4:	80 83       	st	Z, r24
		ring->rp++;
    13f6:	e9 81       	ldd	r30, Y+1	; 0x01
    13f8:	fa 81       	ldd	r31, Y+2	; 0x02
    13fa:	82 81       	ldd	r24, Z+2	; 0x02
    13fc:	93 81       	ldd	r25, Z+3	; 0x03
    13fe:	01 96       	adiw	r24, 0x01	; 1
    1400:	e9 81       	ldd	r30, Y+1	; 0x01
    1402:	fa 81       	ldd	r31, Y+2	; 0x02
    1404:	93 83       	std	Z+3, r25	; 0x03
    1406:	82 83       	std	Z+2, r24	; 0x02
		if( ring->rp == ring->size ) ring->rp = 0;
    1408:	e9 81       	ldd	r30, Y+1	; 0x01
    140a:	fa 81       	ldd	r31, Y+2	; 0x02
    140c:	22 81       	ldd	r18, Z+2	; 0x02
    140e:	33 81       	ldd	r19, Z+3	; 0x03
    1410:	e9 81       	ldd	r30, Y+1	; 0x01
    1412:	fa 81       	ldd	r31, Y+2	; 0x02
    1414:	86 81       	ldd	r24, Z+6	; 0x06
    1416:	97 81       	ldd	r25, Z+7	; 0x07
    1418:	28 17       	cp	r18, r24
    141a:	39 07       	cpc	r19, r25
    141c:	21 f4       	brne	.+8      	; 0x1426 <RingGet+0x6e>
    141e:	e9 81       	ldd	r30, Y+1	; 0x01
    1420:	fa 81       	ldd	r31, Y+2	; 0x02
    1422:	13 82       	std	Z+3, r1	; 0x03
    1424:	12 82       	std	Z+2, r1	; 0x02
		if( ring->rp == ring->wp )	ring->empty = TRUE;
    1426:	e9 81       	ldd	r30, Y+1	; 0x01
    1428:	fa 81       	ldd	r31, Y+2	; 0x02
    142a:	22 81       	ldd	r18, Z+2	; 0x02
    142c:	33 81       	ldd	r19, Z+3	; 0x03
    142e:	e9 81       	ldd	r30, Y+1	; 0x01
    1430:	fa 81       	ldd	r31, Y+2	; 0x02
    1432:	84 81       	ldd	r24, Z+4	; 0x04
    1434:	95 81       	ldd	r25, Z+5	; 0x05
    1436:	28 17       	cp	r18, r24
    1438:	39 07       	cpc	r19, r25
    143a:	21 f4       	brne	.+8      	; 0x1444 <RingGet+0x8c>
    143c:	e9 81       	ldd	r30, Y+1	; 0x01
    143e:	fa 81       	ldd	r31, Y+2	; 0x02
    1440:	81 e0       	ldi	r24, 0x01	; 1
    1442:	80 87       	std	Z+8, r24	; 0x08

		return TRUE;
    1444:	81 e0       	ldi	r24, 0x01	; 1
    1446:	90 e0       	ldi	r25, 0x00	; 0
    1448:	9e 83       	std	Y+6, r25	; 0x06
    144a:	8d 83       	std	Y+5, r24	; 0x05
    144c:	05 c0       	rjmp	.+10     	; 0x1458 <RingGet+0xa0>
	}else{			// リングバッファが空のとき
		*value = 0;
    144e:	eb 81       	ldd	r30, Y+3	; 0x03
    1450:	fc 81       	ldd	r31, Y+4	; 0x04
    1452:	10 82       	st	Z, r1
		return FALSE;
    1454:	1e 82       	std	Y+6, r1	; 0x06
    1456:	1d 82       	std	Y+5, r1	; 0x05
    1458:	8d 81       	ldd	r24, Y+5	; 0x05
    145a:	9e 81       	ldd	r25, Y+6	; 0x06
	}
}
    145c:	26 96       	adiw	r28, 0x06	; 6
    145e:	0f b6       	in	r0, 0x3f	; 63
    1460:	f8 94       	cli
    1462:	de bf       	out	0x3e, r29	; 62
    1464:	0f be       	out	0x3f, r0	; 63
    1466:	cd bf       	out	0x3d, r28	; 61
    1468:	cf 91       	pop	r28
    146a:	df 91       	pop	r29
    146c:	08 95       	ret

0000146e <isRingEmpty>:

__inline__ int isRingEmpty(RingBuffer *ring)
{
    146e:	df 93       	push	r29
    1470:	cf 93       	push	r28
    1472:	00 d0       	rcall	.+0      	; 0x1474 <isRingEmpty+0x6>
    1474:	cd b7       	in	r28, 0x3d	; 61
    1476:	de b7       	in	r29, 0x3e	; 62
    1478:	9a 83       	std	Y+2, r25	; 0x02
    147a:	89 83       	std	Y+1, r24	; 0x01
   return ring->empty;
    147c:	e9 81       	ldd	r30, Y+1	; 0x01
    147e:	fa 81       	ldd	r31, Y+2	; 0x02
    1480:	80 85       	ldd	r24, Z+8	; 0x08
    1482:	88 2f       	mov	r24, r24
    1484:	90 e0       	ldi	r25, 0x00	; 0
}
    1486:	0f 90       	pop	r0
    1488:	0f 90       	pop	r0
    148a:	cf 91       	pop	r28
    148c:	df 91       	pop	r29
    148e:	08 95       	ret

00001490 <initI2CMaster>:
	volatile bool i2cComFlag = false;
#endif

#if MASTER_COMPILE
void initI2CMaster(unsigned char speed)
    {
    1490:	df 93       	push	r29
    1492:	cf 93       	push	r28
    1494:	00 d0       	rcall	.+0      	; 0x1496 <initI2CMaster+0x6>
    1496:	00 d0       	rcall	.+0      	; 0x1498 <initI2CMaster+0x8>
    1498:	0f 92       	push	r0
    149a:	cd b7       	in	r28, 0x3d	; 61
    149c:	de b7       	in	r29, 0x3e	; 62
    149e:	89 83       	std	Y+1, r24	; 0x01
		TWBR = (((CLOCK_FREQ*1000)/speed)-16)/2;
    14a0:	88 eb       	ldi	r24, 0xB8	; 184
    14a2:	90 e0       	ldi	r25, 0x00	; 0
    14a4:	9b 83       	std	Y+3, r25	; 0x03
    14a6:	8a 83       	std	Y+2, r24	; 0x02
    14a8:	89 81       	ldd	r24, Y+1	; 0x01
    14aa:	28 2f       	mov	r18, r24
    14ac:	30 e0       	ldi	r19, 0x00	; 0
    14ae:	80 e2       	ldi	r24, 0x20	; 32
    14b0:	9e e4       	ldi	r25, 0x4E	; 78
    14b2:	b9 01       	movw	r22, r18
    14b4:	0e 94 2d 0f 	call	0x1e5a	; 0x1e5a <__divmodhi4>
    14b8:	cb 01       	movw	r24, r22
    14ba:	40 97       	sbiw	r24, 0x10	; 16
    14bc:	9d 83       	std	Y+5, r25	; 0x05
    14be:	8c 83       	std	Y+4, r24	; 0x04
    14c0:	ec 81       	ldd	r30, Y+4	; 0x04
    14c2:	fd 81       	ldd	r31, Y+5	; 0x05
    14c4:	ff 23       	and	r31, r31
    14c6:	2c f4       	brge	.+10     	; 0x14d2 <initI2CMaster+0x42>
    14c8:	8c 81       	ldd	r24, Y+4	; 0x04
    14ca:	9d 81       	ldd	r25, Y+5	; 0x05
    14cc:	01 96       	adiw	r24, 0x01	; 1
    14ce:	9d 83       	std	Y+5, r25	; 0x05
    14d0:	8c 83       	std	Y+4, r24	; 0x04
    14d2:	8c 81       	ldd	r24, Y+4	; 0x04
    14d4:	9d 81       	ldd	r25, Y+5	; 0x05
    14d6:	95 95       	asr	r25
    14d8:	87 95       	ror	r24
    14da:	ea 81       	ldd	r30, Y+2	; 0x02
    14dc:	fb 81       	ldd	r31, Y+3	; 0x03
    14de:	80 83       	st	Z, r24
		TWSR = 0;
    14e0:	e9 eb       	ldi	r30, 0xB9	; 185
    14e2:	f0 e0       	ldi	r31, 0x00	; 0
    14e4:	10 82       	st	Z, r1
		TWCR = I2CEN;
    14e6:	ec eb       	ldi	r30, 0xBC	; 188
    14e8:	f0 e0       	ldi	r31, 0x00	; 0
    14ea:	84 e0       	ldi	r24, 0x04	; 4
    14ec:	80 83       	st	Z, r24
    }
    14ee:	0f 90       	pop	r0
    14f0:	0f 90       	pop	r0
    14f2:	0f 90       	pop	r0
    14f4:	0f 90       	pop	r0
    14f6:	0f 90       	pop	r0
    14f8:	cf 91       	pop	r28
    14fa:	df 91       	pop	r29
    14fc:	08 95       	ret

000014fe <i2cWrite>:
	}
#endif

#if MASTER_COMPILE
bool i2cWrite(Slave *slave)
    {
    14fe:	df 93       	push	r29
    1500:	cf 93       	push	r28
    1502:	00 d0       	rcall	.+0      	; 0x1504 <i2cWrite+0x6>
    1504:	0f 92       	push	r0
    1506:	cd b7       	in	r28, 0x3d	; 61
    1508:	de b7       	in	r29, 0x3e	; 62
    150a:	9a 83       	std	Y+2, r25	; 0x02
    150c:	89 83       	std	Y+1, r24	; 0x01
		wdt_reset();

		wdt_enable(WDT_RESET_TIME);

#endif
		TWCR = (1<<TWINT)|(1<<TWSTA) |(1<<TWEN);
    150e:	ec eb       	ldi	r30, 0xBC	; 188
    1510:	f0 e0       	ldi	r31, 0x00	; 0
    1512:	84 ea       	ldi	r24, 0xA4	; 164
    1514:	80 83       	st	Z, r24
		while(!(TWCR&(1<<TWINT)));
    1516:	ec eb       	ldi	r30, 0xBC	; 188
    1518:	f0 e0       	ldi	r31, 0x00	; 0
    151a:	80 81       	ld	r24, Z
    151c:	88 23       	and	r24, r24
    151e:	dc f7       	brge	.-10     	; 0x1516 <i2cWrite+0x18>
#if WDT_RESET_IN_I2C

		wdt_reset();

#endif
		if((TWSR&0xF8)!=0x08) goto ERROR;
    1520:	e9 eb       	ldi	r30, 0xB9	; 185
    1522:	f0 e0       	ldi	r31, 0x00	; 0
    1524:	80 81       	ld	r24, Z
    1526:	88 2f       	mov	r24, r24
    1528:	90 e0       	ldi	r25, 0x00	; 0
    152a:	88 7f       	andi	r24, 0xF8	; 248
    152c:	90 70       	andi	r25, 0x00	; 0
    152e:	88 30       	cpi	r24, 0x08	; 8
    1530:	91 05       	cpc	r25, r1
    1532:	09 f0       	breq	.+2      	; 0x1536 <i2cWrite+0x38>
    1534:	56 c0       	rjmp	.+172    	; 0x15e2 <i2cWrite+0xe4>

		TWDR = (slave->addr<<1);
    1536:	ab eb       	ldi	r26, 0xBB	; 187
    1538:	b0 e0       	ldi	r27, 0x00	; 0
    153a:	e9 81       	ldd	r30, Y+1	; 0x01
    153c:	fa 81       	ldd	r31, Y+2	; 0x02
    153e:	80 81       	ld	r24, Z
    1540:	88 0f       	add	r24, r24
    1542:	8c 93       	st	X, r24
		TWCR = (1<<TWINT)|(1<<TWEN);
    1544:	ec eb       	ldi	r30, 0xBC	; 188
    1546:	f0 e0       	ldi	r31, 0x00	; 0
    1548:	84 e8       	ldi	r24, 0x84	; 132
    154a:	80 83       	st	Z, r24
		while(!(TWCR&(1<<TWINT)));
    154c:	ec eb       	ldi	r30, 0xBC	; 188
    154e:	f0 e0       	ldi	r31, 0x00	; 0
    1550:	80 81       	ld	r24, Z
    1552:	88 23       	and	r24, r24
    1554:	dc f7       	brge	.-10     	; 0x154c <i2cWrite+0x4e>
#if WDT_RESET_IN_I2C

		wdt_reset();

#endif
		if((TWSR&0xF8)!=0x18) goto ERROR;
    1556:	e9 eb       	ldi	r30, 0xB9	; 185
    1558:	f0 e0       	ldi	r31, 0x00	; 0
    155a:	80 81       	ld	r24, Z
    155c:	88 2f       	mov	r24, r24
    155e:	90 e0       	ldi	r25, 0x00	; 0
    1560:	88 7f       	andi	r24, 0xF8	; 248
    1562:	90 70       	andi	r25, 0x00	; 0
    1564:	88 31       	cpi	r24, 0x18	; 24
    1566:	91 05       	cpc	r25, r1
    1568:	e1 f5       	brne	.+120    	; 0x15e2 <i2cWrite+0xe4>

		for(i=0;i<slave->write.size;i++){
    156a:	10 92 6d 03 	sts	0x036D, r1
    156e:	27 c0       	rjmp	.+78     	; 0x15be <i2cWrite+0xc0>
			TWDR=slave->write.buf[i];
    1570:	ab eb       	ldi	r26, 0xBB	; 187
    1572:	b0 e0       	ldi	r27, 0x00	; 0
    1574:	e9 81       	ldd	r30, Y+1	; 0x01
    1576:	fa 81       	ldd	r31, Y+2	; 0x02
    1578:	21 81       	ldd	r18, Z+1	; 0x01
    157a:	32 81       	ldd	r19, Z+2	; 0x02
    157c:	80 91 6d 03 	lds	r24, 0x036D
    1580:	88 2f       	mov	r24, r24
    1582:	90 e0       	ldi	r25, 0x00	; 0
    1584:	f9 01       	movw	r30, r18
    1586:	e8 0f       	add	r30, r24
    1588:	f9 1f       	adc	r31, r25
    158a:	80 81       	ld	r24, Z
    158c:	8c 93       	st	X, r24
			TWCR=(1<<TWINT)|(1<<TWEN);
    158e:	ec eb       	ldi	r30, 0xBC	; 188
    1590:	f0 e0       	ldi	r31, 0x00	; 0
    1592:	84 e8       	ldi	r24, 0x84	; 132
    1594:	80 83       	st	Z, r24
			while(!(TWCR&(1<<TWINT)));
    1596:	ec eb       	ldi	r30, 0xBC	; 188
    1598:	f0 e0       	ldi	r31, 0x00	; 0
    159a:	80 81       	ld	r24, Z
    159c:	88 23       	and	r24, r24
    159e:	dc f7       	brge	.-10     	; 0x1596 <i2cWrite+0x98>
#if WDT_RESET_IN_I2C

		wdt_reset();

#endif
			if((TWSR&0xF8)!=0x28) goto ERROR;
    15a0:	e9 eb       	ldi	r30, 0xB9	; 185
    15a2:	f0 e0       	ldi	r31, 0x00	; 0
    15a4:	80 81       	ld	r24, Z
    15a6:	88 2f       	mov	r24, r24
    15a8:	90 e0       	ldi	r25, 0x00	; 0
    15aa:	88 7f       	andi	r24, 0xF8	; 248
    15ac:	90 70       	andi	r25, 0x00	; 0
    15ae:	88 32       	cpi	r24, 0x28	; 40
    15b0:	91 05       	cpc	r25, r1
    15b2:	b9 f4       	brne	.+46     	; 0x15e2 <i2cWrite+0xe4>
		wdt_reset();

#endif
		if((TWSR&0xF8)!=0x18) goto ERROR;

		for(i=0;i<slave->write.size;i++){
    15b4:	80 91 6d 03 	lds	r24, 0x036D
    15b8:	8f 5f       	subi	r24, 0xFF	; 255
    15ba:	80 93 6d 03 	sts	0x036D, r24
    15be:	80 91 6d 03 	lds	r24, 0x036D
    15c2:	28 2f       	mov	r18, r24
    15c4:	30 e0       	ldi	r19, 0x00	; 0
    15c6:	e9 81       	ldd	r30, Y+1	; 0x01
    15c8:	fa 81       	ldd	r31, Y+2	; 0x02
    15ca:	83 81       	ldd	r24, Z+3	; 0x03
    15cc:	94 81       	ldd	r25, Z+4	; 0x04
    15ce:	28 17       	cp	r18, r24
    15d0:	39 07       	cpc	r19, r25
    15d2:	70 f2       	brcs	.-100    	; 0x1570 <i2cWrite+0x72>
		wdt_reset();

#endif
			if((TWSR&0xF8)!=0x28) goto ERROR;
			}
		TWCR=(1<<TWINT)|(1<<TWSTO) |(1<<TWEN);
    15d4:	ec eb       	ldi	r30, 0xBC	; 188
    15d6:	f0 e0       	ldi	r31, 0x00	; 0
    15d8:	84 e9       	ldi	r24, 0x94	; 148
    15da:	80 83       	st	Z, r24
		wdt_disable();

#endif

//		sei();
		return true;
    15dc:	81 e0       	ldi	r24, 0x01	; 1
    15de:	8b 83       	std	Y+3, r24	; 0x03
    15e0:	05 c0       	rjmp	.+10     	; 0x15ec <i2cWrite+0xee>
	ERROR:
		TWCR=(1<<TWINT)|(1<<TWSTO) |(1<<TWEN);
    15e2:	ec eb       	ldi	r30, 0xBC	; 188
    15e4:	f0 e0       	ldi	r31, 0x00	; 0
    15e6:	84 e9       	ldi	r24, 0x94	; 148
    15e8:	80 83       	st	Z, r24
#if WDT_RESET_IN_I2C

		wdt_disable();

#endif
		return false;
    15ea:	1b 82       	std	Y+3, r1	; 0x03
    15ec:	8b 81       	ldd	r24, Y+3	; 0x03
    }
    15ee:	0f 90       	pop	r0
    15f0:	0f 90       	pop	r0
    15f2:	0f 90       	pop	r0
    15f4:	cf 91       	pop	r28
    15f6:	df 91       	pop	r29
    15f8:	08 95       	ret

000015fa <i2cRead>:

bool i2cRead(Slave *slave)
    {
    15fa:	df 93       	push	r29
    15fc:	cf 93       	push	r28
    15fe:	00 d0       	rcall	.+0      	; 0x1600 <i2cRead+0x6>
    1600:	0f 92       	push	r0
    1602:	cd b7       	in	r28, 0x3d	; 61
    1604:	de b7       	in	r29, 0x3e	; 62
    1606:	9a 83       	std	Y+2, r25	; 0x02
    1608:	89 83       	std	Y+1, r24	; 0x01
//		cli();

		TWCR = (1<<TWINT)|(1<<TWSTA) |(1<<TWEN);
    160a:	ec eb       	ldi	r30, 0xBC	; 188
    160c:	f0 e0       	ldi	r31, 0x00	; 0
    160e:	84 ea       	ldi	r24, 0xA4	; 164
    1610:	80 83       	st	Z, r24
		wdt_reset();

		wdt_enable(WDT_RESET_TIME);

#endif
		while(!(TWCR&(1<<TWINT)));
    1612:	ec eb       	ldi	r30, 0xBC	; 188
    1614:	f0 e0       	ldi	r31, 0x00	; 0
    1616:	80 81       	ld	r24, Z
    1618:	88 23       	and	r24, r24
    161a:	dc f7       	brge	.-10     	; 0x1612 <i2cRead+0x18>
		if((TWSR&0xF8)!=0x08) goto ERROR;
    161c:	e9 eb       	ldi	r30, 0xB9	; 185
    161e:	f0 e0       	ldi	r31, 0x00	; 0
    1620:	80 81       	ld	r24, Z
    1622:	88 2f       	mov	r24, r24
    1624:	90 e0       	ldi	r25, 0x00	; 0
    1626:	88 7f       	andi	r24, 0xF8	; 248
    1628:	90 70       	andi	r25, 0x00	; 0
    162a:	88 30       	cpi	r24, 0x08	; 8
    162c:	91 05       	cpc	r25, r1
    162e:	09 f0       	breq	.+2      	; 0x1632 <i2cRead+0x38>
    1630:	7f c0       	rjmp	.+254    	; 0x1730 <i2cRead+0x136>

		TWDR = (slave->addr<<1)|0x01;
    1632:	ab eb       	ldi	r26, 0xBB	; 187
    1634:	b0 e0       	ldi	r27, 0x00	; 0
    1636:	e9 81       	ldd	r30, Y+1	; 0x01
    1638:	fa 81       	ldd	r31, Y+2	; 0x02
    163a:	80 81       	ld	r24, Z
    163c:	88 2f       	mov	r24, r24
    163e:	90 e0       	ldi	r25, 0x00	; 0
    1640:	88 0f       	add	r24, r24
    1642:	99 1f       	adc	r25, r25
    1644:	81 60       	ori	r24, 0x01	; 1
    1646:	8c 93       	st	X, r24
		TWCR = (1<<TWINT)|(1<<TWEN);
    1648:	ec eb       	ldi	r30, 0xBC	; 188
    164a:	f0 e0       	ldi	r31, 0x00	; 0
    164c:	84 e8       	ldi	r24, 0x84	; 132
    164e:	80 83       	st	Z, r24
		while(!(TWCR&(1<<TWINT)));
    1650:	ec eb       	ldi	r30, 0xBC	; 188
    1652:	f0 e0       	ldi	r31, 0x00	; 0
    1654:	80 81       	ld	r24, Z
    1656:	88 23       	and	r24, r24
    1658:	dc f7       	brge	.-10     	; 0x1650 <i2cRead+0x56>
#if WDT_RESET_IN_I2C

		wdt_reset();

#endif
		if((TWSR&0xF8)!=0x40) goto ERROR;
    165a:	e9 eb       	ldi	r30, 0xB9	; 185
    165c:	f0 e0       	ldi	r31, 0x00	; 0
    165e:	80 81       	ld	r24, Z
    1660:	88 2f       	mov	r24, r24
    1662:	90 e0       	ldi	r25, 0x00	; 0
    1664:	88 7f       	andi	r24, 0xF8	; 248
    1666:	90 70       	andi	r25, 0x00	; 0
    1668:	80 34       	cpi	r24, 0x40	; 64
    166a:	91 05       	cpc	r25, r1
    166c:	09 f0       	breq	.+2      	; 0x1670 <i2cRead+0x76>
    166e:	60 c0       	rjmp	.+192    	; 0x1730 <i2cRead+0x136>

		for(i=0;i<slave->read.size-1;i++){
    1670:	10 92 6d 03 	sts	0x036D, r1
    1674:	28 c0       	rjmp	.+80     	; 0x16c6 <i2cRead+0xcc>
			TWCR = (1<<TWINT)|(1<<TWEA)|(1<<TWEN);
    1676:	ec eb       	ldi	r30, 0xBC	; 188
    1678:	f0 e0       	ldi	r31, 0x00	; 0
    167a:	84 ec       	ldi	r24, 0xC4	; 196
    167c:	80 83       	st	Z, r24
			while(!(TWCR&(1<<TWINT)));
    167e:	ec eb       	ldi	r30, 0xBC	; 188
    1680:	f0 e0       	ldi	r31, 0x00	; 0
    1682:	80 81       	ld	r24, Z
    1684:	88 23       	and	r24, r24
    1686:	dc f7       	brge	.-10     	; 0x167e <i2cRead+0x84>
#if WDT_RESET_IN_I2C

			wdt_reset();

#endif
			if((TWSR&0xF8)!=0x50) goto ERROR;
    1688:	e9 eb       	ldi	r30, 0xB9	; 185
    168a:	f0 e0       	ldi	r31, 0x00	; 0
    168c:	80 81       	ld	r24, Z
    168e:	88 2f       	mov	r24, r24
    1690:	90 e0       	ldi	r25, 0x00	; 0
    1692:	88 7f       	andi	r24, 0xF8	; 248
    1694:	90 70       	andi	r25, 0x00	; 0
    1696:	80 35       	cpi	r24, 0x50	; 80
    1698:	91 05       	cpc	r25, r1
    169a:	09 f0       	breq	.+2      	; 0x169e <i2cRead+0xa4>
    169c:	49 c0       	rjmp	.+146    	; 0x1730 <i2cRead+0x136>
			slave->read.buf[i] = TWDR;
    169e:	e9 81       	ldd	r30, Y+1	; 0x01
    16a0:	fa 81       	ldd	r31, Y+2	; 0x02
    16a2:	25 81       	ldd	r18, Z+5	; 0x05
    16a4:	36 81       	ldd	r19, Z+6	; 0x06
    16a6:	80 91 6d 03 	lds	r24, 0x036D
    16aa:	88 2f       	mov	r24, r24
    16ac:	90 e0       	ldi	r25, 0x00	; 0
    16ae:	d9 01       	movw	r26, r18
    16b0:	a8 0f       	add	r26, r24
    16b2:	b9 1f       	adc	r27, r25
    16b4:	eb eb       	ldi	r30, 0xBB	; 187
    16b6:	f0 e0       	ldi	r31, 0x00	; 0
    16b8:	80 81       	ld	r24, Z
    16ba:	8c 93       	st	X, r24
		wdt_reset();

#endif
		if((TWSR&0xF8)!=0x40) goto ERROR;

		for(i=0;i<slave->read.size-1;i++){
    16bc:	80 91 6d 03 	lds	r24, 0x036D
    16c0:	8f 5f       	subi	r24, 0xFF	; 255
    16c2:	80 93 6d 03 	sts	0x036D, r24
    16c6:	80 91 6d 03 	lds	r24, 0x036D
    16ca:	28 2f       	mov	r18, r24
    16cc:	30 e0       	ldi	r19, 0x00	; 0
    16ce:	e9 81       	ldd	r30, Y+1	; 0x01
    16d0:	fa 81       	ldd	r31, Y+2	; 0x02
    16d2:	87 81       	ldd	r24, Z+7	; 0x07
    16d4:	90 85       	ldd	r25, Z+8	; 0x08
    16d6:	01 97       	sbiw	r24, 0x01	; 1
    16d8:	28 17       	cp	r18, r24
    16da:	39 07       	cpc	r19, r25
    16dc:	60 f2       	brcs	.-104    	; 0x1676 <i2cRead+0x7c>

#endif
			if((TWSR&0xF8)!=0x50) goto ERROR;
			slave->read.buf[i] = TWDR;
			}
		TWCR = (1<<TWINT)|(1<<TWEN);
    16de:	ec eb       	ldi	r30, 0xBC	; 188
    16e0:	f0 e0       	ldi	r31, 0x00	; 0
    16e2:	84 e8       	ldi	r24, 0x84	; 132
    16e4:	80 83       	st	Z, r24
		while(!(TWCR&(1<<TWINT)));
    16e6:	ec eb       	ldi	r30, 0xBC	; 188
    16e8:	f0 e0       	ldi	r31, 0x00	; 0
    16ea:	80 81       	ld	r24, Z
    16ec:	88 23       	and	r24, r24
    16ee:	dc f7       	brge	.-10     	; 0x16e6 <i2cRead+0xec>
#if WDT_RESET_IN_I2C

		wdt_reset();

#endif
		if((TWSR&0xF8)!=0x58) goto ERROR;
    16f0:	e9 eb       	ldi	r30, 0xB9	; 185
    16f2:	f0 e0       	ldi	r31, 0x00	; 0
    16f4:	80 81       	ld	r24, Z
    16f6:	88 2f       	mov	r24, r24
    16f8:	90 e0       	ldi	r25, 0x00	; 0
    16fa:	88 7f       	andi	r24, 0xF8	; 248
    16fc:	90 70       	andi	r25, 0x00	; 0
    16fe:	88 35       	cpi	r24, 0x58	; 88
    1700:	91 05       	cpc	r25, r1
    1702:	b1 f4       	brne	.+44     	; 0x1730 <i2cRead+0x136>
		slave->read.buf[i] = TWDR;
    1704:	e9 81       	ldd	r30, Y+1	; 0x01
    1706:	fa 81       	ldd	r31, Y+2	; 0x02
    1708:	25 81       	ldd	r18, Z+5	; 0x05
    170a:	36 81       	ldd	r19, Z+6	; 0x06
    170c:	80 91 6d 03 	lds	r24, 0x036D
    1710:	88 2f       	mov	r24, r24
    1712:	90 e0       	ldi	r25, 0x00	; 0
    1714:	d9 01       	movw	r26, r18
    1716:	a8 0f       	add	r26, r24
    1718:	b9 1f       	adc	r27, r25
    171a:	eb eb       	ldi	r30, 0xBB	; 187
    171c:	f0 e0       	ldi	r31, 0x00	; 0
    171e:	80 81       	ld	r24, Z
    1720:	8c 93       	st	X, r24

		TWCR=(1<<TWINT)|(1<<TWSTO) |(1<<TWEN);
    1722:	ec eb       	ldi	r30, 0xBC	; 188
    1724:	f0 e0       	ldi	r31, 0x00	; 0
    1726:	84 e9       	ldi	r24, 0x94	; 148
    1728:	80 83       	st	Z, r24
#if WDT_RESET_IN_I2C

		wdt_disable();

#endif
		return true;
    172a:	81 e0       	ldi	r24, 0x01	; 1
    172c:	8b 83       	std	Y+3, r24	; 0x03
    172e:	05 c0       	rjmp	.+10     	; 0x173a <i2cRead+0x140>
	ERROR:
		TWCR=(1<<TWINT)|(1<<TWSTO) |(1<<TWEN);
    1730:	ec eb       	ldi	r30, 0xBC	; 188
    1732:	f0 e0       	ldi	r31, 0x00	; 0
    1734:	84 e9       	ldi	r24, 0x94	; 148
    1736:	80 83       	st	Z, r24
#if WDT_RESET_IN_I2C

		wdt_disable();

#endif
		return false;
    1738:	1b 82       	std	Y+3, r1	; 0x03
    173a:	8b 81       	ldd	r24, Y+3	; 0x03
    }
    173c:	0f 90       	pop	r0
    173e:	0f 90       	pop	r0
    1740:	0f 90       	pop	r0
    1742:	cf 91       	pop	r28
    1744:	df 91       	pop	r29
    1746:	08 95       	ret

00001748 <i2cReadWithCommand>:

bool i2cReadWithCommand(Slave *slave, unsigned char command)
    {
    1748:	df 93       	push	r29
    174a:	cf 93       	push	r28
    174c:	00 d0       	rcall	.+0      	; 0x174e <i2cReadWithCommand+0x6>
    174e:	00 d0       	rcall	.+0      	; 0x1750 <i2cReadWithCommand+0x8>
    1750:	cd b7       	in	r28, 0x3d	; 61
    1752:	de b7       	in	r29, 0x3e	; 62
    1754:	9a 83       	std	Y+2, r25	; 0x02
    1756:	89 83       	std	Y+1, r24	; 0x01
    1758:	6b 83       	std	Y+3, r22	; 0x03
//		cli();

		TWCR = (1<<TWINT)|(1<<TWSTA) |(1<<TWEN);
    175a:	ec eb       	ldi	r30, 0xBC	; 188
    175c:	f0 e0       	ldi	r31, 0x00	; 0
    175e:	84 ea       	ldi	r24, 0xA4	; 164
    1760:	80 83       	st	Z, r24
		wdt_reset();

		wdt_enable(WDT_RESET_TIME);

#endif
		while(!(TWCR&(1<<TWINT)));
    1762:	ec eb       	ldi	r30, 0xBC	; 188
    1764:	f0 e0       	ldi	r31, 0x00	; 0
    1766:	80 81       	ld	r24, Z
    1768:	88 23       	and	r24, r24
    176a:	dc f7       	brge	.-10     	; 0x1762 <i2cReadWithCommand+0x1a>
		wdt_reset();

#endif
//		if((TWSR&0xF8)!=0x08) goto ERROR;

		TWDR = (slave->addr<<1);
    176c:	ab eb       	ldi	r26, 0xBB	; 187
    176e:	b0 e0       	ldi	r27, 0x00	; 0
    1770:	e9 81       	ldd	r30, Y+1	; 0x01
    1772:	fa 81       	ldd	r31, Y+2	; 0x02
    1774:	80 81       	ld	r24, Z
    1776:	88 0f       	add	r24, r24
    1778:	8c 93       	st	X, r24
		TWCR = (1<<TWINT)|(1<<TWEN);
    177a:	ec eb       	ldi	r30, 0xBC	; 188
    177c:	f0 e0       	ldi	r31, 0x00	; 0
    177e:	84 e8       	ldi	r24, 0x84	; 132
    1780:	80 83       	st	Z, r24
		while(!(TWCR&(1<<TWINT)));
    1782:	ec eb       	ldi	r30, 0xBC	; 188
    1784:	f0 e0       	ldi	r31, 0x00	; 0
    1786:	80 81       	ld	r24, Z
    1788:	88 23       	and	r24, r24
    178a:	dc f7       	brge	.-10     	; 0x1782 <i2cReadWithCommand+0x3a>
#if WDT_RESET_IN_I2C

		wdt_reset();

#endif
		if((TWSR&0xF8)!=0x40) goto ERROR;
    178c:	e9 eb       	ldi	r30, 0xB9	; 185
    178e:	f0 e0       	ldi	r31, 0x00	; 0
    1790:	80 81       	ld	r24, Z
    1792:	88 2f       	mov	r24, r24
    1794:	90 e0       	ldi	r25, 0x00	; 0
    1796:	88 7f       	andi	r24, 0xF8	; 248
    1798:	90 70       	andi	r25, 0x00	; 0
    179a:	80 34       	cpi	r24, 0x40	; 64
    179c:	91 05       	cpc	r25, r1
    179e:	09 f0       	breq	.+2      	; 0x17a2 <i2cReadWithCommand+0x5a>
    17a0:	a0 c0       	rjmp	.+320    	; 0x18e2 <i2cReadWithCommand+0x19a>

		TWDR=command;
    17a2:	eb eb       	ldi	r30, 0xBB	; 187
    17a4:	f0 e0       	ldi	r31, 0x00	; 0
    17a6:	8b 81       	ldd	r24, Y+3	; 0x03
    17a8:	80 83       	st	Z, r24
		TWCR=(1<<TWINT)|(1<<TWEN);
    17aa:	ec eb       	ldi	r30, 0xBC	; 188
    17ac:	f0 e0       	ldi	r31, 0x00	; 0
    17ae:	84 e8       	ldi	r24, 0x84	; 132
    17b0:	80 83       	st	Z, r24
		while(!(TWCR&(1<<TWINT)));
    17b2:	ec eb       	ldi	r30, 0xBC	; 188
    17b4:	f0 e0       	ldi	r31, 0x00	; 0
    17b6:	80 81       	ld	r24, Z
    17b8:	88 23       	and	r24, r24
    17ba:	dc f7       	brge	.-10     	; 0x17b2 <i2cReadWithCommand+0x6a>
#if WDT_RESET_IN_I2C

		wdt_reset();

#endif
		if((TWSR&0xF8)!=0x28) goto ERROR;
    17bc:	e9 eb       	ldi	r30, 0xB9	; 185
    17be:	f0 e0       	ldi	r31, 0x00	; 0
    17c0:	80 81       	ld	r24, Z
    17c2:	88 2f       	mov	r24, r24
    17c4:	90 e0       	ldi	r25, 0x00	; 0
    17c6:	88 7f       	andi	r24, 0xF8	; 248
    17c8:	90 70       	andi	r25, 0x00	; 0
    17ca:	88 32       	cpi	r24, 0x28	; 40
    17cc:	91 05       	cpc	r25, r1
    17ce:	09 f0       	breq	.+2      	; 0x17d2 <i2cReadWithCommand+0x8a>
    17d0:	88 c0       	rjmp	.+272    	; 0x18e2 <i2cReadWithCommand+0x19a>

		TWCR = (1<<TWINT)|(1<<TWSTA) |(1<<TWEN);
    17d2:	ec eb       	ldi	r30, 0xBC	; 188
    17d4:	f0 e0       	ldi	r31, 0x00	; 0
    17d6:	84 ea       	ldi	r24, 0xA4	; 164
    17d8:	80 83       	st	Z, r24
		while(!(TWCR&(1<<TWINT)));
    17da:	ec eb       	ldi	r30, 0xBC	; 188
    17dc:	f0 e0       	ldi	r31, 0x00	; 0
    17de:	80 81       	ld	r24, Z
    17e0:	88 23       	and	r24, r24
    17e2:	dc f7       	brge	.-10     	; 0x17da <i2cReadWithCommand+0x92>
#if WDT_RESET_IN_I2C

		wdt_reset();

#endif
		if((TWSR&0xF8)!=0x10) goto ERROR;
    17e4:	e9 eb       	ldi	r30, 0xB9	; 185
    17e6:	f0 e0       	ldi	r31, 0x00	; 0
    17e8:	80 81       	ld	r24, Z
    17ea:	88 2f       	mov	r24, r24
    17ec:	90 e0       	ldi	r25, 0x00	; 0
    17ee:	88 7f       	andi	r24, 0xF8	; 248
    17f0:	90 70       	andi	r25, 0x00	; 0
    17f2:	80 31       	cpi	r24, 0x10	; 16
    17f4:	91 05       	cpc	r25, r1
    17f6:	09 f0       	breq	.+2      	; 0x17fa <i2cReadWithCommand+0xb2>
    17f8:	74 c0       	rjmp	.+232    	; 0x18e2 <i2cReadWithCommand+0x19a>

		TWDR = (slave->addr<<1)|0x01;
    17fa:	ab eb       	ldi	r26, 0xBB	; 187
    17fc:	b0 e0       	ldi	r27, 0x00	; 0
    17fe:	e9 81       	ldd	r30, Y+1	; 0x01
    1800:	fa 81       	ldd	r31, Y+2	; 0x02
    1802:	80 81       	ld	r24, Z
    1804:	88 2f       	mov	r24, r24
    1806:	90 e0       	ldi	r25, 0x00	; 0
    1808:	88 0f       	add	r24, r24
    180a:	99 1f       	adc	r25, r25
    180c:	81 60       	ori	r24, 0x01	; 1
    180e:	8c 93       	st	X, r24
		TWCR = (1<<TWINT)|(1<<TWEN);
    1810:	ec eb       	ldi	r30, 0xBC	; 188
    1812:	f0 e0       	ldi	r31, 0x00	; 0
    1814:	84 e8       	ldi	r24, 0x84	; 132
    1816:	80 83       	st	Z, r24
		while(!(TWCR&(1<<TWINT)));
    1818:	ec eb       	ldi	r30, 0xBC	; 188
    181a:	f0 e0       	ldi	r31, 0x00	; 0
    181c:	80 81       	ld	r24, Z
    181e:	88 23       	and	r24, r24
    1820:	dc f7       	brge	.-10     	; 0x1818 <i2cReadWithCommand+0xd0>
		wdt_reset();

#endif
//		if((TWSR&0xF8)!=0x40) goto ERROR;

		for(i=0;i<slave->read.size-1;i++){
    1822:	10 92 6d 03 	sts	0x036D, r1
    1826:	28 c0       	rjmp	.+80     	; 0x1878 <i2cReadWithCommand+0x130>
			TWCR = (1<<TWINT)|(1<<TWEA)|(1<<TWEN);
    1828:	ec eb       	ldi	r30, 0xBC	; 188
    182a:	f0 e0       	ldi	r31, 0x00	; 0
    182c:	84 ec       	ldi	r24, 0xC4	; 196
    182e:	80 83       	st	Z, r24
			while(!(TWCR&(1<<TWINT)));
    1830:	ec eb       	ldi	r30, 0xBC	; 188
    1832:	f0 e0       	ldi	r31, 0x00	; 0
    1834:	80 81       	ld	r24, Z
    1836:	88 23       	and	r24, r24
    1838:	dc f7       	brge	.-10     	; 0x1830 <i2cReadWithCommand+0xe8>
#if WDT_RESET_IN_I2C

			wdt_reset();

#endif
			if((TWSR&0xF8)!=0x50) goto ERROR;
    183a:	e9 eb       	ldi	r30, 0xB9	; 185
    183c:	f0 e0       	ldi	r31, 0x00	; 0
    183e:	80 81       	ld	r24, Z
    1840:	88 2f       	mov	r24, r24
    1842:	90 e0       	ldi	r25, 0x00	; 0
    1844:	88 7f       	andi	r24, 0xF8	; 248
    1846:	90 70       	andi	r25, 0x00	; 0
    1848:	80 35       	cpi	r24, 0x50	; 80
    184a:	91 05       	cpc	r25, r1
    184c:	09 f0       	breq	.+2      	; 0x1850 <i2cReadWithCommand+0x108>
    184e:	49 c0       	rjmp	.+146    	; 0x18e2 <i2cReadWithCommand+0x19a>
			slave->read.buf[i] = TWDR;
    1850:	e9 81       	ldd	r30, Y+1	; 0x01
    1852:	fa 81       	ldd	r31, Y+2	; 0x02
    1854:	25 81       	ldd	r18, Z+5	; 0x05
    1856:	36 81       	ldd	r19, Z+6	; 0x06
    1858:	80 91 6d 03 	lds	r24, 0x036D
    185c:	88 2f       	mov	r24, r24
    185e:	90 e0       	ldi	r25, 0x00	; 0
    1860:	d9 01       	movw	r26, r18
    1862:	a8 0f       	add	r26, r24
    1864:	b9 1f       	adc	r27, r25
    1866:	eb eb       	ldi	r30, 0xBB	; 187
    1868:	f0 e0       	ldi	r31, 0x00	; 0
    186a:	80 81       	ld	r24, Z
    186c:	8c 93       	st	X, r24
		wdt_reset();

#endif
//		if((TWSR&0xF8)!=0x40) goto ERROR;

		for(i=0;i<slave->read.size-1;i++){
    186e:	80 91 6d 03 	lds	r24, 0x036D
    1872:	8f 5f       	subi	r24, 0xFF	; 255
    1874:	80 93 6d 03 	sts	0x036D, r24
    1878:	80 91 6d 03 	lds	r24, 0x036D
    187c:	28 2f       	mov	r18, r24
    187e:	30 e0       	ldi	r19, 0x00	; 0
    1880:	e9 81       	ldd	r30, Y+1	; 0x01
    1882:	fa 81       	ldd	r31, Y+2	; 0x02
    1884:	87 81       	ldd	r24, Z+7	; 0x07
    1886:	90 85       	ldd	r25, Z+8	; 0x08
    1888:	01 97       	sbiw	r24, 0x01	; 1
    188a:	28 17       	cp	r18, r24
    188c:	39 07       	cpc	r19, r25
    188e:	60 f2       	brcs	.-104    	; 0x1828 <i2cReadWithCommand+0xe0>

#endif
			if((TWSR&0xF8)!=0x50) goto ERROR;
			slave->read.buf[i] = TWDR;
			}
		TWCR = (1<<TWINT)|(1<<TWEN);
    1890:	ec eb       	ldi	r30, 0xBC	; 188
    1892:	f0 e0       	ldi	r31, 0x00	; 0
    1894:	84 e8       	ldi	r24, 0x84	; 132
    1896:	80 83       	st	Z, r24
		while(!(TWCR&(1<<TWINT)));
    1898:	ec eb       	ldi	r30, 0xBC	; 188
    189a:	f0 e0       	ldi	r31, 0x00	; 0
    189c:	80 81       	ld	r24, Z
    189e:	88 23       	and	r24, r24
    18a0:	dc f7       	brge	.-10     	; 0x1898 <i2cReadWithCommand+0x150>
#if WDT_RESET_IN_I2C

		wdt_reset();

#endif
		if((TWSR&0xF8)!=0x58) goto ERROR;
    18a2:	e9 eb       	ldi	r30, 0xB9	; 185
    18a4:	f0 e0       	ldi	r31, 0x00	; 0
    18a6:	80 81       	ld	r24, Z
    18a8:	88 2f       	mov	r24, r24
    18aa:	90 e0       	ldi	r25, 0x00	; 0
    18ac:	88 7f       	andi	r24, 0xF8	; 248
    18ae:	90 70       	andi	r25, 0x00	; 0
    18b0:	88 35       	cpi	r24, 0x58	; 88
    18b2:	91 05       	cpc	r25, r1
    18b4:	b1 f4       	brne	.+44     	; 0x18e2 <i2cReadWithCommand+0x19a>
		slave->read.buf[i] = TWDR;
    18b6:	e9 81       	ldd	r30, Y+1	; 0x01
    18b8:	fa 81       	ldd	r31, Y+2	; 0x02
    18ba:	25 81       	ldd	r18, Z+5	; 0x05
    18bc:	36 81       	ldd	r19, Z+6	; 0x06
    18be:	80 91 6d 03 	lds	r24, 0x036D
    18c2:	88 2f       	mov	r24, r24
    18c4:	90 e0       	ldi	r25, 0x00	; 0
    18c6:	d9 01       	movw	r26, r18
    18c8:	a8 0f       	add	r26, r24
    18ca:	b9 1f       	adc	r27, r25
    18cc:	eb eb       	ldi	r30, 0xBB	; 187
    18ce:	f0 e0       	ldi	r31, 0x00	; 0
    18d0:	80 81       	ld	r24, Z
    18d2:	8c 93       	st	X, r24

		TWCR=(1<<TWINT)|(1<<TWSTO) |(1<<TWEN);
    18d4:	ec eb       	ldi	r30, 0xBC	; 188
    18d6:	f0 e0       	ldi	r31, 0x00	; 0
    18d8:	84 e9       	ldi	r24, 0x94	; 148
    18da:	80 83       	st	Z, r24
#if WDT_RESET_IN_I2C

		wdt_disable();

#endif
		return true;
    18dc:	81 e0       	ldi	r24, 0x01	; 1
    18de:	8c 83       	std	Y+4, r24	; 0x04
    18e0:	05 c0       	rjmp	.+10     	; 0x18ec <i2cReadWithCommand+0x1a4>
	ERROR:
		TWCR=(1<<TWINT)|(1<<TWSTO) |(1<<TWEN);
    18e2:	ec eb       	ldi	r30, 0xBC	; 188
    18e4:	f0 e0       	ldi	r31, 0x00	; 0
    18e6:	84 e9       	ldi	r24, 0x94	; 148
    18e8:	80 83       	st	Z, r24
#if WDT_RESET_IN_I2C

		wdt_disable();

#endif
		return false;
    18ea:	1c 82       	std	Y+4, r1	; 0x04
    18ec:	8c 81       	ldd	r24, Y+4	; 0x04
    }
    18ee:	0f 90       	pop	r0
    18f0:	0f 90       	pop	r0
    18f2:	0f 90       	pop	r0
    18f4:	0f 90       	pop	r0
    18f6:	cf 91       	pop	r28
    18f8:	df 91       	pop	r29
    18fa:	08 95       	ret

000018fc <LED>:
/// LED操作関数 
/// </summary>
/// <param name="target">  </param>
/// <param name="status"> 0->消灯　1->点灯 </param>
void LED(unsigned char target, bool status)
{
    18fc:	df 93       	push	r29
    18fe:	cf 93       	push	r28
    1900:	00 d0       	rcall	.+0      	; 0x1902 <LED+0x6>
    1902:	cd b7       	in	r28, 0x3d	; 61
    1904:	de b7       	in	r29, 0x3e	; 62
    1906:	89 83       	std	Y+1, r24	; 0x01
    1908:	6a 83       	std	Y+2, r22	; 0x02
	if(target > 2)return;
    190a:	89 81       	ldd	r24, Y+1	; 0x01
    190c:	83 30       	cpi	r24, 0x03	; 3
    190e:	58 f5       	brcc	.+86     	; 0x1966 <LED+0x6a>
	if(status)	cbi(PORTA,target);
    1910:	8a 81       	ldd	r24, Y+2	; 0x02
    1912:	88 23       	and	r24, r24
    1914:	a9 f0       	breq	.+42     	; 0x1940 <LED+0x44>
    1916:	a2 e2       	ldi	r26, 0x22	; 34
    1918:	b0 e0       	ldi	r27, 0x00	; 0
    191a:	e2 e2       	ldi	r30, 0x22	; 34
    191c:	f0 e0       	ldi	r31, 0x00	; 0
    191e:	80 81       	ld	r24, Z
    1920:	48 2f       	mov	r20, r24
    1922:	89 81       	ldd	r24, Y+1	; 0x01
    1924:	28 2f       	mov	r18, r24
    1926:	30 e0       	ldi	r19, 0x00	; 0
    1928:	81 e0       	ldi	r24, 0x01	; 1
    192a:	90 e0       	ldi	r25, 0x00	; 0
    192c:	02 2e       	mov	r0, r18
    192e:	02 c0       	rjmp	.+4      	; 0x1934 <LED+0x38>
    1930:	88 0f       	add	r24, r24
    1932:	99 1f       	adc	r25, r25
    1934:	0a 94       	dec	r0
    1936:	e2 f7       	brpl	.-8      	; 0x1930 <LED+0x34>
    1938:	80 95       	com	r24
    193a:	84 23       	and	r24, r20
    193c:	8c 93       	st	X, r24
    193e:	13 c0       	rjmp	.+38     	; 0x1966 <LED+0x6a>
	else		sbi(PORTA,target);
    1940:	a2 e2       	ldi	r26, 0x22	; 34
    1942:	b0 e0       	ldi	r27, 0x00	; 0
    1944:	e2 e2       	ldi	r30, 0x22	; 34
    1946:	f0 e0       	ldi	r31, 0x00	; 0
    1948:	80 81       	ld	r24, Z
    194a:	48 2f       	mov	r20, r24
    194c:	89 81       	ldd	r24, Y+1	; 0x01
    194e:	28 2f       	mov	r18, r24
    1950:	30 e0       	ldi	r19, 0x00	; 0
    1952:	81 e0       	ldi	r24, 0x01	; 1
    1954:	90 e0       	ldi	r25, 0x00	; 0
    1956:	02 2e       	mov	r0, r18
    1958:	02 c0       	rjmp	.+4      	; 0x195e <LED+0x62>
    195a:	88 0f       	add	r24, r24
    195c:	99 1f       	adc	r25, r25
    195e:	0a 94       	dec	r0
    1960:	e2 f7       	brpl	.-8      	; 0x195a <LED+0x5e>
    1962:	84 2b       	or	r24, r20
    1964:	8c 93       	st	X, r24
}
    1966:	0f 90       	pop	r0
    1968:	0f 90       	pop	r0
    196a:	cf 91       	pop	r28
    196c:	df 91       	pop	r29
    196e:	08 95       	ret

00001970 <LEDInit>:

void LEDInit(void)
{
    1970:	df 93       	push	r29
    1972:	cf 93       	push	r28
    1974:	cd b7       	in	r28, 0x3d	; 61
    1976:	de b7       	in	r29, 0x3e	; 62
	DDRA |= 0x07;
    1978:	a1 e2       	ldi	r26, 0x21	; 33
    197a:	b0 e0       	ldi	r27, 0x00	; 0
    197c:	e1 e2       	ldi	r30, 0x21	; 33
    197e:	f0 e0       	ldi	r31, 0x00	; 0
    1980:	80 81       	ld	r24, Z
    1982:	87 60       	ori	r24, 0x07	; 7
    1984:	8c 93       	st	X, r24
	PORTA |= 0x07;
    1986:	a2 e2       	ldi	r26, 0x22	; 34
    1988:	b0 e0       	ldi	r27, 0x00	; 0
    198a:	e2 e2       	ldi	r30, 0x22	; 34
    198c:	f0 e0       	ldi	r31, 0x00	; 0
    198e:	80 81       	ld	r24, Z
    1990:	87 60       	ori	r24, 0x07	; 7
    1992:	8c 93       	st	X, r24
}
    1994:	cf 91       	pop	r28
    1996:	df 91       	pop	r29
    1998:	08 95       	ret

0000199a <wait_ms>:
#include <avr/io.h>
void wait_ms(uint16_t t){
    199a:	df 93       	push	r29
    199c:	cf 93       	push	r28
    199e:	00 d0       	rcall	.+0      	; 0x19a0 <wait_ms+0x6>
    19a0:	00 d0       	rcall	.+0      	; 0x19a2 <wait_ms+0x8>
    19a2:	0f 92       	push	r0
    19a4:	cd b7       	in	r28, 0x3d	; 61
    19a6:	de b7       	in	r29, 0x3e	; 62
    19a8:	9b 83       	std	Y+3, r25	; 0x03
    19aa:	8a 83       	std	Y+2, r24	; 0x02
	uint8_t tt;
	TCCR2A = 0;
    19ac:	e0 eb       	ldi	r30, 0xB0	; 176
    19ae:	f0 e0       	ldi	r31, 0x00	; 0
    19b0:	10 82       	st	Z, r1
	TCCR2B = 1;
    19b2:	e1 eb       	ldi	r30, 0xB1	; 177
    19b4:	f0 e0       	ldi	r31, 0x00	; 0
    19b6:	81 e0       	ldi	r24, 0x01	; 1
    19b8:	80 83       	st	Z, r24
	OCR2A = 200;
    19ba:	e3 eb       	ldi	r30, 0xB3	; 179
    19bc:	f0 e0       	ldi	r31, 0x00	; 0
    19be:	88 ec       	ldi	r24, 0xC8	; 200
    19c0:	80 83       	st	Z, r24

	for(tt=100;t--;){
    19c2:	84 e6       	ldi	r24, 0x64	; 100
    19c4:	89 83       	std	Y+1, r24	; 0x01
    19c6:	20 c0       	rjmp	.+64     	; 0x1a08 <wait_ms+0x6e>
		while(tt--){
			for(TCNT2=0;!(TIFR2&0x02););
    19c8:	e2 eb       	ldi	r30, 0xB2	; 178
    19ca:	f0 e0       	ldi	r31, 0x00	; 0
    19cc:	10 82       	st	Z, r1
    19ce:	e7 e3       	ldi	r30, 0x37	; 55
    19d0:	f0 e0       	ldi	r31, 0x00	; 0
    19d2:	80 81       	ld	r24, Z
    19d4:	88 2f       	mov	r24, r24
    19d6:	90 e0       	ldi	r25, 0x00	; 0
    19d8:	82 70       	andi	r24, 0x02	; 2
    19da:	90 70       	andi	r25, 0x00	; 0
    19dc:	00 97       	sbiw	r24, 0x00	; 0
    19de:	b9 f3       	breq	.-18     	; 0x19ce <wait_ms+0x34>
			TIFR2 |= 0x02;
    19e0:	a7 e3       	ldi	r26, 0x37	; 55
    19e2:	b0 e0       	ldi	r27, 0x00	; 0
    19e4:	e7 e3       	ldi	r30, 0x37	; 55
    19e6:	f0 e0       	ldi	r31, 0x00	; 0
    19e8:	80 81       	ld	r24, Z
    19ea:	82 60       	ori	r24, 0x02	; 2
    19ec:	8c 93       	st	X, r24
	TCCR2A = 0;
	TCCR2B = 1;
	OCR2A = 200;

	for(tt=100;t--;){
		while(tt--){
    19ee:	89 81       	ldd	r24, Y+1	; 0x01
    19f0:	8d 83       	std	Y+5, r24	; 0x05
    19f2:	8d 81       	ldd	r24, Y+5	; 0x05
    19f4:	88 23       	and	r24, r24
    19f6:	11 f0       	breq	.+4      	; 0x19fc <wait_ms+0x62>
    19f8:	81 e0       	ldi	r24, 0x01	; 1
    19fa:	8d 83       	std	Y+5, r24	; 0x05
    19fc:	8d 81       	ldd	r24, Y+5	; 0x05
    19fe:	99 81       	ldd	r25, Y+1	; 0x01
    1a00:	91 50       	subi	r25, 0x01	; 1
    1a02:	99 83       	std	Y+1, r25	; 0x01
    1a04:	88 23       	and	r24, r24
    1a06:	01 f7       	brne	.-64     	; 0x19c8 <wait_ms+0x2e>
	uint8_t tt;
	TCCR2A = 0;
	TCCR2B = 1;
	OCR2A = 200;

	for(tt=100;t--;){
    1a08:	1c 82       	std	Y+4, r1	; 0x04
    1a0a:	8a 81       	ldd	r24, Y+2	; 0x02
    1a0c:	9b 81       	ldd	r25, Y+3	; 0x03
    1a0e:	00 97       	sbiw	r24, 0x00	; 0
    1a10:	11 f0       	breq	.+4      	; 0x1a16 <wait_ms+0x7c>
    1a12:	81 e0       	ldi	r24, 0x01	; 1
    1a14:	8c 83       	std	Y+4, r24	; 0x04
    1a16:	8a 81       	ldd	r24, Y+2	; 0x02
    1a18:	9b 81       	ldd	r25, Y+3	; 0x03
    1a1a:	01 97       	sbiw	r24, 0x01	; 1
    1a1c:	9b 83       	std	Y+3, r25	; 0x03
    1a1e:	8a 83       	std	Y+2, r24	; 0x02
    1a20:	8c 81       	ldd	r24, Y+4	; 0x04
    1a22:	88 23       	and	r24, r24
    1a24:	21 f7       	brne	.-56     	; 0x19ee <wait_ms+0x54>
		while(tt--){
			for(TCNT2=0;!(TIFR2&0x02););
			TIFR2 |= 0x02;
		}
	}
}
    1a26:	0f 90       	pop	r0
    1a28:	0f 90       	pop	r0
    1a2a:	0f 90       	pop	r0
    1a2c:	0f 90       	pop	r0
    1a2e:	0f 90       	pop	r0
    1a30:	cf 91       	pop	r28
    1a32:	df 91       	pop	r29
    1a34:	08 95       	ret

00001a36 <wait_us>:
void wait_us(uint16_t t){
    1a36:	df 93       	push	r29
    1a38:	cf 93       	push	r28
    1a3a:	00 d0       	rcall	.+0      	; 0x1a3c <wait_us+0x6>
    1a3c:	0f 92       	push	r0
    1a3e:	cd b7       	in	r28, 0x3d	; 61
    1a40:	de b7       	in	r29, 0x3e	; 62
    1a42:	9a 83       	std	Y+2, r25	; 0x02
    1a44:	89 83       	std	Y+1, r24	; 0x01
	TCCR2A = 0;
    1a46:	e0 eb       	ldi	r30, 0xB0	; 176
    1a48:	f0 e0       	ldi	r31, 0x00	; 0
    1a4a:	10 82       	st	Z, r1
	TCCR2B = 1;
    1a4c:	e1 eb       	ldi	r30, 0xB1	; 177
    1a4e:	f0 e0       	ldi	r31, 0x00	; 0
    1a50:	81 e0       	ldi	r24, 0x01	; 1
    1a52:	80 83       	st	Z, r24
	OCR2A = 20;
    1a54:	e3 eb       	ldi	r30, 0xB3	; 179
    1a56:	f0 e0       	ldi	r31, 0x00	; 0
    1a58:	84 e1       	ldi	r24, 0x14	; 20
    1a5a:	80 83       	st	Z, r24
    1a5c:	13 c0       	rjmp	.+38     	; 0x1a84 <wait_us+0x4e>
	while(t--){
		for(TCNT2=0;!(TIFR2&0x02););
    1a5e:	e2 eb       	ldi	r30, 0xB2	; 178
    1a60:	f0 e0       	ldi	r31, 0x00	; 0
    1a62:	10 82       	st	Z, r1
    1a64:	e7 e3       	ldi	r30, 0x37	; 55
    1a66:	f0 e0       	ldi	r31, 0x00	; 0
    1a68:	80 81       	ld	r24, Z
    1a6a:	88 2f       	mov	r24, r24
    1a6c:	90 e0       	ldi	r25, 0x00	; 0
    1a6e:	82 70       	andi	r24, 0x02	; 2
    1a70:	90 70       	andi	r25, 0x00	; 0
    1a72:	00 97       	sbiw	r24, 0x00	; 0
    1a74:	b9 f3       	breq	.-18     	; 0x1a64 <wait_us+0x2e>
		TIFR2 |= 0x02;
    1a76:	a7 e3       	ldi	r26, 0x37	; 55
    1a78:	b0 e0       	ldi	r27, 0x00	; 0
    1a7a:	e7 e3       	ldi	r30, 0x37	; 55
    1a7c:	f0 e0       	ldi	r31, 0x00	; 0
    1a7e:	80 81       	ld	r24, Z
    1a80:	82 60       	ori	r24, 0x02	; 2
    1a82:	8c 93       	st	X, r24
}
void wait_us(uint16_t t){
	TCCR2A = 0;
	TCCR2B = 1;
	OCR2A = 20;
	while(t--){
    1a84:	1b 82       	std	Y+3, r1	; 0x03
    1a86:	89 81       	ldd	r24, Y+1	; 0x01
    1a88:	9a 81       	ldd	r25, Y+2	; 0x02
    1a8a:	00 97       	sbiw	r24, 0x00	; 0
    1a8c:	11 f0       	breq	.+4      	; 0x1a92 <wait_us+0x5c>
    1a8e:	81 e0       	ldi	r24, 0x01	; 1
    1a90:	8b 83       	std	Y+3, r24	; 0x03
    1a92:	89 81       	ldd	r24, Y+1	; 0x01
    1a94:	9a 81       	ldd	r25, Y+2	; 0x02
    1a96:	01 97       	sbiw	r24, 0x01	; 1
    1a98:	9a 83       	std	Y+2, r25	; 0x02
    1a9a:	89 83       	std	Y+1, r24	; 0x01
    1a9c:	8b 81       	ldd	r24, Y+3	; 0x03
    1a9e:	88 23       	and	r24, r24
    1aa0:	f1 f6       	brne	.-68     	; 0x1a5e <wait_us+0x28>
		for(TCNT2=0;!(TIFR2&0x02););
		TIFR2 |= 0x02;
	}
}
    1aa2:	0f 90       	pop	r0
    1aa4:	0f 90       	pop	r0
    1aa6:	0f 90       	pop	r0
    1aa8:	cf 91       	pop	r28
    1aaa:	df 91       	pop	r29
    1aac:	08 95       	ret

00001aae <mDrive>:
#include <common.h>



void mDrive(Slave *motor,unsigned char in, signed char duty,unsigned char no)
{
    1aae:	df 93       	push	r29
    1ab0:	cf 93       	push	r28
    1ab2:	00 d0       	rcall	.+0      	; 0x1ab4 <mDrive+0x6>
    1ab4:	00 d0       	rcall	.+0      	; 0x1ab6 <mDrive+0x8>
    1ab6:	00 d0       	rcall	.+0      	; 0x1ab8 <mDrive+0xa>
    1ab8:	cd b7       	in	r28, 0x3d	; 61
    1aba:	de b7       	in	r29, 0x3e	; 62
    1abc:	9b 83       	std	Y+3, r25	; 0x03
    1abe:	8a 83       	std	Y+2, r24	; 0x02
    1ac0:	6c 83       	std	Y+4, r22	; 0x04
    1ac2:	4d 83       	std	Y+5, r20	; 0x05
    1ac4:	2e 83       	std	Y+6, r18	; 0x06
	signed char w_data=0;
    1ac6:	19 82       	std	Y+1, r1	; 0x01
	if((no>4)||(no<0)) return;
    1ac8:	8e 81       	ldd	r24, Y+6	; 0x06
    1aca:	85 30       	cpi	r24, 0x05	; 5
    1acc:	50 f5       	brcc	.+84     	; 0x1b22 <mDrive+0x74>
	if(duty>100) duty=100;
    1ace:	8d 81       	ldd	r24, Y+5	; 0x05
    1ad0:	85 36       	cpi	r24, 0x65	; 101
    1ad2:	14 f0       	brlt	.+4      	; 0x1ad8 <mDrive+0x2a>
    1ad4:	84 e6       	ldi	r24, 0x64	; 100
    1ad6:	8d 83       	std	Y+5, r24	; 0x05
	if(duty<-100) duty=-100;
    1ad8:	8d 81       	ldd	r24, Y+5	; 0x05
    1ada:	8c 39       	cpi	r24, 0x9C	; 156
    1adc:	14 f4       	brge	.+4      	; 0x1ae2 <mDrive+0x34>
    1ade:	8c e9       	ldi	r24, 0x9C	; 156
    1ae0:	8d 83       	std	Y+5, r24	; 0x05
	if(in==CCW) w_data = -duty;
    1ae2:	8c 81       	ldd	r24, Y+4	; 0x04
    1ae4:	82 30       	cpi	r24, 0x02	; 2
    1ae6:	21 f4       	brne	.+8      	; 0x1af0 <mDrive+0x42>
    1ae8:	8d 81       	ldd	r24, Y+5	; 0x05
    1aea:	81 95       	neg	r24
    1aec:	89 83       	std	Y+1, r24	; 0x01
    1aee:	0d c0       	rjmp	.+26     	; 0x1b0a <mDrive+0x5c>
	else if(in==FREE) w_data = 0; 
    1af0:	8c 81       	ldd	r24, Y+4	; 0x04
    1af2:	88 23       	and	r24, r24
    1af4:	11 f4       	brne	.+4      	; 0x1afa <mDrive+0x4c>
    1af6:	19 82       	std	Y+1, r1	; 0x01
    1af8:	08 c0       	rjmp	.+16     	; 0x1b0a <mDrive+0x5c>
	else if(in==BRAKE) w_data = 0x7f;
    1afa:	8c 81       	ldd	r24, Y+4	; 0x04
    1afc:	83 30       	cpi	r24, 0x03	; 3
    1afe:	19 f4       	brne	.+6      	; 0x1b06 <mDrive+0x58>
    1b00:	8f e7       	ldi	r24, 0x7F	; 127
    1b02:	89 83       	std	Y+1, r24	; 0x01
    1b04:	02 c0       	rjmp	.+4      	; 0x1b0a <mDrive+0x5c>
	else w_data = duty;
    1b06:	8d 81       	ldd	r24, Y+5	; 0x05
    1b08:	89 83       	std	Y+1, r24	; 0x01
	motor->write.buf[no] = w_data;
    1b0a:	ea 81       	ldd	r30, Y+2	; 0x02
    1b0c:	fb 81       	ldd	r31, Y+3	; 0x03
    1b0e:	21 81       	ldd	r18, Z+1	; 0x01
    1b10:	32 81       	ldd	r19, Z+2	; 0x02
    1b12:	8e 81       	ldd	r24, Y+6	; 0x06
    1b14:	88 2f       	mov	r24, r24
    1b16:	90 e0       	ldi	r25, 0x00	; 0
    1b18:	f9 01       	movw	r30, r18
    1b1a:	e8 0f       	add	r30, r24
    1b1c:	f9 1f       	adc	r31, r25
    1b1e:	89 81       	ldd	r24, Y+1	; 0x01
    1b20:	80 83       	st	Z, r24
}
    1b22:	26 96       	adiw	r28, 0x06	; 6
    1b24:	0f b6       	in	r0, 0x3f	; 63
    1b26:	f8 94       	cli
    1b28:	de bf       	out	0x3e, r29	; 62
    1b2a:	0f be       	out	0x3f, r0	; 63
    1b2c:	cd bf       	out	0x3d, r28	; 61
    1b2e:	cf 91       	pop	r28
    1b30:	df 91       	pop	r29
    1b32:	08 95       	ret

00001b34 <mAngle>:


void mAngle(Slave *motor,int angle,bool act)
{
    1b34:	df 93       	push	r29
    1b36:	cf 93       	push	r28
    1b38:	00 d0       	rcall	.+0      	; 0x1b3a <mAngle+0x6>
    1b3a:	00 d0       	rcall	.+0      	; 0x1b3c <mAngle+0x8>
    1b3c:	0f 92       	push	r0
    1b3e:	cd b7       	in	r28, 0x3d	; 61
    1b40:	de b7       	in	r29, 0x3e	; 62
    1b42:	9a 83       	std	Y+2, r25	; 0x02
    1b44:	89 83       	std	Y+1, r24	; 0x01
    1b46:	7c 83       	std	Y+4, r23	; 0x04
    1b48:	6b 83       	std	Y+3, r22	; 0x03
    1b4a:	4d 83       	std	Y+5, r20	; 0x05
	if(act){
    1b4c:	8d 81       	ldd	r24, Y+5	; 0x05
    1b4e:	88 23       	and	r24, r24
    1b50:	a9 f0       	breq	.+42     	; 0x1b7c <mAngle+0x48>
		angle/=6;
    1b52:	8b 81       	ldd	r24, Y+3	; 0x03
    1b54:	9c 81       	ldd	r25, Y+4	; 0x04
    1b56:	26 e0       	ldi	r18, 0x06	; 6
    1b58:	30 e0       	ldi	r19, 0x00	; 0
    1b5a:	b9 01       	movw	r22, r18
    1b5c:	0e 94 2d 0f 	call	0x1e5a	; 0x1e5a <__divmodhi4>
    1b60:	cb 01       	movw	r24, r22
    1b62:	9c 83       	std	Y+4, r25	; 0x04
    1b64:	8b 83       	std	Y+3, r24	; 0x03
		motor->write.buf[2] = 0x40|(angle&0x1f);
    1b66:	e9 81       	ldd	r30, Y+1	; 0x01
    1b68:	fa 81       	ldd	r31, Y+2	; 0x02
    1b6a:	81 81       	ldd	r24, Z+1	; 0x01
    1b6c:	92 81       	ldd	r25, Z+2	; 0x02
    1b6e:	fc 01       	movw	r30, r24
    1b70:	32 96       	adiw	r30, 0x02	; 2
    1b72:	8b 81       	ldd	r24, Y+3	; 0x03
    1b74:	8f 71       	andi	r24, 0x1F	; 31
    1b76:	80 64       	ori	r24, 0x40	; 64
    1b78:	80 83       	st	Z, r24
    1b7a:	07 c0       	rjmp	.+14     	; 0x1b8a <mAngle+0x56>
		}
	else motor->write.buf[2] = 0x00;
    1b7c:	e9 81       	ldd	r30, Y+1	; 0x01
    1b7e:	fa 81       	ldd	r31, Y+2	; 0x02
    1b80:	81 81       	ldd	r24, Z+1	; 0x01
    1b82:	92 81       	ldd	r25, Z+2	; 0x02
    1b84:	fc 01       	movw	r30, r24
    1b86:	32 96       	adiw	r30, 0x02	; 2
    1b88:	10 82       	st	Z, r1
}
    1b8a:	0f 90       	pop	r0
    1b8c:	0f 90       	pop	r0
    1b8e:	0f 90       	pop	r0
    1b90:	0f 90       	pop	r0
    1b92:	0f 90       	pop	r0
    1b94:	cf 91       	pop	r28
    1b96:	df 91       	pop	r29
    1b98:	08 95       	ret

00001b9a <aDrive>:


void aDrive(Slave *cylinder,unsigned char port,bool act)
{
    1b9a:	df 93       	push	r29
    1b9c:	cf 93       	push	r28
    1b9e:	00 d0       	rcall	.+0      	; 0x1ba0 <aDrive+0x6>
    1ba0:	00 d0       	rcall	.+0      	; 0x1ba2 <aDrive+0x8>
    1ba2:	cd b7       	in	r28, 0x3d	; 61
    1ba4:	de b7       	in	r29, 0x3e	; 62
    1ba6:	9a 83       	std	Y+2, r25	; 0x02
    1ba8:	89 83       	std	Y+1, r24	; 0x01
    1baa:	6b 83       	std	Y+3, r22	; 0x03
    1bac:	4c 83       	std	Y+4, r20	; 0x04

	if(act) *(cylinder->write.buf) = port;
    1bae:	8c 81       	ldd	r24, Y+4	; 0x04
    1bb0:	88 23       	and	r24, r24
    1bb2:	41 f0       	breq	.+16     	; 0x1bc4 <aDrive+0x2a>
    1bb4:	e9 81       	ldd	r30, Y+1	; 0x01
    1bb6:	fa 81       	ldd	r31, Y+2	; 0x02
    1bb8:	01 80       	ldd	r0, Z+1	; 0x01
    1bba:	f2 81       	ldd	r31, Z+2	; 0x02
    1bbc:	e0 2d       	mov	r30, r0
    1bbe:	8b 81       	ldd	r24, Y+3	; 0x03
    1bc0:	80 83       	st	Z, r24
    1bc2:	06 c0       	rjmp	.+12     	; 0x1bd0 <aDrive+0x36>

	else 	*(cylinder->write.buf) = 0x00;
    1bc4:	e9 81       	ldd	r30, Y+1	; 0x01
    1bc6:	fa 81       	ldd	r31, Y+2	; 0x02
    1bc8:	01 80       	ldd	r0, Z+1	; 0x01
    1bca:	f2 81       	ldd	r31, Z+2	; 0x02
    1bcc:	e0 2d       	mov	r30, r0
    1bce:	10 82       	st	Z, r1

}
    1bd0:	0f 90       	pop	r0
    1bd2:	0f 90       	pop	r0
    1bd4:	0f 90       	pop	r0
    1bd6:	0f 90       	pop	r0
    1bd8:	cf 91       	pop	r28
    1bda:	df 91       	pop	r29
    1bdc:	08 95       	ret

00001bde <SwitchInit>:
#include "switch.h"

void SwitchInit(void)
{
    1bde:	df 93       	push	r29
    1be0:	cf 93       	push	r28
    1be2:	cd b7       	in	r28, 0x3d	; 61
    1be4:	de b7       	in	r29, 0x3e	; 62
	DDRB &= 0xf0;
    1be6:	a4 e2       	ldi	r26, 0x24	; 36
    1be8:	b0 e0       	ldi	r27, 0x00	; 0
    1bea:	e4 e2       	ldi	r30, 0x24	; 36
    1bec:	f0 e0       	ldi	r31, 0x00	; 0
    1bee:	80 81       	ld	r24, Z
    1bf0:	80 7f       	andi	r24, 0xF0	; 240
    1bf2:	8c 93       	st	X, r24
	PORTB |= 0x0f;
    1bf4:	a5 e2       	ldi	r26, 0x25	; 37
    1bf6:	b0 e0       	ldi	r27, 0x00	; 0
    1bf8:	e5 e2       	ldi	r30, 0x25	; 37
    1bfa:	f0 e0       	ldi	r31, 0x00	; 0
    1bfc:	80 81       	ld	r24, Z
    1bfe:	8f 60       	ori	r24, 0x0F	; 15
    1c00:	8c 93       	st	X, r24
}
    1c02:	cf 91       	pop	r28
    1c04:	df 91       	pop	r29
    1c06:	08 95       	ret

00001c08 <Switch>:
/// スイッチ値取得関数 
/// </summary>
/// <param name="target"> メイン基盤上のスライドスイッチ番号　1〜4 </param>
/// <return> スイッチの状態 ON -> ture , OFF -> false </return>
bool Switch(unsigned char target)
{
    1c08:	df 93       	push	r29
    1c0a:	cf 93       	push	r28
    1c0c:	00 d0       	rcall	.+0      	; 0x1c0e <Switch+0x6>
    1c0e:	cd b7       	in	r28, 0x3d	; 61
    1c10:	de b7       	in	r29, 0x3e	; 62
    1c12:	8a 83       	std	Y+2, r24	; 0x02
	unsigned char status;
	
	status = PINB ^ 0xff;
    1c14:	e3 e2       	ldi	r30, 0x23	; 35
    1c16:	f0 e0       	ldi	r31, 0x00	; 0
    1c18:	80 81       	ld	r24, Z
    1c1a:	80 95       	com	r24
    1c1c:	89 83       	std	Y+1, r24	; 0x01
	status >>= (target-1); 
    1c1e:	89 81       	ldd	r24, Y+1	; 0x01
    1c20:	28 2f       	mov	r18, r24
    1c22:	30 e0       	ldi	r19, 0x00	; 0
    1c24:	8a 81       	ldd	r24, Y+2	; 0x02
    1c26:	88 2f       	mov	r24, r24
    1c28:	90 e0       	ldi	r25, 0x00	; 0
    1c2a:	01 97       	sbiw	r24, 0x01	; 1
    1c2c:	a9 01       	movw	r20, r18
    1c2e:	02 c0       	rjmp	.+4      	; 0x1c34 <Switch+0x2c>
    1c30:	55 95       	asr	r21
    1c32:	47 95       	ror	r20
    1c34:	8a 95       	dec	r24
    1c36:	e2 f7       	brpl	.-8      	; 0x1c30 <Switch+0x28>
    1c38:	ca 01       	movw	r24, r20
    1c3a:	89 83       	std	Y+1, r24	; 0x01

	return (bool)(status & 0x01);
    1c3c:	89 81       	ldd	r24, Y+1	; 0x01
    1c3e:	88 2f       	mov	r24, r24
    1c40:	90 e0       	ldi	r25, 0x00	; 0
    1c42:	81 70       	andi	r24, 0x01	; 1
    1c44:	90 70       	andi	r25, 0x00	; 0
}
    1c46:	0f 90       	pop	r0
    1c48:	0f 90       	pop	r0
    1c4a:	cf 91       	pop	r28
    1c4c:	df 91       	pop	r29
    1c4e:	08 95       	ret

00001c50 <Group>:

__inline__ unsigned char Group(void)
{
    1c50:	df 93       	push	r29
    1c52:	cf 93       	push	r28
    1c54:	cd b7       	in	r28, 0x3d	; 61
    1c56:	de b7       	in	r29, 0x3e	; 62
	return ((PINB ^ 0xff)>>2)&0x03;
    1c58:	e3 e2       	ldi	r30, 0x23	; 35
    1c5a:	f0 e0       	ldi	r31, 0x00	; 0
    1c5c:	80 81       	ld	r24, Z
    1c5e:	80 95       	com	r24
    1c60:	86 95       	lsr	r24
    1c62:	86 95       	lsr	r24
    1c64:	83 70       	andi	r24, 0x03	; 3
}
    1c66:	cf 91       	pop	r28
    1c68:	df 91       	pop	r29
    1c6a:	08 95       	ret

00001c6c <Channel>:

__inline__ unsigned char Channel(void)
{
    1c6c:	df 93       	push	r29
    1c6e:	cf 93       	push	r28
    1c70:	cd b7       	in	r28, 0x3d	; 61
    1c72:	de b7       	in	r29, 0x3e	; 62
	return (PINB ^ 0xff)&0x03;
    1c74:	e3 e2       	ldi	r30, 0x23	; 35
    1c76:	f0 e0       	ldi	r31, 0x00	; 0
    1c78:	80 81       	ld	r24, Z
    1c7a:	80 95       	com	r24
    1c7c:	83 70       	andi	r24, 0x03	; 3
}
    1c7e:	cf 91       	pop	r28
    1c80:	df 91       	pop	r29
    1c82:	08 95       	ret

00001c84 <beep>:

static bool ctrl=1;
static uint8_t count = 0;

void beep(bool act)
{
    1c84:	df 93       	push	r29
    1c86:	cf 93       	push	r28
    1c88:	0f 92       	push	r0
    1c8a:	cd b7       	in	r28, 0x3d	; 61
    1c8c:	de b7       	in	r29, 0x3e	; 62
    1c8e:	89 83       	std	Y+1, r24	; 0x01
	if(BEEP&&act&&ctrl) PORTA|=0x08;
    1c90:	89 81       	ldd	r24, Y+1	; 0x01
    1c92:	91 e0       	ldi	r25, 0x01	; 1
    1c94:	89 27       	eor	r24, r25
    1c96:	88 23       	and	r24, r24
    1c98:	71 f4       	brne	.+28     	; 0x1cb6 <beep+0x32>
    1c9a:	80 91 17 03 	lds	r24, 0x0317
    1c9e:	91 e0       	ldi	r25, 0x01	; 1
    1ca0:	89 27       	eor	r24, r25
    1ca2:	88 23       	and	r24, r24
    1ca4:	41 f4       	brne	.+16     	; 0x1cb6 <beep+0x32>
    1ca6:	a2 e2       	ldi	r26, 0x22	; 34
    1ca8:	b0 e0       	ldi	r27, 0x00	; 0
    1caa:	e2 e2       	ldi	r30, 0x22	; 34
    1cac:	f0 e0       	ldi	r31, 0x00	; 0
    1cae:	80 81       	ld	r24, Z
    1cb0:	88 60       	ori	r24, 0x08	; 8
    1cb2:	8c 93       	st	X, r24
    1cb4:	0b c0       	rjmp	.+22     	; 0x1ccc <beep+0x48>
	else if(ctrl) PORTA&=0xf7;
    1cb6:	80 91 17 03 	lds	r24, 0x0317
    1cba:	88 23       	and	r24, r24
    1cbc:	39 f0       	breq	.+14     	; 0x1ccc <beep+0x48>
    1cbe:	a2 e2       	ldi	r26, 0x22	; 34
    1cc0:	b0 e0       	ldi	r27, 0x00	; 0
    1cc2:	e2 e2       	ldi	r30, 0x22	; 34
    1cc4:	f0 e0       	ldi	r31, 0x00	; 0
    1cc6:	80 81       	ld	r24, Z
    1cc8:	87 7f       	andi	r24, 0xF7	; 247
    1cca:	8c 93       	st	X, r24
}
    1ccc:	0f 90       	pop	r0
    1cce:	cf 91       	pop	r28
    1cd0:	df 91       	pop	r29
    1cd2:	08 95       	ret

00001cd4 <BeepInit>:

void BeepInit()
{
    1cd4:	df 93       	push	r29
    1cd6:	cf 93       	push	r28
    1cd8:	cd b7       	in	r28, 0x3d	; 61
    1cda:	de b7       	in	r29, 0x3e	; 62
	DDRA |= 0x08;
    1cdc:	a1 e2       	ldi	r26, 0x21	; 33
    1cde:	b0 e0       	ldi	r27, 0x00	; 0
    1ce0:	e1 e2       	ldi	r30, 0x21	; 33
    1ce2:	f0 e0       	ldi	r31, 0x00	; 0
    1ce4:	80 81       	ld	r24, Z
    1ce6:	88 60       	ori	r24, 0x08	; 8
    1ce8:	8c 93       	st	X, r24
	PORTA &= 0xf7;
    1cea:	a2 e2       	ldi	r26, 0x22	; 34
    1cec:	b0 e0       	ldi	r27, 0x00	; 0
    1cee:	e2 e2       	ldi	r30, 0x22	; 34
    1cf0:	f0 e0       	ldi	r31, 0x00	; 0
    1cf2:	80 81       	ld	r24, Z
    1cf4:	87 7f       	andi	r24, 0xF7	; 247
    1cf6:	8c 93       	st	X, r24
}
    1cf8:	cf 91       	pop	r28
    1cfa:	df 91       	pop	r29
    1cfc:	08 95       	ret

00001cfe <i2cCheck>:

void i2cCheck(bool flag)
{
    1cfe:	df 93       	push	r29
    1d00:	cf 93       	push	r28
    1d02:	0f 92       	push	r0
    1d04:	cd b7       	in	r28, 0x3d	; 61
    1d06:	de b7       	in	r29, 0x3e	; 62
    1d08:	89 83       	std	Y+1, r24	; 0x01
	LED(1,flag);
    1d0a:	81 e0       	ldi	r24, 0x01	; 1
    1d0c:	69 81       	ldd	r22, Y+1	; 0x01
    1d0e:	0e 94 7e 0c 	call	0x18fc	; 0x18fc <LED>
	beep(!(flag));
    1d12:	99 81       	ldd	r25, Y+1	; 0x01
    1d14:	81 e0       	ldi	r24, 0x01	; 1
    1d16:	89 27       	eor	r24, r25
    1d18:	88 2f       	mov	r24, r24
    1d1a:	90 e0       	ldi	r25, 0x00	; 0
    1d1c:	0e 94 42 0e 	call	0x1c84	; 0x1c84 <beep>
	if(!flag){
    1d20:	99 81       	ldd	r25, Y+1	; 0x01
    1d22:	81 e0       	ldi	r24, 0x01	; 1
    1d24:	89 27       	eor	r24, r25
    1d26:	88 23       	and	r24, r24
    1d28:	31 f0       	breq	.+12     	; 0x1d36 <i2cCheck+0x38>
		count++;
    1d2a:	80 91 6e 03 	lds	r24, 0x036E
    1d2e:	8f 5f       	subi	r24, 0xFF	; 255
    1d30:	80 93 6e 03 	sts	0x036E, r24
    1d34:	02 c0       	rjmp	.+4      	; 0x1d3a <i2cCheck+0x3c>
	}else{
		count = 0;
    1d36:	10 92 6e 03 	sts	0x036E, r1
	}
	if(count>=FALL_COUNT){
    1d3a:	80 91 6e 03 	lds	r24, 0x036E
    1d3e:	8a 30       	cpi	r24, 0x0A	; 10
    1d40:	40 f0       	brcs	.+16     	; 0x1d52 <i2cCheck+0x54>
		count = 0;
    1d42:	10 92 6e 03 	sts	0x036E, r1
		PORTC = 0x04;
    1d46:	e8 e2       	ldi	r30, 0x28	; 40
    1d48:	f0 e0       	ldi	r31, 0x00	; 0
    1d4a:	84 e0       	ldi	r24, 0x04	; 4
    1d4c:	80 83       	st	Z, r24
		cli();
    1d4e:	f8 94       	cli
    1d50:	ff cf       	rjmp	.-2      	; 0x1d50 <i2cCheck+0x52>
		while(1);
	}
}
    1d52:	0f 90       	pop	r0
    1d54:	cf 91       	pop	r28
    1d56:	df 91       	pop	r29
    1d58:	08 95       	ret

00001d5a <Emergency>:
#include <wait.h>

bool eflag;

bool Emergency(Slave *emergency,signed char act)
{
    1d5a:	df 93       	push	r29
    1d5c:	cf 93       	push	r28
    1d5e:	00 d0       	rcall	.+0      	; 0x1d60 <Emergency+0x6>
    1d60:	00 d0       	rcall	.+0      	; 0x1d62 <Emergency+0x8>
    1d62:	cd b7       	in	r28, 0x3d	; 61
    1d64:	de b7       	in	r29, 0x3e	; 62
    1d66:	9b 83       	std	Y+3, r25	; 0x03
    1d68:	8a 83       	std	Y+2, r24	; 0x02
    1d6a:	6c 83       	std	Y+4, r22	; 0x04
	bool tmp;
	if(act==E_ON){
    1d6c:	8c 81       	ldd	r24, Y+4	; 0x04
    1d6e:	81 30       	cpi	r24, 0x01	; 1
    1d70:	71 f4       	brne	.+28     	; 0x1d8e <Emergency+0x34>
		*(emergency->write.buf) = 0x6A;
    1d72:	ea 81       	ldd	r30, Y+2	; 0x02
    1d74:	fb 81       	ldd	r31, Y+3	; 0x03
    1d76:	01 80       	ldd	r0, Z+1	; 0x01
    1d78:	f2 81       	ldd	r31, Z+2	; 0x02
    1d7a:	e0 2d       	mov	r30, r0
    1d7c:	8a e6       	ldi	r24, 0x6A	; 106
    1d7e:	80 83       	st	Z, r24
		beep(1);
    1d80:	81 e0       	ldi	r24, 0x01	; 1
    1d82:	0e 94 42 0e 	call	0x1c84	; 0x1c84 <beep>
		eflag=1;
    1d86:	81 e0       	ldi	r24, 0x01	; 1
    1d88:	80 93 81 03 	sts	0x0381, r24
    1d8c:	16 c0       	rjmp	.+44     	; 0x1dba <Emergency+0x60>
		}
	else if(act==E_OFF){
    1d8e:	8c 81       	ldd	r24, Y+4	; 0x04
    1d90:	82 30       	cpi	r24, 0x02	; 2
    1d92:	69 f4       	brne	.+26     	; 0x1dae <Emergency+0x54>
		*(emergency->write.buf) = 0x55;
    1d94:	ea 81       	ldd	r30, Y+2	; 0x02
    1d96:	fb 81       	ldd	r31, Y+3	; 0x03
    1d98:	01 80       	ldd	r0, Z+1	; 0x01
    1d9a:	f2 81       	ldd	r31, Z+2	; 0x02
    1d9c:	e0 2d       	mov	r30, r0
    1d9e:	85 e5       	ldi	r24, 0x55	; 85
    1da0:	80 83       	st	Z, r24
		beep(0);
    1da2:	80 e0       	ldi	r24, 0x00	; 0
    1da4:	0e 94 42 0e 	call	0x1c84	; 0x1c84 <beep>
		eflag=0;
    1da8:	10 92 81 03 	sts	0x0381, r1
    1dac:	06 c0       	rjmp	.+12     	; 0x1dba <Emergency+0x60>
		}
	else *(emergency->write.buf) = 0x00;
    1dae:	ea 81       	ldd	r30, Y+2	; 0x02
    1db0:	fb 81       	ldd	r31, Y+3	; 0x03
    1db2:	01 80       	ldd	r0, Z+1	; 0x01
    1db4:	f2 81       	ldd	r31, Z+2	; 0x02
    1db6:	e0 2d       	mov	r30, r0
    1db8:	10 82       	st	Z, r1
	
	tmp = i2cRead(emergency);
    1dba:	8a 81       	ldd	r24, Y+2	; 0x02
    1dbc:	9b 81       	ldd	r25, Y+3	; 0x03
    1dbe:	0e 94 fd 0a 	call	0x15fa	; 0x15fa <i2cRead>
    1dc2:	89 83       	std	Y+1, r24	; 0x01
	if(*(emergency->read.buf)==0x6A){
    1dc4:	ea 81       	ldd	r30, Y+2	; 0x02
    1dc6:	fb 81       	ldd	r31, Y+3	; 0x03
    1dc8:	05 80       	ldd	r0, Z+5	; 0x05
    1dca:	f6 81       	ldd	r31, Z+6	; 0x06
    1dcc:	e0 2d       	mov	r30, r0
    1dce:	80 81       	ld	r24, Z
    1dd0:	8a 36       	cpi	r24, 0x6A	; 106
    1dd2:	31 f4       	brne	.+12     	; 0x1de0 <Emergency+0x86>
		beep(1);
    1dd4:	81 e0       	ldi	r24, 0x01	; 1
    1dd6:	0e 94 42 0e 	call	0x1c84	; 0x1c84 <beep>
		eflag=1;
    1dda:	81 e0       	ldi	r24, 0x01	; 1
    1ddc:	80 93 81 03 	sts	0x0381, r24
		}
	if(*(emergency->read.buf)==0x55){
    1de0:	ea 81       	ldd	r30, Y+2	; 0x02
    1de2:	fb 81       	ldd	r31, Y+3	; 0x03
    1de4:	05 80       	ldd	r0, Z+5	; 0x05
    1de6:	f6 81       	ldd	r31, Z+6	; 0x06
    1de8:	e0 2d       	mov	r30, r0
    1dea:	80 81       	ld	r24, Z
    1dec:	85 35       	cpi	r24, 0x55	; 85
    1dee:	d9 f4       	brne	.+54     	; 0x1e26 <Emergency+0xcc>
//		beep(0);
		WDTCSR |= 0x08;
    1df0:	a0 e6       	ldi	r26, 0x60	; 96
    1df2:	b0 e0       	ldi	r27, 0x00	; 0
    1df4:	e0 e6       	ldi	r30, 0x60	; 96
    1df6:	f0 e0       	ldi	r31, 0x00	; 0
    1df8:	80 81       	ld	r24, Z
    1dfa:	88 60       	ori	r24, 0x08	; 8
    1dfc:	8c 93       	st	X, r24
		WDTCSR &= 0xBF;
    1dfe:	a0 e6       	ldi	r26, 0x60	; 96
    1e00:	b0 e0       	ldi	r27, 0x00	; 0
    1e02:	e0 e6       	ldi	r30, 0x60	; 96
    1e04:	f0 e0       	ldi	r31, 0x00	; 0
    1e06:	80 81       	ld	r24, Z
    1e08:	8f 7b       	andi	r24, 0xBF	; 191
    1e0a:	8c 93       	st	X, r24
		wdt_reset();
    1e0c:	a8 95       	wdr
		wdt_enable(WDTO_15MS);
    1e0e:	88 e1       	ldi	r24, 0x18	; 24
    1e10:	90 e0       	ldi	r25, 0x00	; 0
    1e12:	28 e0       	ldi	r18, 0x08	; 8
    1e14:	0f b6       	in	r0, 0x3f	; 63
    1e16:	f8 94       	cli
    1e18:	a8 95       	wdr
    1e1a:	80 93 60 00 	sts	0x0060, r24
    1e1e:	0f be       	out	0x3f, r0	; 63
    1e20:	20 93 60 00 	sts	0x0060, r18
    1e24:	ff cf       	rjmp	.-2      	; 0x1e24 <Emergency+0xca>
		while(1);
		}
	return tmp;
    1e26:	89 81       	ldd	r24, Y+1	; 0x01
}
    1e28:	0f 90       	pop	r0
    1e2a:	0f 90       	pop	r0
    1e2c:	0f 90       	pop	r0
    1e2e:	0f 90       	pop	r0
    1e30:	cf 91       	pop	r28
    1e32:	df 91       	pop	r29
    1e34:	08 95       	ret

00001e36 <EmergencyStatus>:

bool EmergencyStatus()
{
    1e36:	df 93       	push	r29
    1e38:	cf 93       	push	r28
    1e3a:	0f 92       	push	r0
    1e3c:	cd b7       	in	r28, 0x3d	; 61
    1e3e:	de b7       	in	r29, 0x3e	; 62
	if(eflag) return 0;
    1e40:	80 91 81 03 	lds	r24, 0x0381
    1e44:	88 23       	and	r24, r24
    1e46:	11 f0       	breq	.+4      	; 0x1e4c <EmergencyStatus+0x16>
    1e48:	19 82       	std	Y+1, r1	; 0x01
    1e4a:	02 c0       	rjmp	.+4      	; 0x1e50 <EmergencyStatus+0x1a>
	else return 1;
    1e4c:	81 e0       	ldi	r24, 0x01	; 1
    1e4e:	89 83       	std	Y+1, r24	; 0x01
    1e50:	89 81       	ldd	r24, Y+1	; 0x01
}
    1e52:	0f 90       	pop	r0
    1e54:	cf 91       	pop	r28
    1e56:	df 91       	pop	r29
    1e58:	08 95       	ret

00001e5a <__divmodhi4>:
    1e5a:	97 fb       	bst	r25, 7
    1e5c:	09 2e       	mov	r0, r25
    1e5e:	07 26       	eor	r0, r23
    1e60:	0a d0       	rcall	.+20     	; 0x1e76 <__divmodhi4_neg1>
    1e62:	77 fd       	sbrc	r23, 7
    1e64:	04 d0       	rcall	.+8      	; 0x1e6e <__divmodhi4_neg2>
    1e66:	0c d0       	rcall	.+24     	; 0x1e80 <__udivmodhi4>
    1e68:	06 d0       	rcall	.+12     	; 0x1e76 <__divmodhi4_neg1>
    1e6a:	00 20       	and	r0, r0
    1e6c:	1a f4       	brpl	.+6      	; 0x1e74 <__divmodhi4_exit>

00001e6e <__divmodhi4_neg2>:
    1e6e:	70 95       	com	r23
    1e70:	61 95       	neg	r22
    1e72:	7f 4f       	sbci	r23, 0xFF	; 255

00001e74 <__divmodhi4_exit>:
    1e74:	08 95       	ret

00001e76 <__divmodhi4_neg1>:
    1e76:	f6 f7       	brtc	.-4      	; 0x1e74 <__divmodhi4_exit>
    1e78:	90 95       	com	r25
    1e7a:	81 95       	neg	r24
    1e7c:	9f 4f       	sbci	r25, 0xFF	; 255
    1e7e:	08 95       	ret

00001e80 <__udivmodhi4>:
    1e80:	aa 1b       	sub	r26, r26
    1e82:	bb 1b       	sub	r27, r27
    1e84:	51 e1       	ldi	r21, 0x11	; 17
    1e86:	07 c0       	rjmp	.+14     	; 0x1e96 <__udivmodhi4_ep>

00001e88 <__udivmodhi4_loop>:
    1e88:	aa 1f       	adc	r26, r26
    1e8a:	bb 1f       	adc	r27, r27
    1e8c:	a6 17       	cp	r26, r22
    1e8e:	b7 07       	cpc	r27, r23
    1e90:	10 f0       	brcs	.+4      	; 0x1e96 <__udivmodhi4_ep>
    1e92:	a6 1b       	sub	r26, r22
    1e94:	b7 0b       	sbc	r27, r23

00001e96 <__udivmodhi4_ep>:
    1e96:	88 1f       	adc	r24, r24
    1e98:	99 1f       	adc	r25, r25
    1e9a:	5a 95       	dec	r21
    1e9c:	a9 f7       	brne	.-22     	; 0x1e88 <__udivmodhi4_loop>
    1e9e:	80 95       	com	r24
    1ea0:	90 95       	com	r25
    1ea2:	bc 01       	movw	r22, r24
    1ea4:	cd 01       	movw	r24, r26
    1ea6:	08 95       	ret

00001ea8 <_exit>:
    1ea8:	f8 94       	cli

00001eaa <__stop_program>:
    1eaa:	ff cf       	rjmp	.-2      	; 0x1eaa <__stop_program>
