
usb_new.elf:     file format elf32-avr

Sections:
Idx Name          Size      VMA       LMA       File off  Algn
  0 .data         00000026  00800100  00002574  00002608  2**0
                  CONTENTS, ALLOC, LOAD, DATA
  1 .text         00002574  00000000  00000000  00000094  2**1
                  CONTENTS, ALLOC, LOAD, READONLY, CODE
  2 .bss          00000201  00800126  00800126  0000262e  2**0
                  ALLOC
  3 .debug_aranges 00000080  00000000  00000000  0000262e  2**0
                  CONTENTS, READONLY, DEBUGGING
  4 .debug_pubnames 00000536  00000000  00000000  000026ae  2**0
                  CONTENTS, READONLY, DEBUGGING
  5 .debug_info   00003c43  00000000  00000000  00002be4  2**0
                  CONTENTS, READONLY, DEBUGGING
  6 .debug_abbrev 00000946  00000000  00000000  00006827  2**0
                  CONTENTS, READONLY, DEBUGGING
  7 .debug_line   00001f75  00000000  00000000  0000716d  2**0
                  CONTENTS, READONLY, DEBUGGING
  8 .debug_frame  00000410  00000000  00000000  000090e4  2**2
                  CONTENTS, READONLY, DEBUGGING
  9 .debug_str    00000b8c  00000000  00000000  000094f4  2**0
                  CONTENTS, READONLY, DEBUGGING
 10 .debug_loc    0000239f  00000000  00000000  0000a080  2**0
                  CONTENTS, READONLY, DEBUGGING
 11 .debug_ranges 000005e8  00000000  00000000  0000c41f  2**0
                  CONTENTS, READONLY, DEBUGGING

Disassembly of section .text:

00000000 <__vectors>:
       0:	0c 94 46 00 	jmp	0x8c	; 0x8c <__ctors_end>
       4:	0c 94 65 00 	jmp	0xca	; 0xca <__bad_interrupt>
       8:	0c 94 65 00 	jmp	0xca	; 0xca <__bad_interrupt>
       c:	0c 94 65 00 	jmp	0xca	; 0xca <__bad_interrupt>
      10:	0c 94 65 00 	jmp	0xca	; 0xca <__bad_interrupt>
      14:	0c 94 65 00 	jmp	0xca	; 0xca <__bad_interrupt>
      18:	0c 94 65 00 	jmp	0xca	; 0xca <__bad_interrupt>
      1c:	0c 94 65 00 	jmp	0xca	; 0xca <__bad_interrupt>
      20:	0c 94 65 00 	jmp	0xca	; 0xca <__bad_interrupt>
      24:	0c 94 65 00 	jmp	0xca	; 0xca <__bad_interrupt>
      28:	0c 94 65 00 	jmp	0xca	; 0xca <__bad_interrupt>
      2c:	0c 94 65 00 	jmp	0xca	; 0xca <__bad_interrupt>
      30:	0c 94 65 00 	jmp	0xca	; 0xca <__bad_interrupt>
      34:	0c 94 65 00 	jmp	0xca	; 0xca <__bad_interrupt>
      38:	0c 94 65 00 	jmp	0xca	; 0xca <__bad_interrupt>
      3c:	0c 94 65 00 	jmp	0xca	; 0xca <__bad_interrupt>
      40:	0c 94 65 00 	jmp	0xca	; 0xca <__bad_interrupt>
      44:	0c 94 65 00 	jmp	0xca	; 0xca <__bad_interrupt>
      48:	0c 94 65 00 	jmp	0xca	; 0xca <__bad_interrupt>
      4c:	0c 94 0c 10 	jmp	0x2018	; 0x2018 <__vector_19>
      50:	0c 94 65 00 	jmp	0xca	; 0xca <__bad_interrupt>
      54:	0c 94 65 00 	jmp	0xca	; 0xca <__bad_interrupt>
      58:	0c 94 65 00 	jmp	0xca	; 0xca <__bad_interrupt>
      5c:	0c 94 65 00 	jmp	0xca	; 0xca <__bad_interrupt>
      60:	0c 94 65 00 	jmp	0xca	; 0xca <__bad_interrupt>
      64:	0c 94 65 00 	jmp	0xca	; 0xca <__bad_interrupt>
      68:	0c 94 65 00 	jmp	0xca	; 0xca <__bad_interrupt>
      6c:	0c 94 65 00 	jmp	0xca	; 0xca <__bad_interrupt>
      70:	0c 94 65 00 	jmp	0xca	; 0xca <__bad_interrupt>
      74:	0c 94 65 00 	jmp	0xca	; 0xca <__bad_interrupt>
      78:	0c 94 65 00 	jmp	0xca	; 0xca <__bad_interrupt>
      7c:	0c 94 48 10 	jmp	0x2090	; 0x2090 <__vector_31>
      80:	0c 94 65 00 	jmp	0xca	; 0xca <__bad_interrupt>
      84:	0c 94 65 00 	jmp	0xca	; 0xca <__bad_interrupt>
      88:	0c 94 65 00 	jmp	0xca	; 0xca <__bad_interrupt>

0000008c <__ctors_end>:
      8c:	11 24       	eor	r1, r1
      8e:	1f be       	out	0x3f, r1	; 63
      90:	cf ef       	ldi	r28, 0xFF	; 255
      92:	d0 e1       	ldi	r29, 0x10	; 16
      94:	de bf       	out	0x3e, r29	; 62
      96:	cd bf       	out	0x3d, r28	; 61

00000098 <__do_copy_data>:
      98:	11 e0       	ldi	r17, 0x01	; 1
      9a:	a0 e0       	ldi	r26, 0x00	; 0
      9c:	b1 e0       	ldi	r27, 0x01	; 1
      9e:	e4 e7       	ldi	r30, 0x74	; 116
      a0:	f5 e2       	ldi	r31, 0x25	; 37
      a2:	00 e0       	ldi	r16, 0x00	; 0
      a4:	0b bf       	out	0x3b, r16	; 59
      a6:	02 c0       	rjmp	.+4      	; 0xac <__do_copy_data+0x14>
      a8:	07 90       	elpm	r0, Z+
      aa:	0d 92       	st	X+, r0
      ac:	a6 32       	cpi	r26, 0x26	; 38
      ae:	b1 07       	cpc	r27, r17
      b0:	d9 f7       	brne	.-10     	; 0xa8 <__do_copy_data+0x10>

000000b2 <__do_clear_bss>:
      b2:	13 e0       	ldi	r17, 0x03	; 3
      b4:	a6 e2       	ldi	r26, 0x26	; 38
      b6:	b1 e0       	ldi	r27, 0x01	; 1
      b8:	01 c0       	rjmp	.+2      	; 0xbc <.do_clear_bss_start>

000000ba <.do_clear_bss_loop>:
      ba:	1d 92       	st	X+, r1

000000bc <.do_clear_bss_start>:
      bc:	a7 32       	cpi	r26, 0x27	; 39
      be:	b1 07       	cpc	r27, r17
      c0:	e1 f7       	brne	.-8      	; 0xba <.do_clear_bss_loop>
      c2:	0e 94 fa 09 	call	0x13f4	; 0x13f4 <main>
      c6:	0c 94 b8 12 	jmp	0x2570	; 0x2570 <_exit>

000000ca <__bad_interrupt>:
      ca:	0c 94 00 00 	jmp	0	; 0x0 <__vectors>

000000ce <initialize>:

//以下関数

void initialize(void)//IO_SETING
{
	DDRD = 0xFE;//PD1~7-->OUT
      ce:	8e ef       	ldi	r24, 0xFE	; 254
      d0:	81 bb       	out	0x11, r24	; 17
	PORTD = 0x82;//PD 1000 001*
      d2:	82 e8       	ldi	r24, 0x82	; 130
      d4:	82 bb       	out	0x12, r24	; 18
	DDRE = 0x02;
      d6:	82 e0       	ldi	r24, 0x02	; 2
      d8:	82 b9       	out	0x02, r24	; 2
	DDRF = 0x00;
      da:	10 92 61 00 	sts	0x0061, r1
	PORTF = 0xFF;
      de:	8f ef       	ldi	r24, 0xFF	; 255
      e0:	80 93 62 00 	sts	0x0062, r24
}
      e4:	08 95       	ret

000000e6 <mem_init>:

void mem_init(void)//XMEM_SETING
{
	MCUCR |= _BV(SRE) | _BV(SRW10);//XMEM_PARMISSION
      e6:	85 b7       	in	r24, 0x35	; 53
      e8:	80 6c       	ori	r24, 0xC0	; 192
      ea:	85 bf       	out	0x35, r24	; 53
	XMCRA |= _BV(SRW11) | _BV(SRW00) | _BV(SRW01);//(High&Low)WAIT2+LOCK1
      ec:	ed e6       	ldi	r30, 0x6D	; 109
      ee:	f0 e0       	ldi	r31, 0x00	; 0
      f0:	80 81       	ld	r24, Z
      f2:	8e 60       	ori	r24, 0x0E	; 14
      f4:	80 83       	st	Z, r24
	XMCRB |= _BV(XMBK);//BUS_KEEPE
      f6:	ec e6       	ldi	r30, 0x6C	; 108
      f8:	f0 e0       	ldi	r31, 0x00	; 0
      fa:	80 81       	ld	r24, Z
      fc:	80 68       	ori	r24, 0x80	; 128
      fe:	80 83       	st	Z, r24
}
     100:	08 95       	ret

00000102 <sl811_init>:
/// <summary>
/// SL811HSTの初期化
/// </summary>
void sl811_init(void)
{
	__sl811_addr = (volatile unsigned char *)0x8000;
     102:	80 e0       	ldi	r24, 0x00	; 0
     104:	90 e8       	ldi	r25, 0x80	; 128
     106:	90 93 c4 02 	sts	0x02C4, r25
     10a:	80 93 c3 02 	sts	0x02C3, r24
	__sl811_data = (volatile unsigned char *)0xC000;
     10e:	80 e0       	ldi	r24, 0x00	; 0
     110:	90 ec       	ldi	r25, 0xC0	; 192
     112:	90 93 d6 02 	sts	0x02D6, r25
     116:	80 93 d5 02 	sts	0x02D5, r24
}
     11a:	08 95       	ret

0000011c <sl811_read>:
/// </summary>
unsigned char sl811_read(const unsigned char offset)
{
	unsigned char data;

	*(__sl811_addr) = offset;
     11c:	e0 91 c3 02 	lds	r30, 0x02C3
     120:	f0 91 c4 02 	lds	r31, 0x02C4
     124:	80 83       	st	Z, r24
    can be achieved.
*/
void
_delay_loop_1(uint8_t __count)
{
	__asm__ volatile (
     126:	92 e3       	ldi	r25, 0x32	; 50
     128:	89 2f       	mov	r24, r25
     12a:	8a 95       	dec	r24
     12c:	f1 f7       	brne	.-4      	; 0x12a <sl811_read+0xe>
	DELAY;
	data = *(__sl811_data);
     12e:	e0 91 d5 02 	lds	r30, 0x02D5
     132:	f0 91 d6 02 	lds	r31, 0x02D6
     136:	80 81       	ld	r24, Z
     138:	9a 95       	dec	r25
     13a:	f1 f7       	brne	.-4      	; 0x138 <sl811_read+0x1c>
	DELAY;

	return data;
}
     13c:	08 95       	ret

0000013e <sl811_write>:
/// <summary>
/// SL811HST専用レジスタへの書き込み
/// </summary>
void sl811_write(const unsigned char offset, const unsigned char data)
{
	*(__sl811_addr) = offset;
     13e:	e0 91 c3 02 	lds	r30, 0x02C3
     142:	f0 91 c4 02 	lds	r31, 0x02C4
     146:	80 83       	st	Z, r24
     148:	82 e3       	ldi	r24, 0x32	; 50
     14a:	98 2f       	mov	r25, r24
     14c:	9a 95       	dec	r25
     14e:	f1 f7       	brne	.-4      	; 0x14c <sl811_write+0xe>
	DELAY;
	*(__sl811_data) = data;
     150:	e0 91 d5 02 	lds	r30, 0x02D5
     154:	f0 91 d6 02 	lds	r31, 0x02D6
     158:	60 83       	st	Z, r22
     15a:	8a 95       	dec	r24
     15c:	f1 f7       	brne	.-4      	; 0x15a <sl811_write+0x1c>
	DELAY;
}
     15e:	08 95       	ret

00000160 <sl811_buf_read>:

/// <summary>
/// SL811HST FIFOメモリ・バッファからのブロック・データ読み込み
/// </summary>
void sl811_buf_read(const unsigned char offset, unsigned char *buf, int size)
{
     160:	db 01       	movw	r26, r22
	if(size <= 0)	return;
     162:	14 16       	cp	r1, r20
     164:	15 06       	cpc	r1, r21
     166:	cc f4       	brge	.+50     	; 0x19a <sl811_buf_read+0x3a>
	
	*(__sl811_addr) = offset;
     168:	e0 91 c3 02 	lds	r30, 0x02C3
     16c:	f0 91 c4 02 	lds	r31, 0x02C4
     170:	80 83       	st	Z, r24
     172:	82 e3       	ldi	r24, 0x32	; 50
     174:	8a 95       	dec	r24
     176:	f1 f7       	brne	.-4      	; 0x174 <sl811_buf_read+0x14>
	DELAY;

	while( size-- ){
		 *buf = *(__sl811_data);
     178:	92 e3       	ldi	r25, 0x32	; 50
     17a:	09 c0       	rjmp	.+18     	; 0x18e <sl811_buf_read+0x2e>
     17c:	e0 91 d5 02 	lds	r30, 0x02D5
     180:	f0 91 d6 02 	lds	r31, 0x02D6
     184:	80 81       	ld	r24, Z
     186:	8d 93       	st	X+, r24
     188:	89 2f       	mov	r24, r25
     18a:	8a 95       	dec	r24
     18c:	f1 f7       	brne	.-4      	; 0x18a <sl811_buf_read+0x2a>
	if(size <= 0)	return;
	
	*(__sl811_addr) = offset;
	DELAY;

	while( size-- ){
     18e:	41 50       	subi	r20, 0x01	; 1
     190:	50 40       	sbci	r21, 0x00	; 0
     192:	8f ef       	ldi	r24, 0xFF	; 255
     194:	4f 3f       	cpi	r20, 0xFF	; 255
     196:	58 07       	cpc	r21, r24
     198:	89 f7       	brne	.-30     	; 0x17c <sl811_buf_read+0x1c>
     19a:	08 95       	ret

0000019c <sl811_buf_write>:

/// <summary>
/// SL811HST FIFOメモリ・バッファへブロック・データ書き込み
/// </summary>
void sl811_buf_write(const unsigned char offset, const unsigned char *buf, int size)
{
     19c:	db 01       	movw	r26, r22
	if(size <= 0)	return;
     19e:	14 16       	cp	r1, r20
     1a0:	15 06       	cpc	r1, r21
     1a2:	cc f4       	brge	.+50     	; 0x1d6 <sl811_buf_write+0x3a>
	
	*(__sl811_addr) = offset;
     1a4:	e0 91 c3 02 	lds	r30, 0x02C3
     1a8:	f0 91 c4 02 	lds	r31, 0x02C4
     1ac:	80 83       	st	Z, r24
     1ae:	82 e3       	ldi	r24, 0x32	; 50
     1b0:	8a 95       	dec	r24
     1b2:	f1 f7       	brne	.-4      	; 0x1b0 <sl811_buf_write+0x14>
	DELAY;

	while( size-- ){
		*(__sl811_data) = *buf;
     1b4:	92 e3       	ldi	r25, 0x32	; 50
     1b6:	09 c0       	rjmp	.+18     	; 0x1ca <sl811_buf_write+0x2e>
     1b8:	e0 91 d5 02 	lds	r30, 0x02D5
     1bc:	f0 91 d6 02 	lds	r31, 0x02D6
     1c0:	8d 91       	ld	r24, X+
     1c2:	80 83       	st	Z, r24
     1c4:	89 2f       	mov	r24, r25
     1c6:	8a 95       	dec	r24
     1c8:	f1 f7       	brne	.-4      	; 0x1c6 <sl811_buf_write+0x2a>
	if(size <= 0)	return;
	
	*(__sl811_addr) = offset;
	DELAY;

	while( size-- ){
     1ca:	41 50       	subi	r20, 0x01	; 1
     1cc:	50 40       	sbci	r21, 0x00	; 0
     1ce:	8f ef       	ldi	r24, 0xFF	; 255
     1d0:	4f 3f       	cpi	r20, 0xFF	; 255
     1d2:	58 07       	cpc	r21, r24
     1d4:	89 f7       	brne	.-30     	; 0x1b8 <sl811_buf_write+0x1c>
     1d6:	08 95       	ret

000001d8 <SL811WriteData>:
/// <returns>
/// 正常終了時 : 送信したデータのサイズ
/// 不正終了時 : SL811_HANDSHAKE_NAK [-1] もしくは SL811_HANDSHAKE_STALL [-2]
/// </returns>
int SL811WriteData(SL811USBDevInfo *d, unsigned char *data, int size, int flag)
{
     1d8:	2f 92       	push	r2
     1da:	3f 92       	push	r3
     1dc:	4f 92       	push	r4
     1de:	5f 92       	push	r5
     1e0:	6f 92       	push	r6
     1e2:	7f 92       	push	r7
     1e4:	8f 92       	push	r8
     1e6:	9f 92       	push	r9
     1e8:	af 92       	push	r10
     1ea:	bf 92       	push	r11
     1ec:	cf 92       	push	r12
     1ee:	df 92       	push	r13
     1f0:	ef 92       	push	r14
     1f2:	ff 92       	push	r15
     1f4:	0f 93       	push	r16
     1f6:	1f 93       	push	r17
     1f8:	cf 93       	push	r28
     1fa:	df 93       	push	r29
     1fc:	ec 01       	movw	r28, r24
     1fe:	4b 01       	movw	r8, r22
     200:	8a 01       	movw	r16, r20
	int remain, wsiz, timeovr, retry;
	
	// 未処理のデータ数
	remain = size;

	retry = d->retry;
     202:	8b 81       	ldd	r24, Y+3	; 0x03
     204:	68 2e       	mov	r6, r24
     206:	77 24       	eor	r7, r7
	d->wr_cmd |= d->pre;
     208:	8c 81       	ldd	r24, Y+4	; 0x04
     20a:	9e 81       	ldd	r25, Y+6	; 0x06
     20c:	89 2b       	or	r24, r25
     20e:	8c 83       	std	Y+4, r24	; 0x04
/// <summary>
/// SL811HST専用レジスタへの書き込み
/// </summary>
void sl811_write(const unsigned char offset, const unsigned char data)
{
	*(__sl811_addr) = offset;
     210:	e0 91 c3 02 	lds	r30, 0x02C3
     214:	f0 91 c4 02 	lds	r31, 0x02C4
     218:	81 e0       	ldi	r24, 0x01	; 1
     21a:	80 83       	st	Z, r24
     21c:	92 e3       	ldi	r25, 0x32	; 50
     21e:	89 2f       	mov	r24, r25
     220:	8a 95       	dec	r24
     222:	f1 f7       	brne	.-4      	; 0x220 <SL811WriteData+0x48>
	DELAY;
	*(__sl811_data) = data;
     224:	e0 91 d5 02 	lds	r30, 0x02D5
     228:	f0 91 d6 02 	lds	r31, 0x02D6
     22c:	80 e1       	ldi	r24, 0x10	; 16
     22e:	80 83       	st	Z, r24
     230:	89 2f       	mov	r24, r25
     232:	8a 95       	dec	r24
     234:	f1 f7       	brne	.-4      	; 0x232 <SL811WriteData+0x5a>
	
	// USB FIFOメモリバッファの先頭アドレスの指定
	sl811_write(SL811H_HOSTBASEADDR_A, SL811H_MEMBUF_BGN);

	// 対象となるUSBデバイスのアドレスの指定
	sl811_write(SL811H_HOSTDEVADDR_A, d->addr);
     236:	48 81       	ld	r20, Y
/// <summary>
/// SL811HST専用レジスタへの書き込み
/// </summary>
void sl811_write(const unsigned char offset, const unsigned char data)
{
	*(__sl811_addr) = offset;
     238:	e0 91 c3 02 	lds	r30, 0x02C3
     23c:	f0 91 c4 02 	lds	r31, 0x02C4
     240:	84 e0       	ldi	r24, 0x04	; 4
     242:	80 83       	st	Z, r24
     244:	89 2f       	mov	r24, r25
     246:	8a 95       	dec	r24
     248:	f1 f7       	brne	.-4      	; 0x246 <SL811WriteData+0x6e>
	DELAY;
	*(__sl811_data) = data;
     24a:	e0 91 d5 02 	lds	r30, 0x02D5
     24e:	f0 91 d6 02 	lds	r31, 0x02D6
     252:	40 83       	st	Z, r20
     254:	9a 95       	dec	r25
     256:	f1 f7       	brne	.-4      	; 0x254 <SL811WriteData+0x7c>

	// 対象となるUSBデバイスのアドレスの指定
	sl811_write(SL811H_HOSTDEVADDR_A, d->addr);

	// パケット種別(OUT/SETUP)エンドポイント番号の指定
	sl811_write(SL811H_PIDDEVENDPT_A, (flag == SL811WRITE_SETUP) ? PID_SETUP : (PID_OUT | d->ep));
     258:	21 30       	cpi	r18, 0x01	; 1
     25a:	31 05       	cpc	r19, r1
     25c:	11 f4       	brne	.+4      	; 0x262 <SL811WriteData+0x8a>
     25e:	20 ed       	ldi	r18, 0xD0	; 208
     260:	02 c0       	rjmp	.+4      	; 0x266 <SL811WriteData+0x8e>
     262:	29 81       	ldd	r18, Y+1	; 0x01
     264:	20 61       	ori	r18, 0x10	; 16
/// <summary>
/// SL811HST専用レジスタへの書き込み
/// </summary>
void sl811_write(const unsigned char offset, const unsigned char data)
{
	*(__sl811_addr) = offset;
     266:	e0 91 c3 02 	lds	r30, 0x02C3
     26a:	f0 91 c4 02 	lds	r31, 0x02C4
     26e:	83 e0       	ldi	r24, 0x03	; 3
     270:	80 83       	st	Z, r24
     272:	82 e3       	ldi	r24, 0x32	; 50
     274:	98 2f       	mov	r25, r24
     276:	9a 95       	dec	r25
     278:	f1 f7       	brne	.-4      	; 0x276 <SL811WriteData+0x9e>
	DELAY;
	*(__sl811_data) = data;
     27a:	e0 91 d5 02 	lds	r30, 0x02D5
     27e:	f0 91 d6 02 	lds	r31, 0x02D6
     282:	20 83       	st	Z, r18
     284:	8a 95       	dec	r24
     286:	f1 f7       	brne	.-4      	; 0x284 <SL811WriteData+0xac>
     288:	78 01       	movw	r14, r16
    milliseconds can be achieved.
 */
void
_delay_loop_2(uint16_t __count)
{
	__asm__ volatile (
     28a:	32 e3       	ldi	r19, 0x32	; 50
     28c:	b3 2e       	mov	r11, r19
     28e:	20 e5       	ldi	r18, 0x50	; 80
     290:	22 2e       	mov	r2, r18
     292:	23 ec       	ldi	r18, 0xC3	; 195
     294:	32 2e       	mov	r3, r18
    can be achieved.
*/
void
_delay_loop_1(uint8_t __count)
{
	__asm__ volatile (
     296:	92 e3       	ldi	r25, 0x32	; 50
     298:	a9 2e       	mov	r10, r25
    milliseconds can be achieved.
 */
void
_delay_loop_2(uint16_t __count)
{
	__asm__ volatile (
     29a:	82 ee       	ldi	r24, 0xE2	; 226
     29c:	48 2e       	mov	r4, r24
     29e:	84 e0       	ldi	r24, 0x04	; 4
     2a0:	58 2e       	mov	r5, r24
	// パケット種別(OUT/SETUP)エンドポイント番号の指定
	sl811_write(SL811H_PIDDEVENDPT_A, (flag == SL811WRITE_SETUP) ? PID_SETUP : (PID_OUT | d->ep));

	do{
		// 1つのパケットで送信するデータ数を算出
		wsiz = (remain > d->epsize) ? d->epsize : remain;
     2a2:	8a 81       	ldd	r24, Y+2	; 0x02
     2a4:	90 e0       	ldi	r25, 0x00	; 0
     2a6:	67 01       	movw	r12, r14
     2a8:	8e 15       	cp	r24, r14
     2aa:	9f 05       	cpc	r25, r15
     2ac:	0c f4       	brge	.+2      	; 0x2b0 <SL811WriteData+0xd8>
     2ae:	6c 01       	movw	r12, r24

		// 送信データがある場合は、USB FIFOメモリバッファへ転送する
		if( data != NULL && size > 0 )
     2b0:	81 14       	cp	r8, r1
     2b2:	91 04       	cpc	r9, r1
     2b4:	61 f0       	breq	.+24     	; 0x2ce <SL811WriteData+0xf6>
     2b6:	10 16       	cp	r1, r16
     2b8:	11 06       	cpc	r1, r17
     2ba:	4c f4       	brge	.+18     	; 0x2ce <SL811WriteData+0xf6>
			sl811_buf_write(SL811H_MEMBUF_BGN, &data[size - remain], wsiz);
     2bc:	b8 01       	movw	r22, r16
     2be:	6e 19       	sub	r22, r14
     2c0:	7f 09       	sbc	r23, r15
     2c2:	68 0d       	add	r22, r8
     2c4:	79 1d       	adc	r23, r9
     2c6:	80 e1       	ldi	r24, 0x10	; 16
     2c8:	a6 01       	movw	r20, r12
     2ca:	0e 94 ce 00 	call	0x19c	; 0x19c <sl811_buf_write>
/// <summary>
/// SL811HST専用レジスタへの書き込み
/// </summary>
void sl811_write(const unsigned char offset, const unsigned char data)
{
	*(__sl811_addr) = offset;
     2ce:	e0 91 c3 02 	lds	r30, 0x02C3
     2d2:	f0 91 c4 02 	lds	r31, 0x02C4
     2d6:	82 e0       	ldi	r24, 0x02	; 2
     2d8:	80 83       	st	Z, r24
    can be achieved.
*/
void
_delay_loop_1(uint8_t __count)
{
	__asm__ volatile (
     2da:	8b 2d       	mov	r24, r11
     2dc:	8a 95       	dec	r24
     2de:	f1 f7       	brne	.-4      	; 0x2dc <SL811WriteData+0x104>
	DELAY;
	*(__sl811_data) = data;
     2e0:	e0 91 d5 02 	lds	r30, 0x02D5
     2e4:	f0 91 d6 02 	lds	r31, 0x02D6
     2e8:	c0 82       	st	Z, r12
     2ea:	8b 2d       	mov	r24, r11
     2ec:	8a 95       	dec	r24
     2ee:	f1 f7       	brne	.-4      	; 0x2ec <SL811WriteData+0x114>
     2f0:	20 e0       	ldi	r18, 0x00	; 0
     2f2:	30 e0       	ldi	r19, 0x00	; 0
     2f4:	4a c0       	rjmp	.+148    	; 0x38a <SL811WriteData+0x1b2>
		// USBデバイスがNAKの場合、再度USBデータ送信をする
		for( timeovr=0; timeovr<retry; timeovr++ )
		{

			// USB_AからUSB FIFOメモリバッファの内容を送信する
			sl811_write(SL811H_HOSTCTLREG_A, d->wr_cmd);
     2f6:	8c 81       	ldd	r24, Y+4	; 0x04
/// <summary>
/// SL811HST専用レジスタへの書き込み
/// </summary>
void sl811_write(const unsigned char offset, const unsigned char data)
{
	*(__sl811_addr) = offset;
     2f8:	e0 91 c3 02 	lds	r30, 0x02C3
     2fc:	f0 91 c4 02 	lds	r31, 0x02C4
     300:	10 82       	st	Z, r1
     302:	9b 2d       	mov	r25, r11
     304:	9a 95       	dec	r25
     306:	f1 f7       	brne	.-4      	; 0x304 <SL811WriteData+0x12c>
	DELAY;
	*(__sl811_data) = data;
     308:	e0 91 d5 02 	lds	r30, 0x02D5
     30c:	f0 91 d6 02 	lds	r31, 0x02D6
     310:	80 83       	st	Z, r24
     312:	8b 2d       	mov	r24, r11
     314:	8a 95       	dec	r24
     316:	f1 f7       	brne	.-4      	; 0x314 <SL811WriteData+0x13c>
    milliseconds can be achieved.
 */
void
_delay_loop_2(uint16_t __count)
{
	__asm__ volatile (
     318:	c1 01       	movw	r24, r2
     31a:	01 97       	sbiw	r24, 0x01	; 1
     31c:	f1 f7       	brne	.-4      	; 0x31a <SL811WriteData+0x142>
/// </summary>
unsigned char sl811_read(const unsigned char offset)
{
	unsigned char data;

	*(__sl811_addr) = offset;
     31e:	e0 91 c3 02 	lds	r30, 0x02C3
     322:	f0 91 c4 02 	lds	r31, 0x02C4
     326:	9d e0       	ldi	r25, 0x0D	; 13
     328:	90 83       	st	Z, r25
    can be achieved.
*/
void
_delay_loop_1(uint8_t __count)
{
	__asm__ volatile (
     32a:	8b 2d       	mov	r24, r11
     32c:	8a 95       	dec	r24
     32e:	f1 f7       	brne	.-4      	; 0x32c <SL811WriteData+0x154>
	DELAY;
	data = *(__sl811_data);
     330:	e0 91 d5 02 	lds	r30, 0x02D5
     334:	f0 91 d6 02 	lds	r31, 0x02D6
     338:	80 81       	ld	r24, Z
     33a:	9b 2d       	mov	r25, r11
     33c:	9a 95       	dec	r25
     33e:	f1 f7       	brne	.-4      	; 0x33c <SL811WriteData+0x164>
			sl811_write(SL811H_HOSTCTLREG_A, d->wr_cmd);

			_delay_ms(200);

			// USB_Aの送信が完了するまで待つ
			while( (sl811_read(SL811H_INTSTATUSREG) & SL811H_INTMASK_XFERDONE_A) == 0 );
     340:	80 ff       	sbrs	r24, 0
     342:	ed cf       	rjmp	.-38     	; 0x31e <SL811WriteData+0x146>
/// </summary>
unsigned char sl811_read(const unsigned char offset)
{
	unsigned char data;

	*(__sl811_addr) = offset;
     344:	e0 91 c3 02 	lds	r30, 0x02C3
     348:	f0 91 c4 02 	lds	r31, 0x02C4
     34c:	83 e0       	ldi	r24, 0x03	; 3
     34e:	80 83       	st	Z, r24
     350:	8a 2d       	mov	r24, r10
     352:	8a 95       	dec	r24
     354:	f1 f7       	brne	.-4      	; 0x352 <SL811WriteData+0x17a>
	DELAY;
	data = *(__sl811_data);
     356:	e0 91 d5 02 	lds	r30, 0x02D5
     35a:	f0 91 d6 02 	lds	r31, 0x02D6
     35e:	80 81       	ld	r24, Z
     360:	9a 2d       	mov	r25, r10
     362:	9a 95       	dec	r25
     364:	f1 f7       	brne	.-4      	; 0x362 <SL811WriteData+0x18a>

			// USB_Aの送信が完了するまで待つ
			while( (sl811_read(SL811H_INTSTATUSREG) & SL811H_INTMASK_XFERDONE_A) == 0 );

			// USB_Aのパケット送信状態を読み込む
			pktstatus = sl811_read(SL811H_USBSTATUS_A);
     366:	80 93 26 01 	sts	0x0126, r24

			// USBデバイスがSTALLの場合はエラー終了
			if( pktstatus & SL811H_STATUSMASK_STALL )
     36a:	80 91 26 01 	lds	r24, 0x0126
     36e:	87 ff       	sbrs	r24, 7
     370:	03 c0       	rjmp	.+6      	; 0x378 <SL811WriteData+0x1a0>
     372:	0e ef       	ldi	r16, 0xFE	; 254
     374:	1f ef       	ldi	r17, 0xFF	; 255
     376:	1e c0       	rjmp	.+60     	; 0x3b4 <SL811WriteData+0x1dc>
///**/				DBG("!!! READ STALL !!!\n");

				return SL811_HANDSHAKE_STALL;
			}
			// USBデバイスからACKが返ってくれば、ループを抜ける
			if( pktstatus & SL811H_STATUSMASK_ACK )	break;
     378:	80 91 26 01 	lds	r24, 0x0126
     37c:	80 fd       	sbrc	r24, 0
     37e:	09 c0       	rjmp	.+18     	; 0x392 <SL811WriteData+0x1ba>
    milliseconds can be achieved.
 */
void
_delay_loop_2(uint16_t __count)
{
	__asm__ volatile (
     380:	c2 01       	movw	r24, r4
     382:	01 97       	sbiw	r24, 0x01	; 1
     384:	f1 f7       	brne	.-4      	; 0x382 <SL811WriteData+0x1aa>
		
		// 送信データの大きさをセット
		sl811_write(SL811H_HOSTBASELNG_A, wsiz);

		// USBデバイスがNAKの場合、再度USBデータ送信をする
		for( timeovr=0; timeovr<retry; timeovr++ )
     386:	2f 5f       	subi	r18, 0xFF	; 255
     388:	3f 4f       	sbci	r19, 0xFF	; 255
     38a:	26 15       	cp	r18, r6
     38c:	37 05       	cpc	r19, r7
     38e:	0c f4       	brge	.+2      	; 0x392 <SL811WriteData+0x1ba>
     390:	b2 cf       	rjmp	.-156    	; 0x2f6 <SL811WriteData+0x11e>
			// リトライの場合は5ms待つ
			_delay_ms(5);			
		}

		// USBデータ送信の結果がリトライをしてもACKでない場合は、エラー終了
		if( !(pktstatus & SL811H_STATUSMASK_ACK) )
     392:	80 91 26 01 	lds	r24, 0x0126
     396:	80 fd       	sbrc	r24, 0
     398:	03 c0       	rjmp	.+6      	; 0x3a0 <SL811WriteData+0x1c8>
     39a:	0f ef       	ldi	r16, 0xFF	; 255
     39c:	1f ef       	ldi	r17, 0xFF	; 255
     39e:	0a c0       	rjmp	.+20     	; 0x3b4 <SL811WriteData+0x1dc>

			return SL811_HANDSHAKE_NAK;
		}
		
		// 処理済みのデータ数を差し引く
		remain -= wsiz;
     3a0:	ec 18       	sub	r14, r12
     3a2:	fd 08       	sbc	r15, r13

		// データパケットのトグルを行う
		d->wr_cmd ^= TOGGLE;
     3a4:	8c 81       	ldd	r24, Y+4	; 0x04
     3a6:	90 e4       	ldi	r25, 0x40	; 64
     3a8:	89 27       	eor	r24, r25
     3aa:	8c 83       	std	Y+4, r24	; 0x04
	}while( remain>0 );	// 残りデータがある間、繰り返す
     3ac:	1e 14       	cp	r1, r14
     3ae:	1f 04       	cpc	r1, r15
     3b0:	0c f4       	brge	.+2      	; 0x3b4 <SL811WriteData+0x1dc>
     3b2:	77 cf       	rjmp	.-274    	; 0x2a2 <SL811WriteData+0xca>

	return size;	// USBデータ送信したサイズを返す
}
     3b4:	c8 01       	movw	r24, r16
     3b6:	df 91       	pop	r29
     3b8:	cf 91       	pop	r28
     3ba:	1f 91       	pop	r17
     3bc:	0f 91       	pop	r16
     3be:	ff 90       	pop	r15
     3c0:	ef 90       	pop	r14
     3c2:	df 90       	pop	r13
     3c4:	cf 90       	pop	r12
     3c6:	bf 90       	pop	r11
     3c8:	af 90       	pop	r10
     3ca:	9f 90       	pop	r9
     3cc:	8f 90       	pop	r8
     3ce:	7f 90       	pop	r7
     3d0:	6f 90       	pop	r6
     3d2:	5f 90       	pop	r5
     3d4:	4f 90       	pop	r4
     3d6:	3f 90       	pop	r3
     3d8:	2f 90       	pop	r2
     3da:	08 95       	ret

000003dc <SL811ReadData>:
/// <returns>
/// 正常終了時 : 受信したデータのサイズ
/// 不正終了時 : SL811_HANDSHAKE_NAK [-1] もしくは SL811_HANDSHAKE_STALL [-2]
/// </returns>
int SL811ReadData(SL811USBDevInfo *d, unsigned char *data, int size)
{
     3dc:	2f 92       	push	r2
     3de:	3f 92       	push	r3
     3e0:	4f 92       	push	r4
     3e2:	5f 92       	push	r5
     3e4:	6f 92       	push	r6
     3e6:	7f 92       	push	r7
     3e8:	8f 92       	push	r8
     3ea:	9f 92       	push	r9
     3ec:	af 92       	push	r10
     3ee:	bf 92       	push	r11
     3f0:	cf 92       	push	r12
     3f2:	df 92       	push	r13
     3f4:	ef 92       	push	r14
     3f6:	ff 92       	push	r15
     3f8:	0f 93       	push	r16
     3fa:	1f 93       	push	r17
     3fc:	cf 93       	push	r28
     3fe:	df 93       	push	r29
     400:	8c 01       	movw	r16, r24
     402:	2b 01       	movw	r4, r22
     404:	4a 01       	movw	r8, r20
	
	// 未処理のデータ数
	remain = size;

	// USBデバイスがNAKのときのリトライ回数
	maxretry = d->retry;
     406:	fc 01       	movw	r30, r24
     408:	83 81       	ldd	r24, Z+3	; 0x03
     40a:	28 2e       	mov	r2, r24
     40c:	33 24       	eor	r3, r3

	// 短い待ち時間でのリトライ回数
	minretry = (maxretry <= 7) ? maxretry : maxretry / 3;

	d->rd_cmd |= d->pre;
     40e:	85 81       	ldd	r24, Z+5	; 0x05
     410:	96 81       	ldd	r25, Z+6	; 0x06
     412:	89 2b       	or	r24, r25
     414:	85 83       	std	Z+5, r24	; 0x05

	// 対象となるUSBデバイスアドレスの指定
	sl811_write(SL811H_HOSTDEVADDR_B, d->addr);
     416:	90 81       	ld	r25, Z
/// <summary>
/// SL811HST専用レジスタへの書き込み
/// </summary>
void sl811_write(const unsigned char offset, const unsigned char data)
{
	*(__sl811_addr) = offset;
     418:	e0 91 c3 02 	lds	r30, 0x02C3
     41c:	f0 91 c4 02 	lds	r31, 0x02C4
     420:	8c e0       	ldi	r24, 0x0C	; 12
     422:	80 83       	st	Z, r24
    can be achieved.
*/
void
_delay_loop_1(uint8_t __count)
{
	__asm__ volatile (
     424:	22 e3       	ldi	r18, 0x32	; 50
     426:	82 2f       	mov	r24, r18
     428:	8a 95       	dec	r24
     42a:	f1 f7       	brne	.-4      	; 0x428 <SL811ReadData+0x4c>
	DELAY;
	*(__sl811_data) = data;
     42c:	e0 91 d5 02 	lds	r30, 0x02D5
     430:	f0 91 d6 02 	lds	r31, 0x02D6
     434:	90 83       	st	Z, r25
     436:	82 2f       	mov	r24, r18
     438:	8a 95       	dec	r24
     43a:	f1 f7       	brne	.-4      	; 0x438 <SL811ReadData+0x5c>

	// 対象となるUSBデバイスアドレスの指定
	sl811_write(SL811H_HOSTDEVADDR_B, d->addr);

	// パケット種別(IN)とエンドポイント番号の指定
	sl811_write(SL811H_PIDDEVENDPT_B, PID_IN | d->ep);
     43c:	f8 01       	movw	r30, r16
     43e:	91 81       	ldd	r25, Z+1	; 0x01
     440:	90 69       	ori	r25, 0x90	; 144
/// <summary>
/// SL811HST専用レジスタへの書き込み
/// </summary>
void sl811_write(const unsigned char offset, const unsigned char data)
{
	*(__sl811_addr) = offset;
     442:	e0 91 c3 02 	lds	r30, 0x02C3
     446:	f0 91 c4 02 	lds	r31, 0x02C4
     44a:	8b e0       	ldi	r24, 0x0B	; 11
     44c:	80 83       	st	Z, r24
     44e:	82 2f       	mov	r24, r18
     450:	8a 95       	dec	r24
     452:	f1 f7       	brne	.-4      	; 0x450 <SL811ReadData+0x74>
	DELAY;
	*(__sl811_data) = data;
     454:	e0 91 d5 02 	lds	r30, 0x02D5
     458:	f0 91 d6 02 	lds	r31, 0x02D6
     45c:	90 83       	st	Z, r25
     45e:	2a 95       	dec	r18
     460:	f1 f7       	brne	.-4      	; 0x45e <SL811ReadData+0x82>
     462:	7a 01       	movw	r14, r20
     464:	70 e1       	ldi	r23, 0x10	; 16
     466:	a7 2e       	mov	r10, r23
     468:	b1 2c       	mov	r11, r1
	// パケット種別(IN)とエンドポイント番号の指定
	sl811_write(SL811H_PIDDEVENDPT_B, PID_IN | d->ep);

	do{
		// 1つのパケットで送信するデータ数を算出
		rsiz = (remain > d->epsize) ? d->epsize : remain;
     46a:	62 e3       	ldi	r22, 0x32	; 50
     46c:	76 2e       	mov	r7, r22
     46e:	52 e3       	ldi	r21, 0x32	; 50
     470:	65 2e       	mov	r6, r21
     472:	f8 01       	movw	r30, r16
     474:	82 81       	ldd	r24, Z+2	; 0x02
     476:	90 e0       	ldi	r25, 0x00	; 0
     478:	67 01       	movw	r12, r14
     47a:	8e 15       	cp	r24, r14
     47c:	9f 05       	cpc	r25, r15
     47e:	0c f4       	brge	.+2      	; 0x482 <SL811ReadData+0xa6>
     480:	6c 01       	movw	r12, r24

		// 現在のUSB FIFOメモリバッファがSL811H_MEMBUF_END(FFH)を超える場合、初期値設定
		if( (fifo + rsiz) > SL811H_MEMBUF_END )
     482:	c6 01       	movw	r24, r12
     484:	8a 0d       	add	r24, r10
     486:	9b 1d       	adc	r25, r11
     488:	8f 3f       	cpi	r24, 0xFF	; 255
     48a:	91 05       	cpc	r25, r1
     48c:	21 f0       	breq	.+8      	; 0x496 <SL811ReadData+0xba>
     48e:	1c f0       	brlt	.+6      	; 0x496 <SL811ReadData+0xba>
     490:	40 e1       	ldi	r20, 0x10	; 16
     492:	a4 2e       	mov	r10, r20
     494:	b1 2c       	mov	r11, r1
			fifo = SL811H_MEMBUF_BGN;	

		// 現在のUSB FIFOメモリバッファの先頭アドレスの指定
		sl811_write(SL811H_HOSTBASEADDR_B, fifo);
     496:	4a 2d       	mov	r20, r10
/// <summary>
/// SL811HST専用レジスタへの書き込み
/// </summary>
void sl811_write(const unsigned char offset, const unsigned char data)
{
	*(__sl811_addr) = offset;
     498:	e0 91 c3 02 	lds	r30, 0x02C3
     49c:	f0 91 c4 02 	lds	r31, 0x02C4
     4a0:	89 e0       	ldi	r24, 0x09	; 9
     4a2:	80 83       	st	Z, r24
     4a4:	87 2d       	mov	r24, r7
     4a6:	8a 95       	dec	r24
     4a8:	f1 f7       	brne	.-4      	; 0x4a6 <SL811ReadData+0xca>
	DELAY;
	*(__sl811_data) = data;
     4aa:	e0 91 d5 02 	lds	r30, 0x02D5
     4ae:	f0 91 d6 02 	lds	r31, 0x02D6
     4b2:	a0 82       	st	Z, r10
     4b4:	87 2d       	mov	r24, r7
     4b6:	8a 95       	dec	r24
     4b8:	f1 f7       	brne	.-4      	; 0x4b6 <SL811ReadData+0xda>
/// <summary>
/// SL811HST専用レジスタへの書き込み
/// </summary>
void sl811_write(const unsigned char offset, const unsigned char data)
{
	*(__sl811_addr) = offset;
     4ba:	e0 91 c3 02 	lds	r30, 0x02C3
     4be:	f0 91 c4 02 	lds	r31, 0x02C4
     4c2:	9a e0       	ldi	r25, 0x0A	; 10
     4c4:	90 83       	st	Z, r25
     4c6:	87 2d       	mov	r24, r7
     4c8:	8a 95       	dec	r24
     4ca:	f1 f7       	brne	.-4      	; 0x4c8 <SL811ReadData+0xec>
	DELAY;
	*(__sl811_data) = data;
     4cc:	e0 91 d5 02 	lds	r30, 0x02D5
     4d0:	f0 91 d6 02 	lds	r31, 0x02D6
     4d4:	c0 82       	st	Z, r12
     4d6:	87 2d       	mov	r24, r7
     4d8:	8a 95       	dec	r24
     4da:	f1 f7       	brne	.-4      	; 0x4d8 <SL811ReadData+0xfc>
     4dc:	20 e0       	ldi	r18, 0x00	; 0
     4de:	30 e0       	ldi	r19, 0x00	; 0
     4e0:	44 c0       	rjmp	.+136    	; 0x56a <SL811ReadData+0x18e>
		// USBデバイスがNAKの場合、再度USBデータ受信をする
		for( timeovr=0; timeovr<maxretry; timeovr++ )
		{

			// USB_BよりUSB FIFOメモリバッファへ内容を受信する
			sl811_write(SL811H_HOSTCTLREG_B, d->rd_cmd);
     4e2:	f8 01       	movw	r30, r16
     4e4:	85 81       	ldd	r24, Z+5	; 0x05
/// <summary>
/// SL811HST専用レジスタへの書き込み
/// </summary>
void sl811_write(const unsigned char offset, const unsigned char data)
{
	*(__sl811_addr) = offset;
     4e6:	e0 91 c3 02 	lds	r30, 0x02C3
     4ea:	f0 91 c4 02 	lds	r31, 0x02C4
     4ee:	98 e0       	ldi	r25, 0x08	; 8
     4f0:	90 83       	st	Z, r25
     4f2:	97 2d       	mov	r25, r7
     4f4:	9a 95       	dec	r25
     4f6:	f1 f7       	brne	.-4      	; 0x4f4 <SL811ReadData+0x118>
	DELAY;
	*(__sl811_data) = data;
     4f8:	e0 91 d5 02 	lds	r30, 0x02D5
     4fc:	f0 91 d6 02 	lds	r31, 0x02D6
     500:	80 83       	st	Z, r24
     502:	87 2d       	mov	r24, r7
     504:	8a 95       	dec	r24
     506:	f1 f7       	brne	.-4      	; 0x504 <SL811ReadData+0x128>
    milliseconds can be achieved.
 */
void
_delay_loop_2(uint16_t __count)
{
	__asm__ volatile (
     508:	84 ef       	ldi	r24, 0xF4	; 244
     50a:	91 e0       	ldi	r25, 0x01	; 1
     50c:	01 97       	sbiw	r24, 0x01	; 1
     50e:	f1 f7       	brne	.-4      	; 0x50c <SL811ReadData+0x130>
/// </summary>
unsigned char sl811_read(const unsigned char offset)
{
	unsigned char data;

	*(__sl811_addr) = offset;
     510:	e0 91 c3 02 	lds	r30, 0x02C3
     514:	f0 91 c4 02 	lds	r31, 0x02C4
     518:	8d e0       	ldi	r24, 0x0D	; 13
     51a:	80 83       	st	Z, r24
    can be achieved.
*/
void
_delay_loop_1(uint8_t __count)
{
	__asm__ volatile (
     51c:	87 2d       	mov	r24, r7
     51e:	8a 95       	dec	r24
     520:	f1 f7       	brne	.-4      	; 0x51e <SL811ReadData+0x142>
	DELAY;
	data = *(__sl811_data);
     522:	e0 91 d5 02 	lds	r30, 0x02D5
     526:	f0 91 d6 02 	lds	r31, 0x02D6
     52a:	80 81       	ld	r24, Z
     52c:	97 2d       	mov	r25, r7
     52e:	9a 95       	dec	r25
     530:	f1 f7       	brne	.-4      	; 0x52e <SL811ReadData+0x152>

			// 200us または 2ms の時間待ち
			_delay_ms(2);

			// USB_Bの受信が完了するまで待つ
			while( (sl811_read(SL811H_INTSTATUSREG) & SL811H_INTMASK_XFERDONE_B) == 0 );
     532:	81 ff       	sbrs	r24, 1
     534:	ed cf       	rjmp	.-38     	; 0x510 <SL811ReadData+0x134>
/// </summary>
unsigned char sl811_read(const unsigned char offset)
{
	unsigned char data;

	*(__sl811_addr) = offset;
     536:	e0 91 c3 02 	lds	r30, 0x02C3
     53a:	f0 91 c4 02 	lds	r31, 0x02C4
     53e:	9b e0       	ldi	r25, 0x0B	; 11
     540:	90 83       	st	Z, r25
     542:	82 e3       	ldi	r24, 0x32	; 50
     544:	8a 95       	dec	r24
     546:	f1 f7       	brne	.-4      	; 0x544 <SL811ReadData+0x168>
	DELAY;
	data = *(__sl811_data);
     548:	e0 91 d5 02 	lds	r30, 0x02D5
     54c:	f0 91 d6 02 	lds	r31, 0x02D6
     550:	e0 81       	ld	r30, Z
     552:	82 e3       	ldi	r24, 0x32	; 50
     554:	8a 95       	dec	r24
     556:	f1 f7       	brne	.-4      	; 0x554 <SL811ReadData+0x178>
			
			// USB_Bのパケット受信状態を読み込む
			pktstatus = sl811_read(SL811H_USBSTATUS_B);

			// USBデバイスがSTALLの場合はエラー終了
			if( pktstatus & SL811H_STATUSMASK_STALL )
     558:	e7 ff       	sbrs	r30, 7
     55a:	03 c0       	rjmp	.+6      	; 0x562 <SL811ReadData+0x186>
     55c:	4e ef       	ldi	r20, 0xFE	; 254
     55e:	5f ef       	ldi	r21, 0xFF	; 255
     560:	42 c0       	rjmp	.+132    	; 0x5e6 <SL811ReadData+0x20a>
///**/				DBG("!!! READ STALL !!!\n");

				return SL811_HANDSHAKE_STALL;
			}
			// USBデバイスからACKが返ってくれば、ループを抜ける
			if( pktstatus & SL811H_STATUSMASK_ACK )	break;
     562:	e0 fd       	sbrc	r30, 0
     564:	09 c0       	rjmp	.+18     	; 0x578 <SL811ReadData+0x19c>
		
		// 受信データの大きさをセット
		sl811_write(SL811H_HOSTBASELNG_B, rsiz);

		// USBデバイスがNAKの場合、再度USBデータ受信をする
		for( timeovr=0; timeovr<maxretry; timeovr++ )
     566:	2f 5f       	subi	r18, 0xFF	; 255
     568:	3f 4f       	sbci	r19, 0xFF	; 255
     56a:	22 15       	cp	r18, r2
     56c:	33 05       	cpc	r19, r3
     56e:	0c f4       	brge	.+2      	; 0x572 <SL811ReadData+0x196>
     570:	b8 cf       	rjmp	.-144    	; 0x4e2 <SL811ReadData+0x106>
     572:	4f ef       	ldi	r20, 0xFF	; 255
     574:	5f ef       	ldi	r21, 0xFF	; 255
     576:	37 c0       	rjmp	.+110    	; 0x5e6 <SL811ReadData+0x20a>
/// </summary>
unsigned char sl811_read(const unsigned char offset)
{
	unsigned char data;

	*(__sl811_addr) = offset;
     578:	e0 91 c3 02 	lds	r30, 0x02C3
     57c:	f0 91 c4 02 	lds	r31, 0x02C4
     580:	8c e0       	ldi	r24, 0x0C	; 12
     582:	80 83       	st	Z, r24
     584:	86 2d       	mov	r24, r6
     586:	8a 95       	dec	r24
     588:	f1 f7       	brne	.-4      	; 0x586 <SL811ReadData+0x1aa>
	DELAY;
	data = *(__sl811_data);
     58a:	e0 91 d5 02 	lds	r30, 0x02D5
     58e:	f0 91 d6 02 	lds	r31, 0x02D6
     592:	80 81       	ld	r24, Z
     594:	96 2d       	mov	r25, r6
     596:	9a 95       	dec	r25
     598:	f1 f7       	brne	.-4      	; 0x596 <SL811ReadData+0x1ba>

			return SL811_HANDSHAKE_NAK;
		}

		// 実際に受信をしたデータ数を算出
		rcnt = rsiz - (int)sl811_read(SL811H_TRANSFERCNT);
     59a:	e6 01       	movw	r28, r12
     59c:	c8 1b       	sub	r28, r24
     59e:	d1 09       	sbc	r29, r1

		// 受信データがある場合は、USB FIFOメモリバッファから転送する
		if( (pktstatus & SL811H_STATUSMASK_ACK) && data != 0 && size > 0 )
     5a0:	41 14       	cp	r4, r1
     5a2:	51 04       	cpc	r5, r1
     5a4:	61 f0       	breq	.+24     	; 0x5be <SL811ReadData+0x1e2>
     5a6:	18 14       	cp	r1, r8
     5a8:	19 04       	cpc	r1, r9
     5aa:	4c f4       	brge	.+18     	; 0x5be <SL811ReadData+0x1e2>
			sl811_buf_read(fifo, &data[size - remain], rsiz);
     5ac:	b4 01       	movw	r22, r8
     5ae:	6e 19       	sub	r22, r14
     5b0:	7f 09       	sbc	r23, r15
     5b2:	64 0d       	add	r22, r4
     5b4:	75 1d       	adc	r23, r5
     5b6:	84 2f       	mov	r24, r20
     5b8:	a6 01       	movw	r20, r12
     5ba:	0e 94 b0 00 	call	0x160	; 0x160 <sl811_buf_read>

		// 処理済みのデータ数を差し引く
		remain -= rcnt;
     5be:	ec 1a       	sub	r14, r28
     5c0:	fd 0a       	sbc	r15, r29

		// データパケットのトグルを行う
		d->rd_cmd ^= TOGGLE;
     5c2:	f8 01       	movw	r30, r16
     5c4:	85 81       	ldd	r24, Z+5	; 0x05
     5c6:	f0 e4       	ldi	r31, 0x40	; 64
     5c8:	8f 27       	eor	r24, r31
     5ca:	f8 01       	movw	r30, r16
     5cc:	85 83       	std	Z+5, r24	; 0x05

		// 現在のUSB FIFOメモリバッファの先頭アドレスの更新
		fifo += rcnt;
	}while( remain > 0 && rcnt == rsiz );	// 残りデータがある間、繰り返す
     5ce:	1e 14       	cp	r1, r14
     5d0:	1f 04       	cpc	r1, r15
     5d2:	34 f4       	brge	.+12     	; 0x5e0 <SL811ReadData+0x204>
     5d4:	cc 15       	cp	r28, r12
     5d6:	dd 05       	cpc	r29, r13
     5d8:	19 f4       	brne	.+6      	; 0x5e0 <SL811ReadData+0x204>

		// データパケットのトグルを行う
		d->rd_cmd ^= TOGGLE;

		// 現在のUSB FIFOメモリバッファの先頭アドレスの更新
		fifo += rcnt;
     5da:	ac 0e       	add	r10, r28
     5dc:	bd 1e       	adc	r11, r29
     5de:	49 cf       	rjmp	.-366    	; 0x472 <SL811ReadData+0x96>
	}while( remain > 0 && rcnt == rsiz );	// 残りデータがある間、繰り返す

	return size - remain;	// USBデータ受信したサイズを返す
     5e0:	a4 01       	movw	r20, r8
     5e2:	4e 19       	sub	r20, r14
     5e4:	5f 09       	sbc	r21, r15
}
     5e6:	ca 01       	movw	r24, r20
     5e8:	df 91       	pop	r29
     5ea:	cf 91       	pop	r28
     5ec:	1f 91       	pop	r17
     5ee:	0f 91       	pop	r16
     5f0:	ff 90       	pop	r15
     5f2:	ef 90       	pop	r14
     5f4:	df 90       	pop	r13
     5f6:	cf 90       	pop	r12
     5f8:	bf 90       	pop	r11
     5fa:	af 90       	pop	r10
     5fc:	9f 90       	pop	r9
     5fe:	8f 90       	pop	r8
     600:	7f 90       	pop	r7
     602:	6f 90       	pop	r6
     604:	5f 90       	pop	r5
     606:	4f 90       	pop	r4
     608:	3f 90       	pop	r3
     60a:	2f 90       	pop	r2
     60c:	08 95       	ret

0000060e <SL811USBReset>:
    milliseconds can be achieved.
 */
void
_delay_loop_2(uint16_t __count)
{
	__asm__ volatile (
     60e:	88 ea       	ldi	r24, 0xA8	; 168
     610:	91 e6       	ldi	r25, 0x61	; 97
     612:	01 97       	sbiw	r24, 0x01	; 1
     614:	f1 f7       	brne	.-4      	; 0x612 <SL811USBReset+0x4>
/// <summary>
/// SL811HST専用レジスタへの書き込み
/// </summary>
void sl811_write(const unsigned char offset, const unsigned char data)
{
	*(__sl811_addr) = offset;
     616:	e0 91 c3 02 	lds	r30, 0x02C3
     61a:	f0 91 c4 02 	lds	r31, 0x02C4
     61e:	8f e0       	ldi	r24, 0x0F	; 15
     620:	80 83       	st	Z, r24
    can be achieved.
*/
void
_delay_loop_1(uint8_t __count)
{
	__asm__ volatile (
     622:	92 e3       	ldi	r25, 0x32	; 50
     624:	89 2f       	mov	r24, r25
     626:	8a 95       	dec	r24
     628:	f1 f7       	brne	.-4      	; 0x626 <SL811USBReset+0x18>
	DELAY;
	*(__sl811_data) = data;
     62a:	e0 91 d5 02 	lds	r30, 0x02D5
     62e:	f0 91 d6 02 	lds	r31, 0x02D6
     632:	80 e8       	ldi	r24, 0x80	; 128
     634:	80 83       	st	Z, r24
     636:	89 2f       	mov	r24, r25
     638:	8a 95       	dec	r24
     63a:	f1 f7       	brne	.-4      	; 0x638 <SL811USBReset+0x2a>
/// <summary>
/// SL811HST専用レジスタへの書き込み
/// </summary>
void sl811_write(const unsigned char offset, const unsigned char data)
{
	*(__sl811_addr) = offset;
     63c:	e0 91 c3 02 	lds	r30, 0x02C3
     640:	f0 91 c4 02 	lds	r31, 0x02C4
     644:	25 e0       	ldi	r18, 0x05	; 5
     646:	20 83       	st	Z, r18
     648:	89 2f       	mov	r24, r25
     64a:	8a 95       	dec	r24
     64c:	f1 f7       	brne	.-4      	; 0x64a <SL811USBReset+0x3c>
	DELAY;
	*(__sl811_data) = data;
     64e:	e0 91 d5 02 	lds	r30, 0x02D5
     652:	f0 91 d6 02 	lds	r31, 0x02D6
     656:	88 e0       	ldi	r24, 0x08	; 8
     658:	80 83       	st	Z, r24
     65a:	89 2f       	mov	r24, r25
     65c:	8a 95       	dec	r24
     65e:	f1 f7       	brne	.-4      	; 0x65c <SL811USBReset+0x4e>
    milliseconds can be achieved.
 */
void
_delay_loop_2(uint16_t __count)
{
	__asm__ volatile (
     660:	ec e4       	ldi	r30, 0x4C	; 76
     662:	fd e1       	ldi	r31, 0x1D	; 29
     664:	31 97       	sbiw	r30, 0x01	; 1
     666:	f1 f7       	brne	.-4      	; 0x664 <SL811USBReset+0x56>
/// <summary>
/// SL811HST専用レジスタへの書き込み
/// </summary>
void sl811_write(const unsigned char offset, const unsigned char data)
{
	*(__sl811_addr) = offset;
     668:	e0 91 c3 02 	lds	r30, 0x02C3
     66c:	f0 91 c4 02 	lds	r31, 0x02C4
     670:	20 83       	st	Z, r18
    can be achieved.
*/
void
_delay_loop_1(uint8_t __count)
{
	__asm__ volatile (
     672:	89 2f       	mov	r24, r25
     674:	8a 95       	dec	r24
     676:	f1 f7       	brne	.-4      	; 0x674 <SL811USBReset+0x66>
	DELAY;
	*(__sl811_data) = data;
     678:	e0 91 d5 02 	lds	r30, 0x02D5
     67c:	f0 91 d6 02 	lds	r31, 0x02D6
     680:	10 82       	st	Z, r1
     682:	9a 95       	dec	r25
     684:	f1 f7       	brne	.-4      	; 0x682 <SL811USBReset+0x74>
     686:	90 e0       	ldi	r25, 0x00	; 0
/// <summary>
/// SL811HST専用レジスタへの書き込み
/// </summary>
void sl811_write(const unsigned char offset, const unsigned char data)
{
	*(__sl811_addr) = offset;
     688:	5d e0       	ldi	r21, 0x0D	; 13
     68a:	32 e3       	ldi	r19, 0x32	; 50
	DELAY;
	*(__sl811_data) = data;
     68c:	4f ef       	ldi	r20, 0xFF	; 255
/// <summary>
/// SL811HST専用レジスタへの書き込み
/// </summary>
void sl811_write(const unsigned char offset, const unsigned char data)
{
	*(__sl811_addr) = offset;
     68e:	e0 91 c3 02 	lds	r30, 0x02C3
     692:	f0 91 c4 02 	lds	r31, 0x02C4
     696:	6d e0       	ldi	r22, 0x0D	; 13
     698:	50 83       	st	Z, r21
     69a:	22 e3       	ldi	r18, 0x32	; 50
     69c:	83 2f       	mov	r24, r19
     69e:	8a 95       	dec	r24
     6a0:	f1 f7       	brne	.-4      	; 0x69e <SL811USBReset+0x90>
	DELAY;
	*(__sl811_data) = data;
     6a2:	e0 91 d5 02 	lds	r30, 0x02D5
     6a6:	f0 91 d6 02 	lds	r31, 0x02D6
     6aa:	40 83       	st	Z, r20
     6ac:	83 2f       	mov	r24, r19
     6ae:	8a 95       	dec	r24
     6b0:	f1 f7       	brne	.-4      	; 0x6ae <SL811USBReset+0xa0>

	sl811_write(SL811H_CTLREG1, SL811H_CTLREG1VAL_RESET);	// reset USB
	_delay_ms(30);
	sl811_write(SL811H_CTLREG1, 0x00);						// remove SE0

	for(status=0; status<100; status++)
     6b2:	9f 5f       	subi	r25, 0xFF	; 255
     6b4:	94 36       	cpi	r25, 0x64	; 100
     6b6:	59 f7       	brne	.-42     	; 0x68e <SL811USBReset+0x80>
/// </summary>
unsigned char sl811_read(const unsigned char offset)
{
	unsigned char data;

	*(__sl811_addr) = offset;
     6b8:	e0 91 c3 02 	lds	r30, 0x02C3
     6bc:	f0 91 c4 02 	lds	r31, 0x02C4
     6c0:	60 83       	st	Z, r22
     6c2:	82 2f       	mov	r24, r18
     6c4:	8a 95       	dec	r24
     6c6:	f1 f7       	brne	.-4      	; 0x6c4 <SL811USBReset+0xb6>
	DELAY;
	data = *(__sl811_data);
     6c8:	e0 91 d5 02 	lds	r30, 0x02D5
     6cc:	f0 91 d6 02 	lds	r31, 0x02D6
     6d0:	e0 81       	ld	r30, Z
     6d2:	82 2f       	mov	r24, r18
     6d4:	8a 95       	dec	r24
     6d6:	f1 f7       	brne	.-4      	; 0x6d4 <SL811USBReset+0xc6>
		sl811_write(SL811H_INTSTATUSREG, 0xFF);				// clear all interrupt bits

	// Full/Low Speed Detection
	status = sl811_read(SL811H_INTSTATUSREG);
	
	if( status & SL811H_INTMASK_NODEVICE )
     6d8:	e6 ff       	sbrs	r30, 6
     6da:	15 c0       	rjmp	.+42     	; 0x706 <SL811USBReset+0xf8>
/// <summary>
/// SL811HST専用レジスタへの書き込み
/// </summary>
void sl811_write(const unsigned char offset, const unsigned char data)
{
	*(__sl811_addr) = offset;
     6dc:	e0 91 c3 02 	lds	r30, 0x02C3
     6e0:	f0 91 c4 02 	lds	r31, 0x02C4
     6e4:	86 e0       	ldi	r24, 0x06	; 6
     6e6:	80 83       	st	Z, r24
     6e8:	82 2f       	mov	r24, r18
     6ea:	8a 95       	dec	r24
     6ec:	f1 f7       	brne	.-4      	; 0x6ea <SL811USBReset+0xdc>
	DELAY;
	*(__sl811_data) = data;
     6ee:	e0 91 d5 02 	lds	r30, 0x02D5
     6f2:	f0 91 d6 02 	lds	r31, 0x02D6
     6f6:	80 e1       	ldi	r24, 0x10	; 16
     6f8:	80 83       	st	Z, r24
     6fa:	82 2f       	mov	r24, r18
     6fc:	8a 95       	dec	r24
     6fe:	f1 f7       	brne	.-4      	; 0x6fc <SL811USBReset+0xee>
     700:	20 e0       	ldi	r18, 0x00	; 0
     702:	30 e0       	ldi	r19, 0x00	; 0
     704:	a9 c0       	rjmp	.+338    	; 0x858 <SL811USBReset+0x24a>
     706:	a0 91 c3 02 	lds	r26, 0x02C3
     70a:	b0 91 c4 02 	lds	r27, 0x02C4
			SL811H_INTMASK_SOFINTR 		// Interrupt on SOF Timer
		);
		return SL811_USB_NONE;
	}

	if( status & SL811H_INTMASK_DATAPLUS )
     70e:	e7 ff       	sbrs	r30, 7
     710:	46 c0       	rjmp	.+140    	; 0x79e <SL811USBReset+0x190>
/// <summary>
/// SL811HST専用レジスタへの書き込み
/// </summary>
void sl811_write(const unsigned char offset, const unsigned char data)
{
	*(__sl811_addr) = offset;
     712:	8e e0       	ldi	r24, 0x0E	; 14
     714:	8c 93       	st	X, r24
     716:	82 2f       	mov	r24, r18
     718:	8a 95       	dec	r24
     71a:	f1 f7       	brne	.-4      	; 0x718 <SL811USBReset+0x10a>
	DELAY;
	*(__sl811_data) = data;
     71c:	e0 91 d5 02 	lds	r30, 0x02D5
     720:	f0 91 d6 02 	lds	r31, 0x02D6
     724:	80 ee       	ldi	r24, 0xE0	; 224
     726:	80 83       	st	Z, r24
     728:	82 2f       	mov	r24, r18
     72a:	8a 95       	dec	r24
     72c:	f1 f7       	brne	.-4      	; 0x72a <SL811USBReset+0x11c>
/// <summary>
/// SL811HST専用レジスタへの書き込み
/// </summary>
void sl811_write(const unsigned char offset, const unsigned char data)
{
	*(__sl811_addr) = offset;
     72e:	e0 91 c3 02 	lds	r30, 0x02C3
     732:	f0 91 c4 02 	lds	r31, 0x02C4
     736:	8f e0       	ldi	r24, 0x0F	; 15
     738:	80 83       	st	Z, r24
     73a:	82 2f       	mov	r24, r18
     73c:	8a 95       	dec	r24
     73e:	f1 f7       	brne	.-4      	; 0x73c <SL811USBReset+0x12e>
	DELAY;
	*(__sl811_data) = data;
     740:	e0 91 d5 02 	lds	r30, 0x02D5
     744:	f0 91 d6 02 	lds	r31, 0x02D6
     748:	8e ea       	ldi	r24, 0xAE	; 174
     74a:	80 83       	st	Z, r24
     74c:	82 2f       	mov	r24, r18
     74e:	8a 95       	dec	r24
     750:	f1 f7       	brne	.-4      	; 0x74e <SL811USBReset+0x140>
/// <summary>
/// SL811HST専用レジスタへの書き込み
/// </summary>
void sl811_write(const unsigned char offset, const unsigned char data)
{
	*(__sl811_addr) = offset;
     752:	e0 91 c3 02 	lds	r30, 0x02C3
     756:	f0 91 c4 02 	lds	r31, 0x02C4
     75a:	85 e0       	ldi	r24, 0x05	; 5
     75c:	80 83       	st	Z, r24
     75e:	82 2f       	mov	r24, r18
     760:	8a 95       	dec	r24
     762:	f1 f7       	brne	.-4      	; 0x760 <SL811USBReset+0x152>
	DELAY;
	*(__sl811_data) = data;
     764:	e0 91 d5 02 	lds	r30, 0x02D5
     768:	f0 91 d6 02 	lds	r31, 0x02D6
     76c:	81 e0       	ldi	r24, 0x01	; 1
     76e:	80 83       	st	Z, r24
     770:	82 2f       	mov	r24, r18
     772:	8a 95       	dec	r24
     774:	f1 f7       	brne	.-4      	; 0x772 <SL811USBReset+0x164>
/// <summary>
/// SL811HST専用レジスタへの書き込み
/// </summary>
void sl811_write(const unsigned char offset, const unsigned char data)
{
	*(__sl811_addr) = offset;
     776:	e0 91 c3 02 	lds	r30, 0x02C3
     77a:	f0 91 c4 02 	lds	r31, 0x02C4
     77e:	60 83       	st	Z, r22
     780:	82 2f       	mov	r24, r18
     782:	8a 95       	dec	r24
     784:	f1 f7       	brne	.-4      	; 0x782 <SL811USBReset+0x174>
	DELAY;
	*(__sl811_data) = data;
     786:	e0 91 d5 02 	lds	r30, 0x02D5
     78a:	f0 91 d6 02 	lds	r31, 0x02D6
     78e:	8f ef       	ldi	r24, 0xFF	; 255
     790:	80 83       	st	Z, r24
     792:	82 2f       	mov	r24, r18
     794:	8a 95       	dec	r24
     796:	f1 f7       	brne	.-4      	; 0x794 <SL811USBReset+0x186>
     798:	22 e0       	ldi	r18, 0x02	; 2
     79a:	30 e0       	ldi	r19, 0x00	; 0
     79c:	4b c0       	rjmp	.+150    	; 0x834 <SL811USBReset+0x226>
/// <summary>
/// SL811HST専用レジスタへの書き込み
/// </summary>
void sl811_write(const unsigned char offset, const unsigned char data)
{
	*(__sl811_addr) = offset;
     79e:	8e e0       	ldi	r24, 0x0E	; 14
     7a0:	8c 93       	st	X, r24
     7a2:	82 2f       	mov	r24, r18
     7a4:	8a 95       	dec	r24
     7a6:	f1 f7       	brne	.-4      	; 0x7a4 <SL811USBReset+0x196>
	DELAY;
	*(__sl811_data) = data;
     7a8:	e0 91 d5 02 	lds	r30, 0x02D5
     7ac:	f0 91 d6 02 	lds	r31, 0x02D6
     7b0:	80 ee       	ldi	r24, 0xE0	; 224
     7b2:	80 83       	st	Z, r24
     7b4:	82 2f       	mov	r24, r18
     7b6:	8a 95       	dec	r24
     7b8:	f1 f7       	brne	.-4      	; 0x7b6 <SL811USBReset+0x1a8>
/// <summary>
/// SL811HST専用レジスタへの書き込み
/// </summary>
void sl811_write(const unsigned char offset, const unsigned char data)
{
	*(__sl811_addr) = offset;
     7ba:	e0 91 c3 02 	lds	r30, 0x02C3
     7be:	f0 91 c4 02 	lds	r31, 0x02C4
     7c2:	8f e0       	ldi	r24, 0x0F	; 15
     7c4:	80 83       	st	Z, r24
     7c6:	82 2f       	mov	r24, r18
     7c8:	8a 95       	dec	r24
     7ca:	f1 f7       	brne	.-4      	; 0x7c8 <SL811USBReset+0x1ba>
	DELAY;
	*(__sl811_data) = data;
     7cc:	e0 91 d5 02 	lds	r30, 0x02D5
     7d0:	f0 91 d6 02 	lds	r31, 0x02D6
     7d4:	8e ee       	ldi	r24, 0xEE	; 238
     7d6:	80 83       	st	Z, r24
     7d8:	82 2f       	mov	r24, r18
     7da:	8a 95       	dec	r24
     7dc:	f1 f7       	brne	.-4      	; 0x7da <SL811USBReset+0x1cc>
/// <summary>
/// SL811HST専用レジスタへの書き込み
/// </summary>
void sl811_write(const unsigned char offset, const unsigned char data)
{
	*(__sl811_addr) = offset;
     7de:	e0 91 c3 02 	lds	r30, 0x02C3
     7e2:	f0 91 c4 02 	lds	r31, 0x02C4
     7e6:	85 e0       	ldi	r24, 0x05	; 5
     7e8:	80 83       	st	Z, r24
     7ea:	82 2f       	mov	r24, r18
     7ec:	8a 95       	dec	r24
     7ee:	f1 f7       	brne	.-4      	; 0x7ec <SL811USBReset+0x1de>
	DELAY;
	*(__sl811_data) = data;
     7f0:	e0 91 d5 02 	lds	r30, 0x02D5
     7f4:	f0 91 d6 02 	lds	r31, 0x02D6
     7f8:	81 e2       	ldi	r24, 0x21	; 33
     7fa:	80 83       	st	Z, r24
     7fc:	82 2f       	mov	r24, r18
     7fe:	8a 95       	dec	r24
     800:	f1 f7       	brne	.-4      	; 0x7fe <SL811USBReset+0x1f0>
     802:	90 e0       	ldi	r25, 0x00	; 0
/// <summary>
/// SL811HST専用レジスタへの書き込み
/// </summary>
void sl811_write(const unsigned char offset, const unsigned char data)
{
	*(__sl811_addr) = offset;
     804:	4d e0       	ldi	r20, 0x0D	; 13
     806:	22 e3       	ldi	r18, 0x32	; 50
	DELAY;
	*(__sl811_data) = data;
     808:	3f ef       	ldi	r19, 0xFF	; 255
/// <summary>
/// SL811HST専用レジスタへの書き込み
/// </summary>
void sl811_write(const unsigned char offset, const unsigned char data)
{
	*(__sl811_addr) = offset;
     80a:	e0 91 c3 02 	lds	r30, 0x02C3
     80e:	f0 91 c4 02 	lds	r31, 0x02C4
     812:	40 83       	st	Z, r20
     814:	82 2f       	mov	r24, r18
     816:	8a 95       	dec	r24
     818:	f1 f7       	brne	.-4      	; 0x816 <SL811USBReset+0x208>
	DELAY;
	*(__sl811_data) = data;
     81a:	e0 91 d5 02 	lds	r30, 0x02D5
     81e:	f0 91 d6 02 	lds	r31, 0x02D6
     822:	30 83       	st	Z, r19
     824:	82 2f       	mov	r24, r18
     826:	8a 95       	dec	r24
     828:	f1 f7       	brne	.-4      	; 0x826 <SL811USBReset+0x218>
		sl811_write(SL811H_SOFCNTLOW, 0xE0);	// 下位 E0
		sl811_write(SL811H_SOFCNTHIGH, SL811H_CTLREG2MASK_HOSTMODE | SL811H_CTLREG2MASK_DSWAP | 0x2E);	// SOF High 2E + HOSTMode + Data Priority Swap
		sl811_write(SL811H_CTLREG1, SL811H_CTLREG1MASK_ENABLESOF | SL811H_CTLREG1MASK_LOWSPEED);
		
		// clear all interrupt bits
		for(status=0; status<20; status++)
     82a:	9f 5f       	subi	r25, 0xFF	; 255
     82c:	94 31       	cpi	r25, 0x14	; 20
     82e:	69 f7       	brne	.-38     	; 0x80a <SL811USBReset+0x1fc>
     830:	21 e0       	ldi	r18, 0x01	; 1
     832:	30 e0       	ldi	r19, 0x00	; 0
/// <summary>
/// SL811HST専用レジスタへの書き込み
/// </summary>
void sl811_write(const unsigned char offset, const unsigned char data)
{
	*(__sl811_addr) = offset;
     834:	e0 91 c3 02 	lds	r30, 0x02C3
     838:	f0 91 c4 02 	lds	r31, 0x02C4
     83c:	86 e0       	ldi	r24, 0x06	; 6
     83e:	80 83       	st	Z, r24
     840:	92 e3       	ldi	r25, 0x32	; 50
     842:	89 2f       	mov	r24, r25
     844:	8a 95       	dec	r24
     846:	f1 f7       	brne	.-4      	; 0x844 <SL811USBReset+0x236>
	DELAY;
	*(__sl811_data) = data;
     848:	e0 91 d5 02 	lds	r30, 0x02D5
     84c:	f0 91 d6 02 	lds	r31, 0x02D6
     850:	80 e1       	ldi	r24, 0x10	; 16
     852:	80 83       	st	Z, r24
     854:	9a 95       	dec	r25
     856:	f1 f7       	brne	.-4      	; 0x854 <SL811USBReset+0x246>
	);
	
///**/	DBG("INTENBLREG-->0x%02X\n",sl811_read(SL811H_INTENBLREG));			// Device Insert/Remove Detection
	
	return ret;
}
     858:	c9 01       	movw	r24, r18
     85a:	08 95       	ret

0000085c <sl811_regtest>:
/// <returns>
/// 正常終了: 0
/// 異常終了: -1
/// </returns>
int sl811_regtest(void)
{
     85c:	20 ef       	ldi	r18, 0xF0	; 240
     85e:	30 e0       	ldi	r19, 0x00	; 0
     860:	42 e3       	ldi	r20, 0x32	; 50
     862:	82 2f       	mov	r24, r18
     864:	81 95       	neg	r24
/// <summary>
/// SL811HST専用レジスタへの書き込み
/// </summary>
void sl811_write(const unsigned char offset, const unsigned char data)
{
	*(__sl811_addr) = offset;
     866:	e0 91 c3 02 	lds	r30, 0x02C3
     86a:	f0 91 c4 02 	lds	r31, 0x02C4
     86e:	80 83       	st	Z, r24
     870:	94 2f       	mov	r25, r20
     872:	9a 95       	dec	r25
     874:	f1 f7       	brne	.-4      	; 0x872 <sl811_regtest+0x16>
	DELAY;
	*(__sl811_data) = data;
     876:	e0 91 d5 02 	lds	r30, 0x02D5
     87a:	f0 91 d6 02 	lds	r31, 0x02D6
     87e:	20 83       	st	Z, r18
     880:	94 2f       	mov	r25, r20
     882:	9a 95       	dec	r25
     884:	f1 f7       	brne	.-4      	; 0x882 <sl811_regtest+0x26>
/// </summary>
unsigned char sl811_read(const unsigned char offset)
{
	unsigned char data;

	*(__sl811_addr) = offset;
     886:	e0 91 c3 02 	lds	r30, 0x02C3
     88a:	f0 91 c4 02 	lds	r31, 0x02C4
     88e:	80 83       	st	Z, r24
     890:	84 2f       	mov	r24, r20
     892:	8a 95       	dec	r24
     894:	f1 f7       	brne	.-4      	; 0x892 <sl811_regtest+0x36>
	DELAY;
	data = *(__sl811_data);
     896:	e0 91 d5 02 	lds	r30, 0x02D5
     89a:	f0 91 d6 02 	lds	r31, 0x02D6
     89e:	80 81       	ld	r24, Z
     8a0:	94 2f       	mov	r25, r20
     8a2:	9a 95       	dec	r25
     8a4:	f1 f7       	brne	.-4      	; 0x8a2 <sl811_regtest+0x46>
	{
		sl811_write(i, 256-i);
///**/		DBG("%x\n",i);
		data = sl811_read(i);
///**/		DBG("%x\n",data);
		if( data != (256-i) )
     8a6:	90 e0       	ldi	r25, 0x00	; 0
     8a8:	82 17       	cp	r24, r18
     8aa:	93 07       	cpc	r25, r19
     8ac:	19 f0       	breq	.+6      	; 0x8b4 <sl811_regtest+0x58>
     8ae:	2f ef       	ldi	r18, 0xFF	; 255
     8b0:	3f ef       	ldi	r19, 0xFF	; 255
     8b2:	07 c0       	rjmp	.+14     	; 0x8c2 <sl811_regtest+0x66>
     8b4:	21 50       	subi	r18, 0x01	; 1
     8b6:	30 40       	sbci	r19, 0x00	; 0
/// </returns>
int sl811_regtest(void)
{
	int	i, data;

	for( i=SL811H_MEMBUF_BGN; i<SL811H_MEMBUF_END; i++ )
     8b8:	21 30       	cpi	r18, 0x01	; 1
     8ba:	31 05       	cpc	r19, r1
     8bc:	91 f6       	brne	.-92     	; 0x862 <sl811_regtest+0x6>
     8be:	20 e0       	ldi	r18, 0x00	; 0
     8c0:	30 e0       	ldi	r19, 0x00	; 0
			return -1;
		}
	}*/
	
	return 0;
}
     8c2:	c9 01       	movw	r24, r18
     8c4:	08 95       	ret

000008c6 <SL811USBInit>:
/// <summary>
/// SL811HSTの初期化
/// </summary>
void sl811_init(void)
{
	__sl811_addr = (volatile unsigned char *)0x8000;
     8c6:	80 e0       	ldi	r24, 0x00	; 0
     8c8:	90 e8       	ldi	r25, 0x80	; 128
     8ca:	90 93 c4 02 	sts	0x02C4, r25
     8ce:	80 93 c3 02 	sts	0x02C3, r24
	__sl811_data = (volatile unsigned char *)0xC000;
     8d2:	80 e0       	ldi	r24, 0x00	; 0
     8d4:	90 ec       	ldi	r25, 0xC0	; 192
     8d6:	90 93 d6 02 	sts	0x02D6, r25
     8da:	80 93 d5 02 	sts	0x02D5, r24
/// </returns>
int SL811USBInit(void)
{
	sl811_init();
	
	ms_tmr_cnt=0;
     8de:	10 92 28 01 	sts	0x0128, r1
     8e2:	10 92 27 01 	sts	0x0127, r1
	
	return sl811_regtest();
     8e6:	0e 94 2e 04 	call	0x85c	; 0x85c <sl811_regtest>
}
     8ea:	08 95       	ret

000008ec <USBInit>:
/// <summary>
/// USB Interrupt Transfer Manager Initialize
/// </summary>
void USBIntTxManagerInit(void)
{
	usbqueue = NULL;
     8ec:	10 92 ac 01 	sts	0x01AC, r1
     8f0:	10 92 ab 01 	sts	0x01AB, r1
	usb_int_tx_enable = 1;
     8f4:	81 e0       	ldi	r24, 0x01	; 1
     8f6:	90 e0       	ldi	r25, 0x00	; 0
     8f8:	90 93 ae 01 	sts	0x01AE, r25
     8fc:	80 93 ad 01 	sts	0x01AD, r24
{
	int x;
	
	USBIntTxManagerInit();
	
	__usb_dev_mode = USB_NONE;
     900:	10 92 2a 01 	sts	0x012A, r1
     904:	10 92 29 01 	sts	0x0129, r1
	
	x = SL811USBInit();
     908:	0e 94 63 04 	call	0x8c6	; 0x8c6 <SL811USBInit>
	
	return x;
}
     90c:	08 95       	ret

0000090e <USBIntTxManagerInit>:
/// <summary>
/// USB Interrupt Transfer Manager Initialize
/// </summary>
void USBIntTxManagerInit(void)
{
	usbqueue = NULL;
     90e:	10 92 ac 01 	sts	0x01AC, r1
     912:	10 92 ab 01 	sts	0x01AB, r1
	usb_int_tx_enable = 1;
     916:	81 e0       	ldi	r24, 0x01	; 1
     918:	90 e0       	ldi	r25, 0x00	; 0
     91a:	90 93 ae 01 	sts	0x01AE, r25
     91e:	80 93 ad 01 	sts	0x01AD, r24
}
     922:	08 95       	ret

00000924 <SL811DeviceInit>:
/// <param name="epsize">エンドポイントのサイズ</param>
/// <param name="retry">リトライ回数</param>
/// <param name="pre">プリアンブルパケットの有無</param>
/// <param name="addr">デバイスのアドレス</param>
void SL811DeviceInit(SL811USBDevInfo *d, int ep, int epsize, int retry, int pre, int addr)
{
     924:	ef 92       	push	r14
     926:	0f 93       	push	r16
     928:	1f 93       	push	r17
     92a:	fc 01       	movw	r30, r24
	d->ep = ep;
     92c:	61 83       	std	Z+1, r22	; 0x01
	d->epsize = epsize;
     92e:	42 83       	std	Z+2, r20	; 0x02
	d->retry = retry;
     930:	23 83       	std	Z+3, r18	; 0x03
	d->pre = (pre) ? (PREAMBLE) : (0x00);
     932:	01 2b       	or	r16, r17
     934:	11 f4       	brne	.+4      	; 0x93a <SL811DeviceInit+0x16>
     936:	80 e0       	ldi	r24, 0x00	; 0
     938:	01 c0       	rjmp	.+2      	; 0x93c <SL811DeviceInit+0x18>
     93a:	80 e8       	ldi	r24, 0x80	; 128
     93c:	86 83       	std	Z+6, r24	; 0x06
	d->addr = addr;
     93e:	e0 82       	st	Z, r14
}
     940:	1f 91       	pop	r17
     942:	0f 91       	pop	r16
     944:	ef 90       	pop	r14
     946:	08 95       	ret

00000948 <SL811CtrlTransfer>:
/// <returns>
/// 正常終了時 : 送信／受信したデータのサイズ
/// 不正終了時 : SL811_HANDSHAKE_NAK [-1] もしくは SL811_HANDSHAKE_STALL [-2]
/// </returns>
int SL811CtrlTransfer(SL811USBDevInfo *d, CtrlReq *command, unsigned char *data)
{
     948:	cf 92       	push	r12
     94a:	df 92       	push	r13
     94c:	ef 92       	push	r14
     94e:	ff 92       	push	r15
     950:	0f 93       	push	r16
     952:	1f 93       	push	r17
     954:	cf 93       	push	r28
     956:	df 93       	push	r29
     958:	8c 01       	movw	r16, r24
     95a:	7b 01       	movw	r14, r22
     95c:	6a 01       	movw	r12, r20
	int size, ret, length;

	d->wr_cmd = DATA0_WR;
     95e:	87 e0       	ldi	r24, 0x07	; 7
     960:	f8 01       	movw	r30, r16
     962:	84 83       	std	Z+4, r24	; 0x04
	size = SL811WriteData(d, (unsigned char*)command, sizeof(CtrlReq), SL811WRITE_SETUP);	// SETUP
     964:	c8 01       	movw	r24, r16
     966:	48 e0       	ldi	r20, 0x08	; 8
     968:	50 e0       	ldi	r21, 0x00	; 0
     96a:	21 e0       	ldi	r18, 0x01	; 1
     96c:	30 e0       	ldi	r19, 0x00	; 0
     96e:	0e 94 ec 00 	call	0x1d8	; 0x1d8 <SL811WriteData>
     972:	ec 01       	movw	r28, r24

	if (size < 0)	return size;
     974:	97 fd       	sbrc	r25, 7
     976:	4b c0       	rjmp	.+150    	; 0xa0e <SL811CtrlTransfer+0xc6>
	
	length = command->wLength;
     978:	f7 01       	movw	r30, r14
     97a:	46 81       	ldd	r20, Z+6	; 0x06
     97c:	57 81       	ldd	r21, Z+7	; 0x07

	if( length != 0 && data != NULL ){
     97e:	41 15       	cp	r20, r1
     980:	51 05       	cpc	r21, r1
     982:	b1 f1       	breq	.+108    	; 0x9f0 <SL811CtrlTransfer+0xa8>
     984:	c1 14       	cp	r12, r1
     986:	d1 04       	cpc	r13, r1
     988:	99 f1       	breq	.+102    	; 0x9f0 <SL811CtrlTransfer+0xa8>
		if( command->bmRequestType & TRANS_TO_HOST ){
     98a:	80 81       	ld	r24, Z
     98c:	87 ff       	sbrs	r24, 7
     98e:	17 c0       	rjmp	.+46     	; 0x9be <SL811CtrlTransfer+0x76>
			// Read Control
			d->rd_cmd = DATA1_RD;
     990:	83 e4       	ldi	r24, 0x43	; 67
     992:	f8 01       	movw	r30, r16
     994:	85 83       	std	Z+5, r24	; 0x05
			size = SL811ReadData(d, data, length);			// IN(DATA)
     996:	c8 01       	movw	r24, r16
     998:	b6 01       	movw	r22, r12
     99a:	0e 94 ee 01 	call	0x3dc	; 0x3dc <SL811ReadData>
     99e:	ec 01       	movw	r28, r24
			if (size < 0)	return size;
     9a0:	97 fd       	sbrc	r25, 7
     9a2:	35 c0       	rjmp	.+106    	; 0xa0e <SL811CtrlTransfer+0xc6>
			ret = size;

			d->wr_cmd = DATA1_WR;
     9a4:	87 e4       	ldi	r24, 0x47	; 71
     9a6:	f8 01       	movw	r30, r16
     9a8:	84 83       	std	Z+4, r24	; 0x04
			size = SL811WriteData(d, NULL, 0, SL811WRITE_OUT);			// OUT(STATUS)
     9aa:	c8 01       	movw	r24, r16
     9ac:	60 e0       	ldi	r22, 0x00	; 0
     9ae:	70 e0       	ldi	r23, 0x00	; 0
     9b0:	40 e0       	ldi	r20, 0x00	; 0
     9b2:	50 e0       	ldi	r21, 0x00	; 0
     9b4:	20 e0       	ldi	r18, 0x00	; 0
     9b6:	30 e0       	ldi	r19, 0x00	; 0
     9b8:	0e 94 ec 00 	call	0x1d8	; 0x1d8 <SL811WriteData>
     9bc:	16 c0       	rjmp	.+44     	; 0x9ea <SL811CtrlTransfer+0xa2>
		}else{
			// Write Control
			d->wr_cmd = DATA1_WR;
     9be:	87 e4       	ldi	r24, 0x47	; 71
     9c0:	f8 01       	movw	r30, r16
     9c2:	84 83       	std	Z+4, r24	; 0x04
			size = SL811WriteData(d, data, length, SL811WRITE_OUT);		// OUT(DATA)
     9c4:	c8 01       	movw	r24, r16
     9c6:	b6 01       	movw	r22, r12
     9c8:	20 e0       	ldi	r18, 0x00	; 0
     9ca:	30 e0       	ldi	r19, 0x00	; 0
     9cc:	0e 94 ec 00 	call	0x1d8	; 0x1d8 <SL811WriteData>
     9d0:	ec 01       	movw	r28, r24
			if (size < 0)	return size;
     9d2:	97 fd       	sbrc	r25, 7
     9d4:	1c c0       	rjmp	.+56     	; 0xa0e <SL811CtrlTransfer+0xc6>
			ret = size;

			d->rd_cmd = DATA1_RD;
     9d6:	83 e4       	ldi	r24, 0x43	; 67
     9d8:	f8 01       	movw	r30, r16
     9da:	85 83       	std	Z+5, r24	; 0x05
			size = SL811ReadData(d, NULL, 0);				// IN(STATUS)
     9dc:	c8 01       	movw	r24, r16
     9de:	60 e0       	ldi	r22, 0x00	; 0
     9e0:	70 e0       	ldi	r23, 0x00	; 0
     9e2:	40 e0       	ldi	r20, 0x00	; 0
     9e4:	50 e0       	ldi	r21, 0x00	; 0
     9e6:	0e 94 ee 01 	call	0x3dc	; 0x3dc <SL811ReadData>
     9ea:	ae 01       	movw	r20, r28
     9ec:	ec 01       	movw	r28, r24
     9ee:	0d c0       	rjmp	.+26     	; 0xa0a <SL811CtrlTransfer+0xc2>
		}
	}else{
		// No-data Control
		d->rd_cmd = DATA1_RD;
     9f0:	83 e4       	ldi	r24, 0x43	; 67
     9f2:	f8 01       	movw	r30, r16
     9f4:	85 83       	std	Z+5, r24	; 0x05
		size = SL811ReadData(d, NULL, 0);					// IN(STATUS)
     9f6:	c8 01       	movw	r24, r16
     9f8:	60 e0       	ldi	r22, 0x00	; 0
     9fa:	70 e0       	ldi	r23, 0x00	; 0
     9fc:	40 e0       	ldi	r20, 0x00	; 0
     9fe:	50 e0       	ldi	r21, 0x00	; 0
     a00:	0e 94 ee 01 	call	0x3dc	; 0x3dc <SL811ReadData>
     a04:	ec 01       	movw	r28, r24
     a06:	40 e0       	ldi	r20, 0x00	; 0
     a08:	50 e0       	ldi	r21, 0x00	; 0
		ret = 0;
	}
	if (size < 0)	return size;
     a0a:	d7 ff       	sbrs	r29, 7
     a0c:	ea 01       	movw	r28, r20
	return ret;
}
     a0e:	ce 01       	movw	r24, r28
     a10:	df 91       	pop	r29
     a12:	cf 91       	pop	r28
     a14:	1f 91       	pop	r17
     a16:	0f 91       	pop	r16
     a18:	ff 90       	pop	r15
     a1a:	ef 90       	pop	r14
     a1c:	df 90       	pop	r13
     a1e:	cf 90       	pop	r12
     a20:	08 95       	ret

00000a22 <CtrlTransfer>:
/// <returns>
/// 正常終了時 : 送信／受信したデータのサイズ
/// 不正終了時 : HANDSHAKE_NAK [-1] もしくは HANDSHAKE_STALL [-2]
/// </returns>
int CtrlTransfer(USBDevice *d, CtrlReq *command, byte *data)
{
     a22:	fc 01       	movw	r30, r24
	d->devinfo.ep = 0;
     a24:	11 82       	std	Z+1, r1	; 0x01
	return SL811CtrlTransfer(&(d->devinfo), command, data);
     a26:	0e 94 a4 04 	call	0x948	; 0x948 <SL811CtrlTransfer>
}
     a2a:	08 95       	ret

00000a2c <Get_Descriptor>:
/// <returns>
/// 正常終了時 : 受信したデータのサイズ
/// 不正終了時 : HANDSHAKE_NAK [-1] もしくは HANDSHAKE_STALL [-2]
/// </returns>
int Get_Descriptor(USBDevice *d, byte type, void *data, int length, byte index, word lang)
{
     a2c:	ef 92       	push	r14
     a2e:	ff 92       	push	r15
     a30:	0f 93       	push	r16
     a32:	df 93       	push	r29
     a34:	cf 93       	push	r28
     a36:	cd b7       	in	r28, 0x3d	; 61
     a38:	de b7       	in	r29, 0x3e	; 62
     a3a:	28 97       	sbiw	r28, 0x08	; 8
     a3c:	0f b6       	in	r0, 0x3f	; 63
     a3e:	f8 94       	cli
     a40:	de bf       	out	0x3e, r29	; 62
     a42:	0f be       	out	0x3f, r0	; 63
     a44:	cd bf       	out	0x3d, r28	; 61
     a46:	dc 01       	movw	r26, r24
     a48:	f9 01       	movw	r30, r18
	CtrlReq command;
	
	command.bmRequestType = TRANS_TO_HOST;
     a4a:	80 e8       	ldi	r24, 0x80	; 128
     a4c:	89 83       	std	Y+1, r24	; 0x01
	
	if( type == HID_TYPE || type == REPORT_TYPE )	command.bmRequestType |= TRANS_TO_IF;
     a4e:	86 2f       	mov	r24, r22
     a50:	81 52       	subi	r24, 0x21	; 33
     a52:	82 30       	cpi	r24, 0x02	; 2
     a54:	10 f4       	brcc	.+4      	; 0xa5a <Get_Descriptor+0x2e>
     a56:	81 e8       	ldi	r24, 0x81	; 129
     a58:	89 83       	std	Y+1, r24	; 0x01

	command.bRequest = GET_DESCRIPTOR;
     a5a:	86 e0       	ldi	r24, 0x06	; 6
     a5c:	8a 83       	std	Y+2, r24	; 0x02
	command.wValue = (type << 8) | index;
     a5e:	20 2f       	mov	r18, r16
     a60:	30 e0       	ldi	r19, 0x00	; 0
     a62:	96 2f       	mov	r25, r22
     a64:	80 e0       	ldi	r24, 0x00	; 0
     a66:	28 2b       	or	r18, r24
     a68:	39 2b       	or	r19, r25
     a6a:	3c 83       	std	Y+4, r19	; 0x04
     a6c:	2b 83       	std	Y+3, r18	; 0x03
	command.wIndex = lang;
     a6e:	fe 82       	std	Y+6, r15	; 0x06
     a70:	ed 82       	std	Y+5, r14	; 0x05
	command.wLength = length;
     a72:	f8 87       	std	Y+8, r31	; 0x08
     a74:	ef 83       	std	Y+7, r30	; 0x07
	
	return CtrlTransfer(d, &command, (byte*)data);
     a76:	cd 01       	movw	r24, r26
     a78:	be 01       	movw	r22, r28
     a7a:	6f 5f       	subi	r22, 0xFF	; 255
     a7c:	7f 4f       	sbci	r23, 0xFF	; 255
     a7e:	0e 94 11 05 	call	0xa22	; 0xa22 <CtrlTransfer>
}
     a82:	28 96       	adiw	r28, 0x08	; 8
     a84:	0f b6       	in	r0, 0x3f	; 63
     a86:	f8 94       	cli
     a88:	de bf       	out	0x3e, r29	; 62
     a8a:	0f be       	out	0x3f, r0	; 63
     a8c:	cd bf       	out	0x3d, r28	; 61
     a8e:	cf 91       	pop	r28
     a90:	df 91       	pop	r29
     a92:	0f 91       	pop	r16
     a94:	ff 90       	pop	r15
     a96:	ef 90       	pop	r14
     a98:	08 95       	ret

00000a9a <Set_Address>:
/// <returns>
/// 正常終了時 : 受信したデータのサイズ
/// 不正終了時 : HANDSHAKE_NAK [-1] もしくは HANDSHAKE_STALL [-2]
/// </returns>
int Set_Address(USBDevice *d, int addr)
{
     a9a:	ef 92       	push	r14
     a9c:	ff 92       	push	r15
     a9e:	0f 93       	push	r16
     aa0:	1f 93       	push	r17
     aa2:	df 93       	push	r29
     aa4:	cf 93       	push	r28
     aa6:	cd b7       	in	r28, 0x3d	; 61
     aa8:	de b7       	in	r29, 0x3e	; 62
     aaa:	28 97       	sbiw	r28, 0x08	; 8
     aac:	0f b6       	in	r0, 0x3f	; 63
     aae:	f8 94       	cli
     ab0:	de bf       	out	0x3e, r29	; 62
     ab2:	0f be       	out	0x3f, r0	; 63
     ab4:	cd bf       	out	0x3d, r28	; 61
     ab6:	7c 01       	movw	r14, r24
     ab8:	8b 01       	movw	r16, r22
	CtrlReq command;
	int ret;

	command.bmRequestType = TRANS_TO_DEV;
     aba:	19 82       	std	Y+1, r1	; 0x01
	command.bRequest = SET_ADDRESS;
     abc:	85 e0       	ldi	r24, 0x05	; 5
     abe:	8a 83       	std	Y+2, r24	; 0x02
	command.wValue = addr;
     ac0:	7c 83       	std	Y+4, r23	; 0x04
     ac2:	6b 83       	std	Y+3, r22	; 0x03
	command.wIndex = 0;
     ac4:	1e 82       	std	Y+6, r1	; 0x06
     ac6:	1d 82       	std	Y+5, r1	; 0x05
	command.wLength = 0;
     ac8:	18 86       	std	Y+8, r1	; 0x08
     aca:	1f 82       	std	Y+7, r1	; 0x07
	
	
	ret = CtrlTransfer(d, &command, NULL);
     acc:	c7 01       	movw	r24, r14
     ace:	be 01       	movw	r22, r28
     ad0:	6f 5f       	subi	r22, 0xFF	; 255
     ad2:	7f 4f       	sbci	r23, 0xFF	; 255
     ad4:	40 e0       	ldi	r20, 0x00	; 0
     ad6:	50 e0       	ldi	r21, 0x00	; 0
     ad8:	0e 94 11 05 	call	0xa22	; 0xa22 <CtrlTransfer>
     adc:	9c 01       	movw	r18, r24
	if( ret<0 )	return ret;
     ade:	97 fd       	sbrc	r25, 7
     ae0:	09 c0       	rjmp	.+18     	; 0xaf4 <Set_Address+0x5a>
	
	__device_addr[addr] = 1;
     ae2:	f8 01       	movw	r30, r16
     ae4:	e5 5d       	subi	r30, 0xD5	; 213
     ae6:	fe 4f       	sbci	r31, 0xFE	; 254
     ae8:	81 e0       	ldi	r24, 0x01	; 1
     aea:	80 83       	st	Z, r24
	d->address = addr;
     aec:	f7 01       	movw	r30, r14
     aee:	10 87       	std	Z+8, r17	; 0x08
     af0:	07 83       	std	Z+7, r16	; 0x07
/// </summary>
/// <param name="d">対象デバイス</param>
/// <param name="addr">デバイスのアドレス</param>
void SL811SetAddress(SL811USBDevInfo *d, int addr)
{
	d->addr = addr;
     af2:	00 83       	st	Z, r16
	__device_addr[addr] = 1;
	d->address = addr;
	SL811SetAddress(&(d->devinfo), addr);

	return ret;
}
     af4:	c9 01       	movw	r24, r18
     af6:	28 96       	adiw	r28, 0x08	; 8
     af8:	0f b6       	in	r0, 0x3f	; 63
     afa:	f8 94       	cli
     afc:	de bf       	out	0x3e, r29	; 62
     afe:	0f be       	out	0x3f, r0	; 63
     b00:	cd bf       	out	0x3d, r28	; 61
     b02:	cf 91       	pop	r28
     b04:	df 91       	pop	r29
     b06:	1f 91       	pop	r17
     b08:	0f 91       	pop	r16
     b0a:	ff 90       	pop	r15
     b0c:	ef 90       	pop	r14
     b0e:	08 95       	ret

00000b10 <SL811SetAddress>:
/// SL811 Set Address
/// </summary>
/// <param name="d">対象デバイス</param>
/// <param name="addr">デバイスのアドレス</param>
void SL811SetAddress(SL811USBDevInfo *d, int addr)
{
     b10:	fc 01       	movw	r30, r24
	d->addr = addr;
     b12:	60 83       	st	Z, r22
}
     b14:	08 95       	ret

00000b16 <Set_Configuration>:
/// <returns>
/// 正常終了時 : 送信したデータのサイズ
/// 不正終了時 : HANDSHAKE_NAK [-1] もしくは HANDSHAKE_STALL [-2]
/// </returns>
int Set_Configuration(USBDevice *d, int config)
{
     b16:	df 93       	push	r29
     b18:	cf 93       	push	r28
     b1a:	cd b7       	in	r28, 0x3d	; 61
     b1c:	de b7       	in	r29, 0x3e	; 62
     b1e:	28 97       	sbiw	r28, 0x08	; 8
     b20:	0f b6       	in	r0, 0x3f	; 63
     b22:	f8 94       	cli
     b24:	de bf       	out	0x3e, r29	; 62
     b26:	0f be       	out	0x3f, r0	; 63
     b28:	cd bf       	out	0x3d, r28	; 61
	CtrlReq command;
	
	command.bmRequestType = TRANS_TO_DEV;
     b2a:	19 82       	std	Y+1, r1	; 0x01
	command.bRequest = SET_CONFIG;
     b2c:	29 e0       	ldi	r18, 0x09	; 9
     b2e:	2a 83       	std	Y+2, r18	; 0x02
	command.wValue = config;
     b30:	7c 83       	std	Y+4, r23	; 0x04
     b32:	6b 83       	std	Y+3, r22	; 0x03
	command.wIndex = 0;
     b34:	1e 82       	std	Y+6, r1	; 0x06
     b36:	1d 82       	std	Y+5, r1	; 0x05
	command.wLength = 0;
     b38:	18 86       	std	Y+8, r1	; 0x08
     b3a:	1f 82       	std	Y+7, r1	; 0x07

	return CtrlTransfer(d, &command, NULL);
     b3c:	be 01       	movw	r22, r28
     b3e:	6f 5f       	subi	r22, 0xFF	; 255
     b40:	7f 4f       	sbci	r23, 0xFF	; 255
     b42:	40 e0       	ldi	r20, 0x00	; 0
     b44:	50 e0       	ldi	r21, 0x00	; 0
     b46:	0e 94 11 05 	call	0xa22	; 0xa22 <CtrlTransfer>
}
     b4a:	28 96       	adiw	r28, 0x08	; 8
     b4c:	0f b6       	in	r0, 0x3f	; 63
     b4e:	f8 94       	cli
     b50:	de bf       	out	0x3e, r29	; 62
     b52:	0f be       	out	0x3f, r0	; 63
     b54:	cd bf       	out	0x3d, r28	; 61
     b56:	cf 91       	pop	r28
     b58:	df 91       	pop	r29
     b5a:	08 95       	ret

00000b5c <Get_Configuration>:
/// <returns>
/// 正常終了時 : 受信したデータのサイズ
/// 不正終了時 : HANDSHAKE_NAK [-1] もしくは HANDSHAKE_STALL [-2]
/// </returns>
int Get_Configuration(USBDevice *d, byte *config)
{
     b5c:	df 93       	push	r29
     b5e:	cf 93       	push	r28
     b60:	cd b7       	in	r28, 0x3d	; 61
     b62:	de b7       	in	r29, 0x3e	; 62
     b64:	28 97       	sbiw	r28, 0x08	; 8
     b66:	0f b6       	in	r0, 0x3f	; 63
     b68:	f8 94       	cli
     b6a:	de bf       	out	0x3e, r29	; 62
     b6c:	0f be       	out	0x3f, r0	; 63
     b6e:	cd bf       	out	0x3d, r28	; 61
     b70:	ab 01       	movw	r20, r22
	CtrlReq command;
	
	command.bmRequestType = TRANS_TO_HOST;
     b72:	20 e8       	ldi	r18, 0x80	; 128
     b74:	29 83       	std	Y+1, r18	; 0x01
	command.bRequest = GET_CONFIG;
     b76:	28 e0       	ldi	r18, 0x08	; 8
     b78:	2a 83       	std	Y+2, r18	; 0x02
	command.wValue = 0;
     b7a:	1c 82       	std	Y+4, r1	; 0x04
     b7c:	1b 82       	std	Y+3, r1	; 0x03
	command.wIndex = 0;
     b7e:	1e 82       	std	Y+6, r1	; 0x06
     b80:	1d 82       	std	Y+5, r1	; 0x05
	command.wLength = 1;
     b82:	21 e0       	ldi	r18, 0x01	; 1
     b84:	30 e0       	ldi	r19, 0x00	; 0
     b86:	38 87       	std	Y+8, r19	; 0x08
     b88:	2f 83       	std	Y+7, r18	; 0x07

	return CtrlTransfer(d, &command, config);
     b8a:	be 01       	movw	r22, r28
     b8c:	6f 5f       	subi	r22, 0xFF	; 255
     b8e:	7f 4f       	sbci	r23, 0xFF	; 255
     b90:	0e 94 11 05 	call	0xa22	; 0xa22 <CtrlTransfer>
}
     b94:	28 96       	adiw	r28, 0x08	; 8
     b96:	0f b6       	in	r0, 0x3f	; 63
     b98:	f8 94       	cli
     b9a:	de bf       	out	0x3e, r29	; 62
     b9c:	0f be       	out	0x3f, r0	; 63
     b9e:	cd bf       	out	0x3d, r28	; 61
     ba0:	cf 91       	pop	r28
     ba2:	df 91       	pop	r29
     ba4:	08 95       	ret

00000ba6 <USBDeviceInit_in3>:
/// <returns>
/// 正常終了時 : 0
/// 不正終了時 : -1
/// </returns>
int USBDeviceInit_in3(USBDevice *d, USBDevice *parent, int speed)
{
     ba6:	af 92       	push	r10
     ba8:	bf 92       	push	r11
     baa:	cf 92       	push	r12
     bac:	df 92       	push	r13
     bae:	ef 92       	push	r14
     bb0:	ff 92       	push	r15
     bb2:	0f 93       	push	r16
     bb4:	df 93       	push	r29
     bb6:	cf 93       	push	r28
     bb8:	0f 92       	push	r0
     bba:	cd b7       	in	r28, 0x3d	; 61
     bbc:	de b7       	in	r29, 0x3e	; 62
     bbe:	6c 01       	movw	r12, r24
	
///**/	int	i, epnum;
	byte tmp;
	
	// EndPoint No. - 0, EndPointSize - 8, Retry - 12, PRE - Preamble, Address - 0
	SL811DeviceInit(&(d->devinfo), 0, 8, 12 + ((parent != NULL && speed == USB_LOW) ? 8 : 0), ((parent != NULL && speed == USB_LOW) ? 1 : 0), 0);
     bc0:	67 2b       	or	r22, r23
     bc2:	41 f0       	breq	.+16     	; 0xbd4 <USBDeviceInit_in3+0x2e>
     bc4:	41 30       	cpi	r20, 0x01	; 1
     bc6:	51 05       	cpc	r21, r1
     bc8:	29 f4       	brne	.+10     	; 0xbd4 <USBDeviceInit_in3+0x2e>
     bca:	61 e0       	ldi	r22, 0x01	; 1
     bcc:	70 e0       	ldi	r23, 0x00	; 0
     bce:	24 e1       	ldi	r18, 0x14	; 20
     bd0:	30 e0       	ldi	r19, 0x00	; 0
     bd2:	04 c0       	rjmp	.+8      	; 0xbdc <USBDeviceInit_in3+0x36>
     bd4:	60 e0       	ldi	r22, 0x00	; 0
     bd6:	70 e0       	ldi	r23, 0x00	; 0
     bd8:	2c e0       	ldi	r18, 0x0C	; 12
     bda:	30 e0       	ldi	r19, 0x00	; 0
/// <param name="retry">リトライ回数</param>
/// <param name="pre">プリアンブルパケットの有無</param>
/// <param name="addr">デバイスのアドレス</param>
void SL811DeviceInit(SL811USBDevInfo *d, int ep, int epsize, int retry, int pre, int addr)
{
	d->ep = ep;
     bdc:	d6 01       	movw	r26, r12
     bde:	11 96       	adiw	r26, 0x01	; 1
     be0:	1c 92       	st	X, r1
     be2:	11 97       	sbiw	r26, 0x01	; 1
	d->epsize = epsize;
     be4:	88 e0       	ldi	r24, 0x08	; 8
     be6:	12 96       	adiw	r26, 0x02	; 2
     be8:	8c 93       	st	X, r24
     bea:	12 97       	sbiw	r26, 0x02	; 2
	d->retry = retry;
     bec:	13 96       	adiw	r26, 0x03	; 3
     bee:	2c 93       	st	X, r18
	d->pre = (pre) ? (PREAMBLE) : (0x00);
     bf0:	67 2b       	or	r22, r23
     bf2:	11 f4       	brne	.+4      	; 0xbf8 <USBDeviceInit_in3+0x52>
     bf4:	80 e0       	ldi	r24, 0x00	; 0
     bf6:	01 c0       	rjmp	.+2      	; 0xbfa <USBDeviceInit_in3+0x54>
     bf8:	80 e8       	ldi	r24, 0x80	; 128
     bfa:	f6 01       	movw	r30, r12
     bfc:	86 83       	std	Z+6, r24	; 0x06
	d->addr = addr;
     bfe:	10 82       	st	Z, r1
///**/	int	i, epnum;
	byte tmp;
	
	// EndPoint No. - 0, EndPointSize - 8, Retry - 12, PRE - Preamble, Address - 0
	SL811DeviceInit(&(d->devinfo), 0, 8, 12 + ((parent != NULL && speed == USB_LOW) ? 8 : 0), ((parent != NULL && speed == USB_LOW) ? 1 : 0), 0);
	d->speed = speed;
     c00:	52 87       	std	Z+10, r21	; 0x0a
     c02:	41 87       	std	Z+9, r20	; 0x09
	
	// デバイスディスクプリタの仮取得
///**/	DBG("GET Device Descriptor\n");
	if( Get_Descriptor(d, DEVICE_TYPE, &(d->devdesc), 8, 0, 0) < 0 )	return -1;
     c04:	fb e0       	ldi	r31, 0x0B	; 11
     c06:	af 2e       	mov	r10, r31
     c08:	b1 2c       	mov	r11, r1
     c0a:	ac 0c       	add	r10, r12
     c0c:	bd 1c       	adc	r11, r13
     c0e:	c6 01       	movw	r24, r12
     c10:	61 e0       	ldi	r22, 0x01	; 1
     c12:	a5 01       	movw	r20, r10
     c14:	28 e0       	ldi	r18, 0x08	; 8
     c16:	30 e0       	ldi	r19, 0x00	; 0
     c18:	00 e0       	ldi	r16, 0x00	; 0
     c1a:	ee 24       	eor	r14, r14
     c1c:	ff 24       	eor	r15, r15
     c1e:	0e 94 16 05 	call	0xa2c	; 0xa2c <Get_Descriptor>
     c22:	97 fd       	sbrc	r25, 7
     c24:	81 c0       	rjmp	.+258    	; 0xd28 <USBDeviceInit_in3+0x182>

	// エンドポイントサイズの設定
	SL811DeviceInit(&(d->devinfo), 0, d->devdesc.bMaxPacketSize0, 20, 0, 0);
     c26:	d6 01       	movw	r26, r12
     c28:	52 96       	adiw	r26, 0x12	; 18
     c2a:	8c 91       	ld	r24, X
     c2c:	52 97       	sbiw	r26, 0x12	; 18
/// <param name="retry">リトライ回数</param>
/// <param name="pre">プリアンブルパケットの有無</param>
/// <param name="addr">デバイスのアドレス</param>
void SL811DeviceInit(SL811USBDevInfo *d, int ep, int epsize, int retry, int pre, int addr)
{
	d->ep = ep;
     c2e:	11 96       	adiw	r26, 0x01	; 1
     c30:	1c 92       	st	X, r1
     c32:	11 97       	sbiw	r26, 0x01	; 1
	d->epsize = epsize;
     c34:	12 96       	adiw	r26, 0x02	; 2
     c36:	8c 93       	st	X, r24
     c38:	12 97       	sbiw	r26, 0x02	; 2
	d->retry = retry;
     c3a:	84 e1       	ldi	r24, 0x14	; 20
     c3c:	13 96       	adiw	r26, 0x03	; 3
     c3e:	8c 93       	st	X, r24
     c40:	13 97       	sbiw	r26, 0x03	; 3
	d->pre = (pre) ? (PREAMBLE) : (0x00);
     c42:	16 96       	adiw	r26, 0x06	; 6
     c44:	1c 92       	st	X, r1
     c46:	16 97       	sbiw	r26, 0x06	; 6
	d->addr = addr;
     c48:	1c 92       	st	X, r1
	SL811DeviceInit(&(d->devinfo), 0, d->devdesc.bMaxPacketSize0, 20, 0, 0);
	
	// デバイスアドレスをセット
///**/	DBG("SET Device Address\n");
	devaddr = 1;
	if( Set_Address(d, devaddr) == -1 )	return -1;
     c4a:	c6 01       	movw	r24, r12
     c4c:	61 e0       	ldi	r22, 0x01	; 1
     c4e:	70 e0       	ldi	r23, 0x00	; 0
     c50:	0e 94 4d 05 	call	0xa9a	; 0xa9a <Set_Address>
     c54:	8f 5f       	subi	r24, 0xFF	; 255
     c56:	9f 4f       	sbci	r25, 0xFF	; 255
     c58:	09 f4       	brne	.+2      	; 0xc5c <USBDeviceInit_in3+0xb6>
     c5a:	66 c0       	rjmp	.+204    	; 0xd28 <USBDeviceInit_in3+0x182>
	
	// デバイスディスクプリタの取得
///**/	DBG("GET Device Descriptor\n");
	if( Get_Descriptor(d, DEVICE_TYPE, &(d->devdesc), sizeof(DevDesc), 0, 0) < 0 )	return -1;
     c5c:	c6 01       	movw	r24, r12
     c5e:	61 e0       	ldi	r22, 0x01	; 1
     c60:	a5 01       	movw	r20, r10
     c62:	22 e1       	ldi	r18, 0x12	; 18
     c64:	30 e0       	ldi	r19, 0x00	; 0
     c66:	0e 94 16 05 	call	0xa2c	; 0xa2c <Get_Descriptor>
     c6a:	97 fd       	sbrc	r25, 7
     c6c:	5d c0       	rjmp	.+186    	; 0xd28 <USBDeviceInit_in3+0x182>

	// コンフィグレーションディスクプリタの仮取得
///**/	DBG("GET Configuration Descriptor\n");
	if( Get_Descriptor(d, CONFIG_TYPE, &config, sizeof(CfgDesc), 0, 0) < 0 )	return -1;
     c6e:	e7 ed       	ldi	r30, 0xD7	; 215
     c70:	ae 2e       	mov	r10, r30
     c72:	e2 e0       	ldi	r30, 0x02	; 2
     c74:	be 2e       	mov	r11, r30
     c76:	c6 01       	movw	r24, r12
     c78:	62 e0       	ldi	r22, 0x02	; 2
     c7a:	a5 01       	movw	r20, r10
     c7c:	29 e0       	ldi	r18, 0x09	; 9
     c7e:	30 e0       	ldi	r19, 0x00	; 0
     c80:	0e 94 16 05 	call	0xa2c	; 0xa2c <Get_Descriptor>
     c84:	97 fd       	sbrc	r25, 7
     c86:	50 c0       	rjmp	.+160    	; 0xd28 <USBDeviceInit_in3+0x182>

	// コンフィグレーションディスクプリタの取得
///**/	DBG("GET Configuration Descriptor\n");
	d->cfgdesc = &config;
     c88:	f6 01       	movw	r30, r12
     c8a:	b6 8e       	std	Z+30, r11	; 0x1e
     c8c:	a5 8e       	std	Z+29, r10	; 0x1d
	if( Get_Descriptor(d, CONFIG_TYPE, d->cfgdesc, config.wTotalLength, 0, 0) < 0 )	return -1;
     c8e:	20 91 d9 02 	lds	r18, 0x02D9
     c92:	30 91 da 02 	lds	r19, 0x02DA
     c96:	c6 01       	movw	r24, r12
     c98:	62 e0       	ldi	r22, 0x02	; 2
     c9a:	a5 01       	movw	r20, r10
     c9c:	0e 94 16 05 	call	0xa2c	; 0xa2c <Get_Descriptor>
     ca0:	97 fd       	sbrc	r25, 7
     ca2:	42 c0       	rjmp	.+132    	; 0xd28 <USBDeviceInit_in3+0x182>
	
	// ポインタのセット
	d->intfdesc = (IntfDesc*)((byte*)d->cfgdesc + d->cfgdesc->bLength);
     ca4:	d6 01       	movw	r26, r12
     ca6:	5d 96       	adiw	r26, 0x1d	; 29
     ca8:	ed 91       	ld	r30, X+
     caa:	fc 91       	ld	r31, X
     cac:	5e 97       	sbiw	r26, 0x1e	; 30
     cae:	80 81       	ld	r24, Z
     cb0:	e8 0f       	add	r30, r24
     cb2:	f1 1d       	adc	r31, r1
     cb4:	90 96       	adiw	r26, 0x20	; 32
     cb6:	fc 93       	st	X, r31
     cb8:	ee 93       	st	-X, r30
     cba:	5f 97       	sbiw	r26, 0x1f	; 31

	if( d->devdesc.bDeviceClass == 0x00 &&
     cbc:	1f 96       	adiw	r26, 0x0f	; 15
     cbe:	8c 91       	ld	r24, X
     cc0:	1f 97       	sbiw	r26, 0x0f	; 15
     cc2:	88 23       	and	r24, r24
     cc4:	71 f4       	brne	.+28     	; 0xce2 <USBDeviceInit_in3+0x13c>
     cc6:	85 81       	ldd	r24, Z+5	; 0x05
     cc8:	83 30       	cpi	r24, 0x03	; 3
     cca:	59 f4       	brne	.+22     	; 0xce2 <USBDeviceInit_in3+0x13c>
		d->intfdesc->bInterfaceClass == HID_CLASS ){
		
		d->hiddesc = (HIDDesc*)((byte*)d->intfdesc + d->intfdesc->bLength);
     ccc:	80 81       	ld	r24, Z
     cce:	e8 0f       	add	r30, r24
     cd0:	f1 1d       	adc	r31, r1
     cd2:	92 96       	adiw	r26, 0x22	; 34
     cd4:	fc 93       	st	X, r31
     cd6:	ee 93       	st	-X, r30
     cd8:	91 97       	sbiw	r26, 0x21	; 33
		d->epdesc = (EPDesc*)((byte*)d->hiddesc + d->hiddesc->bLength);
     cda:	80 81       	ld	r24, Z
     cdc:	e8 0f       	add	r30, r24
     cde:	f1 1d       	adc	r31, r1
     ce0:	0c c0       	rjmp	.+24     	; 0xcfa <USBDeviceInit_in3+0x154>
//			d->repdesc = &reprt;//&_repdesc;//(RptDesc*)malloc( (d->hiddesc->Report[0].wDescriptorLength) );
//			Get_Descriptor(d, REPORT_TYPE, d->repdesc, d->hiddesc->Report[0].wDescriptorLength, 0, 0);
//			DBG("GET Report Descriptor END\n");
		}
	}else{
		d->hiddesc = NULL;
     ce2:	f6 01       	movw	r30, r12
     ce4:	12 a2       	std	Z+34, r1	; 0x22
     ce6:	11 a2       	std	Z+33, r1	; 0x21
		d->repdesc = NULL;
     ce8:	14 a2       	std	Z+36, r1	; 0x24
     cea:	13 a2       	std	Z+35, r1	; 0x23
		d->epdesc = (EPDesc*)((byte*)d->intfdesc + d->intfdesc->bLength);
     cec:	07 8c       	ldd	r0, Z+31	; 0x1f
     cee:	f0 a1       	ldd	r31, Z+32	; 0x20
     cf0:	e0 2d       	mov	r30, r0
     cf2:	80 81       	ld	r24, Z
     cf4:	e8 0f       	add	r30, r24
     cf6:	f1 1d       	adc	r31, r1
     cf8:	d6 01       	movw	r26, r12
     cfa:	96 96       	adiw	r26, 0x26	; 38
     cfc:	fc 93       	st	X, r31
     cfe:	ee 93       	st	-X, r30
     d00:	95 97       	sbiw	r26, 0x25	; 37
	}
	
	// コンフィギュレーションの設定
///**/	DBG("SET Configuration\n");
	Set_Configuration(d, d->cfgdesc->bConfigurationValue);
     d02:	d6 01       	movw	r26, r12
     d04:	5d 96       	adiw	r26, 0x1d	; 29
     d06:	ed 91       	ld	r30, X+
     d08:	fc 91       	ld	r31, X
     d0a:	5e 97       	sbiw	r26, 0x1e	; 30
     d0c:	65 81       	ldd	r22, Z+5	; 0x05
     d0e:	c6 01       	movw	r24, r12
     d10:	70 e0       	ldi	r23, 0x00	; 0
     d12:	0e 94 8b 05 	call	0xb16	; 0xb16 <Set_Configuration>
	
	// 情報の表示
	
	Get_Configuration(d, &tmp);
     d16:	c6 01       	movw	r24, r12
     d18:	be 01       	movw	r22, r28
     d1a:	6f 5f       	subi	r22, 0xFF	; 255
     d1c:	7f 4f       	sbci	r23, 0xFF	; 255
     d1e:	0e 94 ae 05 	call	0xb5c	; 0xb5c <Get_Configuration>
     d22:	20 e0       	ldi	r18, 0x00	; 0
     d24:	30 e0       	ldi	r19, 0x00	; 0
     d26:	02 c0       	rjmp	.+4      	; 0xd2c <USBDeviceInit_in3+0x186>

	for( i=0; i<epnum; i++){
		print_desc(&d->epdesc[i], ENDPOINT_TYPE);
	}	
*/
	return 0;
     d28:	2f ef       	ldi	r18, 0xFF	; 255
     d2a:	3f ef       	ldi	r19, 0xFF	; 255
}
     d2c:	c9 01       	movw	r24, r18
     d2e:	0f 90       	pop	r0
     d30:	cf 91       	pop	r28
     d32:	df 91       	pop	r29
     d34:	0f 91       	pop	r16
     d36:	ff 90       	pop	r15
     d38:	ef 90       	pop	r14
     d3a:	df 90       	pop	r13
     d3c:	cf 90       	pop	r12
     d3e:	bf 90       	pop	r11
     d40:	af 90       	pop	r10
     d42:	08 95       	ret

00000d44 <Get_Report>:
/// <returns>
/// 正常終了時 : 受信したデータのサイズ
/// 不正終了時 : HANDSHAKE_NAK [-1] もしくは HANDSHAKE_STALL [-2]
/// </returns>
int Get_Report(USBDevice *d, word type, byte *data, size_t length, byte report_id, word intf)
{
     d44:	ef 92       	push	r14
     d46:	ff 92       	push	r15
     d48:	0f 93       	push	r16
     d4a:	1f 93       	push	r17
     d4c:	df 93       	push	r29
     d4e:	cf 93       	push	r28
     d50:	cd b7       	in	r28, 0x3d	; 61
     d52:	de b7       	in	r29, 0x3e	; 62
     d54:	28 97       	sbiw	r28, 0x08	; 8
     d56:	0f b6       	in	r0, 0x3f	; 63
     d58:	f8 94       	cli
     d5a:	de bf       	out	0x3e, r29	; 62
     d5c:	0f be       	out	0x3f, r0	; 63
     d5e:	cd bf       	out	0x3d, r28	; 61
	CtrlReq command;
	
	command.bmRequestType = TRANS_TO_HOST | TRANS_TO_IF | TYPE_CLASS;
     d60:	71 ea       	ldi	r23, 0xA1	; 161
     d62:	79 83       	std	Y+1, r23	; 0x01
	command.bRequest = GET_REPORT;
     d64:	71 e0       	ldi	r23, 0x01	; 1
     d66:	7a 83       	std	Y+2, r23	; 0x02
	command.wValue = ((type << 8) | report_id);
     d68:	10 e0       	ldi	r17, 0x00	; 0
     d6a:	f6 2f       	mov	r31, r22
     d6c:	e0 e0       	ldi	r30, 0x00	; 0
     d6e:	0e 2b       	or	r16, r30
     d70:	1f 2b       	or	r17, r31
     d72:	1c 83       	std	Y+4, r17	; 0x04
     d74:	0b 83       	std	Y+3, r16	; 0x03
	command.wIndex = intf;
     d76:	fe 82       	std	Y+6, r15	; 0x06
     d78:	ed 82       	std	Y+5, r14	; 0x05
	command.wLength = length;
     d7a:	38 87       	std	Y+8, r19	; 0x08
     d7c:	2f 83       	std	Y+7, r18	; 0x07

	return CtrlTransfer(d, &command, data);
     d7e:	be 01       	movw	r22, r28
     d80:	6f 5f       	subi	r22, 0xFF	; 255
     d82:	7f 4f       	sbci	r23, 0xFF	; 255
     d84:	0e 94 11 05 	call	0xa22	; 0xa22 <CtrlTransfer>
}
     d88:	28 96       	adiw	r28, 0x08	; 8
     d8a:	0f b6       	in	r0, 0x3f	; 63
     d8c:	f8 94       	cli
     d8e:	de bf       	out	0x3e, r29	; 62
     d90:	0f be       	out	0x3f, r0	; 63
     d92:	cd bf       	out	0x3d, r28	; 61
     d94:	cf 91       	pop	r28
     d96:	df 91       	pop	r29
     d98:	1f 91       	pop	r17
     d9a:	0f 91       	pop	r16
     d9c:	ff 90       	pop	r15
     d9e:	ef 90       	pop	r14
     da0:	08 95       	ret

00000da2 <USBAddIntTxTask>:
/// <returns>
/// 正常終了時 : 0
/// 不正終了時 : -1
/// </returns>
int USBAddIntTxTask(USBDevice *d, int ep, int interval, void (*fp)(USBDevice*))
{
     da2:	cf 92       	push	r12
     da4:	df 92       	push	r13
     da6:	ef 92       	push	r14
     da8:	ff 92       	push	r15
     daa:	0f 93       	push	r16
     dac:	1f 93       	push	r17
     dae:	cf 93       	push	r28
     db0:	df 93       	push	r29
     db2:	ec 01       	movw	r28, r24
     db4:	7a 01       	movw	r14, r20
     db6:	69 01       	movw	r12, r18
	
	USBIntQueueItem	*newitem;
	int i;
	char flag;
	
	if( ep < 1 || ep > 15 )	return -1;
     db8:	cb 01       	movw	r24, r22
     dba:	01 97       	sbiw	r24, 0x01	; 1
     dbc:	0f 97       	sbiw	r24, 0x0f	; 15
     dbe:	08 f0       	brcs	.+2      	; 0xdc2 <USBAddIntTxTask+0x20>
     dc0:	51 c0       	rjmp	.+162    	; 0xe64 <USBAddIntTxTask+0xc2>
	
	flag = 0;
	for( i=0; i < d->intfdesc->bNumEndpoints; i++ ){
     dc2:	ef 8d       	ldd	r30, Y+31	; 0x1f
     dc4:	f8 a1       	ldd	r31, Y+32	; 0x20
     dc6:	84 81       	ldd	r24, Z+4	; 0x04
     dc8:	08 2f       	mov	r16, r24
     dca:	10 e0       	ldi	r17, 0x00	; 0
     dcc:	20 e0       	ldi	r18, 0x00	; 0
     dce:	30 e0       	ldi	r19, 0x00	; 0
     dd0:	40 e0       	ldi	r20, 0x00	; 0
     dd2:	50 e0       	ldi	r21, 0x00	; 0
     dd4:	10 c0       	rjmp	.+32     	; 0xdf6 <USBAddIntTxTask+0x54>
		if( (d->epdesc[i].bEndpointAddress & EPADDR_MASK_ADDRESS) == ep ){
     dd6:	ad a1       	ldd	r26, Y+37	; 0x25
     dd8:	be a1       	ldd	r27, Y+38	; 0x26
     dda:	fd 01       	movw	r30, r26
     ddc:	e4 0f       	add	r30, r20
     dde:	f5 1f       	adc	r31, r21
     de0:	82 81       	ldd	r24, Z+2	; 0x02
     de2:	90 e0       	ldi	r25, 0x00	; 0
     de4:	8f 70       	andi	r24, 0x0F	; 15
     de6:	90 70       	andi	r25, 0x00	; 0
     de8:	49 5f       	subi	r20, 0xF9	; 249
     dea:	5f 4f       	sbci	r21, 0xFF	; 255
     dec:	86 17       	cp	r24, r22
     dee:	97 07       	cpc	r25, r23
     df0:	31 f0       	breq	.+12     	; 0xdfe <USBAddIntTxTask+0x5c>
	char flag;
	
	if( ep < 1 || ep > 15 )	return -1;
	
	flag = 0;
	for( i=0; i < d->intfdesc->bNumEndpoints; i++ ){
     df2:	2f 5f       	subi	r18, 0xFF	; 255
     df4:	3f 4f       	sbci	r19, 0xFF	; 255
     df6:	20 17       	cp	r18, r16
     df8:	31 07       	cpc	r19, r17
     dfa:	6c f3       	brlt	.-38     	; 0xdd6 <USBAddIntTxTask+0x34>
     dfc:	33 c0       	rjmp	.+102    	; 0xe64 <USBAddIntTxTask+0xc2>
		if( (d->epdesc[i].bEndpointAddress & EPADDR_MASK_ADDRESS) == ep ){
			flag = 1;
			break;
		}
	}
	if( !flag || ((d->epdesc[i].bmAttributes) & 0x03 != 3) ||  (d->epdesc[i].bInterval == 0) )	return -1;
     dfe:	c9 01       	movw	r24, r18
     e00:	13 e0       	ldi	r17, 0x03	; 3
     e02:	88 0f       	add	r24, r24
     e04:	99 1f       	adc	r25, r25
     e06:	1a 95       	dec	r17
     e08:	e1 f7       	brne	.-8      	; 0xe02 <USBAddIntTxTask+0x60>
     e0a:	82 1b       	sub	r24, r18
     e0c:	93 0b       	sbc	r25, r19
     e0e:	a8 0f       	add	r26, r24
     e10:	b9 1f       	adc	r27, r25
     e12:	16 96       	adiw	r26, 0x06	; 6
     e14:	8c 91       	ld	r24, X
     e16:	88 23       	and	r24, r24
     e18:	29 f1       	breq	.+74     	; 0xe64 <USBAddIntTxTask+0xc2>

	newitem = &_newitem;
	
	newitem->device = d;
     e1a:	d0 93 31 02 	sts	0x0231, r29
     e1e:	c0 93 30 02 	sts	0x0230, r28
	newitem->ep = ep;
     e22:	70 93 33 02 	sts	0x0233, r23
     e26:	60 93 32 02 	sts	0x0232, r22
	newitem->handler = fp;
     e2a:	d0 92 35 02 	sts	0x0235, r13
     e2e:	c0 92 34 02 	sts	0x0234, r12
	newitem->interval = interval;
     e32:	f0 92 2d 02 	sts	0x022D, r15
     e36:	e0 92 2c 02 	sts	0x022C, r14
	newitem->cnt = interval;
     e3a:	f0 92 2f 02 	sts	0x022F, r15
     e3e:	e0 92 2e 02 	sts	0x022E, r14
	
	newitem->next = usbqueue;
     e42:	80 91 ab 01 	lds	r24, 0x01AB
     e46:	90 91 ac 01 	lds	r25, 0x01AC
     e4a:	90 93 37 02 	sts	0x0237, r25
     e4e:	80 93 36 02 	sts	0x0236, r24
	usbqueue = newitem;	// ポインタのつなぎかえ
     e52:	8c e2       	ldi	r24, 0x2C	; 44
     e54:	92 e0       	ldi	r25, 0x02	; 2
     e56:	90 93 ac 01 	sts	0x01AC, r25
     e5a:	80 93 ab 01 	sts	0x01AB, r24
     e5e:	20 e0       	ldi	r18, 0x00	; 0
     e60:	30 e0       	ldi	r19, 0x00	; 0
     e62:	02 c0       	rjmp	.+4      	; 0xe68 <USBAddIntTxTask+0xc6>

	return 0;
     e64:	2f ef       	ldi	r18, 0xFF	; 255
     e66:	3f ef       	ldi	r19, 0xFF	; 255
}
     e68:	c9 01       	movw	r24, r18
     e6a:	df 91       	pop	r29
     e6c:	cf 91       	pop	r28
     e6e:	1f 91       	pop	r17
     e70:	0f 91       	pop	r16
     e72:	ff 90       	pop	r15
     e74:	ef 90       	pop	r14
     e76:	df 90       	pop	r13
     e78:	cf 90       	pop	r12
     e7a:	08 95       	ret

00000e7c <Sony_SIXAXIS_Init>:
/// <returns>
/// 正常終了時 : 0
/// 不正終了時 : -1
/// </returns>
int Sony_SIXAXIS_Init(USBDevice *d)
{
     e7c:	cf 92       	push	r12
     e7e:	df 92       	push	r13
     e80:	ef 92       	push	r14
     e82:	ff 92       	push	r15
     e84:	0f 93       	push	r16
     e86:	cf 93       	push	r28
     e88:	df 93       	push	r29
     e8a:	6c 01       	movw	r12, r24
	int i;
	
	_sixaxis_buf_index = 0;
     e8c:	10 92 0f 02 	sts	0x020F, r1
     e90:	c0 e0       	ldi	r28, 0x00	; 0
     e92:	d0 e0       	ldi	r29, 0x00	; 0
/// </returns>
static int Sony_SIXAXIS_Special_Request(USBDevice *d)
{
	int ret;

	ret = Get_Report(
     e94:	d6 01       	movw	r26, r12
     e96:	5f 96       	adiw	r26, 0x1f	; 31
     e98:	ed 91       	ld	r30, X+
     e9a:	fc 91       	ld	r31, X
     e9c:	90 97       	sbiw	r26, 0x20	; 32
     e9e:	e2 80       	ldd	r14, Z+2	; 0x02
     ea0:	c6 01       	movw	r24, r12
     ea2:	63 e0       	ldi	r22, 0x03	; 3
     ea4:	70 e0       	ldi	r23, 0x00	; 0
     ea6:	40 e1       	ldi	r20, 0x10	; 16
     ea8:	52 e0       	ldi	r21, 0x02	; 2
     eaa:	21 e1       	ldi	r18, 0x11	; 17
     eac:	30 e0       	ldi	r19, 0x00	; 0
     eae:	02 ef       	ldi	r16, 0xF2	; 242
     eb0:	ff 24       	eor	r15, r15
     eb2:	0e 94 a2 06 	call	0xd44	; 0xd44 <Get_Report>
	int i;
	
	_sixaxis_buf_index = 0;
	
	for( i=0; i<10; i++ ){
		if( Sony_SIXAXIS_Special_Request(d) >= 0 ){
     eb6:	97 ff       	sbrs	r25, 7
     eb8:	07 c0       	rjmp	.+14     	; 0xec8 <Sony_SIXAXIS_Init+0x4c>
{
	int i;
	
	_sixaxis_buf_index = 0;
	
	for( i=0; i<10; i++ ){
     eba:	21 96       	adiw	r28, 0x01	; 1
     ebc:	ca 30       	cpi	r28, 0x0A	; 10
     ebe:	d1 05       	cpc	r29, r1
     ec0:	49 f7       	brne	.-46     	; 0xe94 <Sony_SIXAXIS_Init+0x18>
     ec2:	2f ef       	ldi	r18, 0xFF	; 255
     ec4:	3f ef       	ldi	r19, 0xFF	; 255
     ec6:	0a c0       	rjmp	.+20     	; 0xedc <Sony_SIXAXIS_Init+0x60>
			break;
		}
	}
	if( i != 0 )	return -1;
	
	return USBAddIntTxTask(d, 1, 15, Sony_SIXAXIS_IntTask);
     ec8:	c6 01       	movw	r24, r12
     eca:	61 e0       	ldi	r22, 0x01	; 1
     ecc:	70 e0       	ldi	r23, 0x00	; 0
     ece:	4f e0       	ldi	r20, 0x0F	; 15
     ed0:	50 e0       	ldi	r21, 0x00	; 0
     ed2:	25 e8       	ldi	r18, 0x85	; 133
     ed4:	37 e0       	ldi	r19, 0x07	; 7
     ed6:	0e 94 d1 06 	call	0xda2	; 0xda2 <USBAddIntTxTask>
     eda:	9c 01       	movw	r18, r24
}
     edc:	c9 01       	movw	r24, r18
     ede:	df 91       	pop	r29
     ee0:	cf 91       	pop	r28
     ee2:	0f 91       	pop	r16
     ee4:	ff 90       	pop	r15
     ee6:	ef 90       	pop	r14
     ee8:	df 90       	pop	r13
     eea:	cf 90       	pop	r12
     eec:	08 95       	ret

00000eee <SL811IntInTransfer>:
/// <returns>
/// 正常終了時 : 受信したデータのサイズ
/// 不正終了時 : SL811_HANDSHAKE_NAK [-1] もしくは SL811_HANDSHAKE_STALL [-2]
/// </returns>
int SL811IntInTransfer(SL811USBDevInfo *d, unsigned char *data, int size)
{
     eee:	fc 01       	movw	r30, r24
	d->rd_cmd = DATA0_RD;
     ef0:	83 e0       	ldi	r24, 0x03	; 3
     ef2:	85 83       	std	Z+5, r24	; 0x05
	return SL811ReadData(d, data, size);
     ef4:	cf 01       	movw	r24, r30
     ef6:	0e 94 ee 01 	call	0x3dc	; 0x3dc <SL811ReadData>
}
     efa:	08 95       	ret

00000efc <IntInTransfer>:
/// <returns>
/// 正常終了時 : 受信したデータのサイズ
/// 不正終了時 : HANDSHAKE_NAK [-1] もしくは HANDSHAKE_STALL [-2]
/// </returns>
int IntInTransfer(USBDevice *d, int ep, byte *data, int size)
{
     efc:	fc 01       	movw	r30, r24
	d->devinfo.ep = ep;
     efe:	61 83       	std	Z+1, r22	; 0x01
	return SL811IntInTransfer(&(d->devinfo), data, size);
     f00:	ba 01       	movw	r22, r20
     f02:	a9 01       	movw	r20, r18
     f04:	0e 94 77 07 	call	0xeee	; 0xeee <SL811IntInTransfer>
}
     f08:	08 95       	ret

00000f0a <Sony_SIXAXIS_IntTask>:
/// <summary>
/// Sony SIXAXIS Interrupt Transfer Task
/// </summary>
/// <param name="d">対象デバイス</param>
static void Sony_SIXAXIS_IntTask(USBDevice *d)
{
     f0a:	fc 01       	movw	r30, r24
	int tmp;
	
	tmp = IntInTransfer(d, 1, &(_sixaxis_buf[0][_sixaxis_buf_index]), SIXAXIS_DATA_LENGTH);
     f0c:	80 91 0f 02 	lds	r24, 0x020F
     f10:	6f ea       	ldi	r22, 0xAF	; 175
     f12:	71 e0       	ldi	r23, 0x01	; 1
     f14:	68 0f       	add	r22, r24
     f16:	71 1d       	adc	r23, r1
/// 正常終了時 : 受信したデータのサイズ
/// 不正終了時 : HANDSHAKE_NAK [-1] もしくは HANDSHAKE_STALL [-2]
/// </returns>
int IntInTransfer(USBDevice *d, int ep, byte *data, int size)
{
	d->devinfo.ep = ep;
     f18:	81 e0       	ldi	r24, 0x01	; 1
     f1a:	81 83       	std	Z+1, r24	; 0x01
	return SL811IntInTransfer(&(d->devinfo), data, size);
     f1c:	cf 01       	movw	r24, r30
     f1e:	40 e3       	ldi	r20, 0x30	; 48
     f20:	50 e0       	ldi	r21, 0x00	; 0
     f22:	0e 94 77 07 	call	0xeee	; 0xeee <SL811IntInTransfer>
static void Sony_SIXAXIS_IntTask(USBDevice *d)
{
	int tmp;
	
	tmp = IntInTransfer(d, 1, &(_sixaxis_buf[0][_sixaxis_buf_index]), SIXAXIS_DATA_LENGTH);
}
     f26:	08 95       	ret

00000f28 <Toggle_SIXAXIS_Buffer>:
/// <returns>現在（直前）のバッファへのアドレス</returns>
unsigned char *Toggle_SIXAXIS_Buffer(void)
{
	unsigned char *ret;
	
	ret = &(_sixaxis_buf[0][_sixaxis_buf_index]);
     f28:	20 91 0f 02 	lds	r18, 0x020F
	_sixaxis_buf_index = (_sixaxis_buf_index == 1) ? 0 : 1;
     f2c:	10 92 0f 02 	sts	0x020F, r1
     f30:	21 30       	cpi	r18, 0x01	; 1
     f32:	19 f0       	breq	.+6      	; 0xf3a <Toggle_SIXAXIS_Buffer+0x12>
     f34:	81 e0       	ldi	r24, 0x01	; 1
     f36:	80 93 0f 02 	sts	0x020F, r24
     f3a:	30 e0       	ldi	r19, 0x00	; 0
     f3c:	21 55       	subi	r18, 0x51	; 81
     f3e:	3e 4f       	sbci	r19, 0xFE	; 254
	
	return ret;
}
     f40:	c9 01       	movw	r24, r18
     f42:	08 95       	ret

00000f44 <Toggle_RC_Tx_Buffer>:
/// <returns>現在（直前）のバッファへのアドレス</returns>
union controller_data *Toggle_RC_Tx_Buffer(void)
{
	union controller_data *ret;
	
	ret = &(_rc_tx_buf[_rc_tx_buf_selector]);
     f44:	20 91 29 02 	lds	r18, 0x0229
	_rc_tx_buf_selector = (_rc_tx_buf_selector == 1) ? 0 : 1;
     f48:	10 92 29 02 	sts	0x0229, r1
     f4c:	21 30       	cpi	r18, 0x01	; 1
     f4e:	19 f0       	breq	.+6      	; 0xf56 <Toggle_RC_Tx_Buffer+0x12>
     f50:	81 e0       	ldi	r24, 0x01	; 1
     f52:	80 93 29 02 	sts	0x0229, r24
	_rc_tx_buf_index = 0;
     f56:	10 92 2b 02 	sts	0x022B, r1
     f5a:	10 92 2a 02 	sts	0x022A, r1
     f5e:	30 e0       	ldi	r19, 0x00	; 0
     f60:	22 0f       	add	r18, r18
     f62:	33 1f       	adc	r19, r19
     f64:	22 0f       	add	r18, r18
     f66:	33 1f       	adc	r19, r19
     f68:	2f 5d       	subi	r18, 0xDF	; 223
     f6a:	3d 4f       	sbci	r19, 0xFD	; 253

	return ret;
}
     f6c:	c9 01       	movw	r24, r18
     f6e:	08 95       	ret

00000f70 <controler_main_process_loop>:

void controler_main_process_loop(void)
{
     f70:	ef 92       	push	r14
     f72:	ff 92       	push	r15
     f74:	0f 93       	push	r16
     f76:	1f 93       	push	r17
     f78:	cf 93       	push	r28
     f7a:	df 93       	push	r29
     f7c:	90 e0       	ldi	r25, 0x00	; 0
/// 正常終了時 : 受信したデータのサイズ
/// 不正終了時 : HANDSHAKE_NAK [-1] もしくは HANDSHAKE_STALL [-2]
/// </returns>
int IntInTransfer(USBDevice *d, int ep, byte *data, int size)
{
	d->devinfo.ep = ep;
     f7e:	01 e0       	ldi	r16, 0x01	; 1
    milliseconds can be achieved.
 */
void
_delay_loop_2(uint16_t __count)
{
	__asm__ volatile (
     f80:	c4 ed       	ldi	r28, 0xD4	; 212
     f82:	d0 e3       	ldi	r29, 0x30	; 48
/// <summary>
/// SL811HST専用レジスタへの書き込み
/// </summary>
void sl811_write(const unsigned char offset, const unsigned char data)
{
	*(__sl811_addr) = offset;
     f84:	5d e0       	ldi	r21, 0x0D	; 13
     f86:	e5 2e       	mov	r14, r21
    can be achieved.
*/
void
_delay_loop_1(uint8_t __count)
{
	__asm__ volatile (
     f88:	12 e3       	ldi	r17, 0x32	; 50
	DELAY;
	*(__sl811_data) = data;
     f8a:	ff 24       	eor	r15, r15
     f8c:	fa 94       	dec	r15
     f8e:	11 c0       	rjmp	.+34     	; 0xfb2 <controler_main_process_loop+0x42>
/// <summary>
/// SL811HST専用レジスタへの書き込み
/// </summary>
void sl811_write(const unsigned char offset, const unsigned char data)
{
	*(__sl811_addr) = offset;
     f90:	e0 91 c3 02 	lds	r30, 0x02C3
     f94:	f0 91 c4 02 	lds	r31, 0x02C4
     f98:	e0 82       	st	Z, r14
     f9a:	81 2f       	mov	r24, r17
     f9c:	8a 95       	dec	r24
     f9e:	f1 f7       	brne	.-4      	; 0xf9c <controler_main_process_loop+0x2c>
	DELAY;
	*(__sl811_data) = data;
     fa0:	e0 91 d5 02 	lds	r30, 0x02D5
     fa4:	f0 91 d6 02 	lds	r31, 0x02D6
     fa8:	f0 82       	st	Z, r15
     faa:	81 2f       	mov	r24, r17
     fac:	8a 95       	dec	r24
     fae:	f1 f7       	brne	.-4      	; 0xfac <controler_main_process_loop+0x3c>
	unsigned char L_STICK_X, L_STICK_Y, R_STICK_X, R_STICK_Y;
	
	while(1)
	{
		// clear all interrupt bits
		for(status=0; status<20; status++)
     fb0:	9f 5f       	subi	r25, 0xFF	; 255
     fb2:	94 31       	cpi	r25, 0x14	; 20
     fb4:	68 f3       	brcs	.-38     	; 0xf90 <controler_main_process_loop+0x20>
		for(getinfosixaxis = 0;getinfosixaxis != 0x00;)
		{
			getinfosixaxis = sl811_read(SL811H_INTSTATUSREG);
		}

		IntInTransfer(&dev, 1, &(_sixaxis_buf[0][_sixaxis_buf_index]), SIXAXIS_DATA_LENGTH);
     fb6:	60 91 0f 02 	lds	r22, 0x020F
     fba:	70 e0       	ldi	r23, 0x00	; 0
     fbc:	61 55       	subi	r22, 0x51	; 81
     fbe:	7e 4f       	sbci	r23, 0xFE	; 254
/// 正常終了時 : 受信したデータのサイズ
/// 不正終了時 : HANDSHAKE_NAK [-1] もしくは HANDSHAKE_STALL [-2]
/// </returns>
int IntInTransfer(USBDevice *d, int ep, byte *data, int size)
{
	d->devinfo.ep = ep;
     fc0:	00 93 91 02 	sts	0x0291, r16
	return SL811IntInTransfer(&(d->devinfo), data, size);
     fc4:	80 e9       	ldi	r24, 0x90	; 144
     fc6:	92 e0       	ldi	r25, 0x02	; 2
     fc8:	40 e3       	ldi	r20, 0x30	; 48
     fca:	50 e0       	ldi	r21, 0x00	; 0
     fcc:	0e 94 77 07 	call	0xeee	; 0xeee <SL811IntInTransfer>
/// <returns>現在（直前）のバッファへのアドレス</returns>
unsigned char *Toggle_SIXAXIS_Buffer(void)
{
	unsigned char *ret;
	
	ret = &(_sixaxis_buf[0][_sixaxis_buf_index]);
     fd0:	e0 91 0f 02 	lds	r30, 0x020F
	_sixaxis_buf_index = (_sixaxis_buf_index == 1) ? 0 : 1;
     fd4:	10 92 0f 02 	sts	0x020F, r1
     fd8:	e1 30       	cpi	r30, 0x01	; 1
     fda:	11 f0       	breq	.+4      	; 0xfe0 <controler_main_process_loop+0x70>
     fdc:	00 93 0f 02 	sts	0x020F, r16
			getinfosixaxis = sl811_read(SL811H_INTSTATUSREG);
		}

		IntInTransfer(&dev, 1, &(_sixaxis_buf[0][_sixaxis_buf_index]), SIXAXIS_DATA_LENGTH);

		sixaxis = (SIXAXIS*)((Toggle_SIXAXIS_Buffer()) + 2);
     fe0:	f0 e0       	ldi	r31, 0x00	; 0
     fe2:	ef 54       	subi	r30, 0x4F	; 79
     fe4:	fe 4f       	sbci	r31, 0xFE	; 254
     fe6:	f0 93 c2 02 	sts	0x02C2, r31
     fea:	e0 93 c1 02 	sts	0x02C1, r30
///**/		printf("%d\n", sixaxis->Button.PS);
		if( sixaxis->Button.PS != 0 )	break;
     fee:	82 81       	ldd	r24, Z+2	; 0x02
     ff0:	80 fd       	sbrc	r24, 0
     ff2:	05 c0       	rjmp	.+10     	; 0xffe <controler_main_process_loop+0x8e>
    milliseconds can be achieved.
 */
void
_delay_loop_2(uint16_t __count)
{
	__asm__ volatile (
     ff4:	ce 01       	movw	r24, r28
     ff6:	01 97       	sbiw	r24, 0x01	; 1
     ff8:	f1 f7       	brne	.-4      	; 0xff6 <controler_main_process_loop+0x86>
     ffa:	90 e0       	ldi	r25, 0x00	; 0
     ffc:	c9 cf       	rjmp	.-110    	; 0xf90 <controler_main_process_loop+0x20>
		_delay_ms(50);
	}
	
	uart_init(0,UART_RE|UART_TE,19200);						//受信許可|送信許可|送信データ空割り込み許可，ボーレート
     ffe:	80 e0       	ldi	r24, 0x00	; 0
    1000:	90 e0       	ldi	r25, 0x00	; 0
    1002:	68 e1       	ldi	r22, 0x18	; 24
    1004:	20 e0       	ldi	r18, 0x00	; 0
    1006:	3b e4       	ldi	r19, 0x4B	; 75
    1008:	40 e0       	ldi	r20, 0x00	; 0
    100a:	50 e0       	ldi	r21, 0x00	; 0
    100c:	0e 94 ec 0e 	call	0x1dd8	; 0x1dd8 <uart_init>
	//	uart_setbuffer(TxDataBuf,RC_DATA_LENGTH*7);				//送信用バッファの設定
	MU2_SetRxHandler(uart0_getchar);						//uartの1byte受信関数をセット
    1010:	85 e9       	ldi	r24, 0x95	; 149
    1012:	9f e0       	ldi	r25, 0x0F	; 15
    1014:	0e 94 92 10 	call	0x2124	; 0x2124 <MU2_SetRxHandler>
	MU2_SetTxHandler(uart0_putchar);						//uartの1byte送信予約関数をセット引数にuart_putcharを 
    1018:	8a e9       	ldi	r24, 0x9A	; 154
    101a:	9f e0       	ldi	r25, 0x0F	; 15
    101c:	0e 94 8d 10 	call	0x211a	; 0x211a <MU2_SetTxHandler>
														//入れると割り込みではなくwait形式になる			  	
	if((PINF&0x01)==1)
    1020:	00 9b       	sbis	0x00, 0	; 0
    1022:	22 c0       	rjmp	.+68     	; 0x1068 <controler_main_process_loop+0xf8>
	{
///**/		printf("%x\n",SWITCH>>6);
		MU2_SetGroupID(Group[SWITCH>>6]);						//グループ設定
    1024:	e0 b1       	in	r30, 0x00	; 0
    1026:	e0 95       	com	r30
    1028:	e2 95       	swap	r30
    102a:	e6 95       	lsr	r30
    102c:	e6 95       	lsr	r30
    102e:	e3 70       	andi	r30, 0x03	; 3
    1030:	f0 e0       	ldi	r31, 0x00	; 0
    1032:	e0 50       	subi	r30, 0x00	; 0
    1034:	ff 4f       	sbci	r31, 0xFF	; 255
    1036:	80 81       	ld	r24, Z
    1038:	0e 94 18 12 	call	0x2430	; 0x2430 <MU2_SetGroupID>

///**/		printf("%x %x\n",SWITCH>>6,(SWITCH>>4) & 0x03);
		MU2_SetChannel(Channel[SWITCH>>6][(SWITCH>>4) & 0x03]);	//チャンネル設定
    103c:	e0 b1       	in	r30, 0x00	; 0
    103e:	80 b1       	in	r24, 0x00	; 0
    1040:	80 95       	com	r24
    1042:	82 95       	swap	r24
    1044:	83 70       	andi	r24, 0x03	; 3
    1046:	e0 95       	com	r30
    1048:	e2 95       	swap	r30
    104a:	e6 95       	lsr	r30
    104c:	e6 95       	lsr	r30
    104e:	e3 70       	andi	r30, 0x03	; 3
    1050:	f0 e0       	ldi	r31, 0x00	; 0
    1052:	ee 0f       	add	r30, r30
    1054:	ff 1f       	adc	r31, r31
    1056:	ee 0f       	add	r30, r30
    1058:	ff 1f       	adc	r31, r31
    105a:	e8 0f       	add	r30, r24
    105c:	f1 1d       	adc	r31, r1
    105e:	ec 5f       	subi	r30, 0xFC	; 252
    1060:	fe 4f       	sbci	r31, 0xFE	; 254
    1062:	80 81       	ld	r24, Z
    1064:	0e 94 f1 11 	call	0x23e2	; 0x23e2 <MU2_SetChannel>
	}

	LED_ON_ALL;
    1068:	82 b3       	in	r24, 0x12	; 18
    106a:	84 65       	ori	r24, 0x54	; 84
    106c:	82 bb       	out	0x12, r24	; 18
/// <returns>現在（直前）のバッファへのアドレス</returns>
union controller_data *Toggle_RC_Tx_Buffer(void)
{
	union controller_data *ret;
	
	ret = &(_rc_tx_buf[_rc_tx_buf_selector]);
    106e:	90 91 29 02 	lds	r25, 0x0229
	_rc_tx_buf_selector = (_rc_tx_buf_selector == 1) ? 0 : 1;
    1072:	10 92 29 02 	sts	0x0229, r1
    1076:	91 30       	cpi	r25, 0x01	; 1
    1078:	19 f0       	breq	.+6      	; 0x1080 <controler_main_process_loop+0x110>
    107a:	81 e0       	ldi	r24, 0x01	; 1
    107c:	80 93 29 02 	sts	0x0229, r24
	_rc_tx_buf_index = 0;
    1080:	10 92 2b 02 	sts	0x022B, r1
    1084:	10 92 2a 02 	sts	0x022A, r1
	}

	LED_ON_ALL;
	
	// 初期バッファへのポインタ取得
	txdata = Toggle_RC_Tx_Buffer();
    1088:	89 2f       	mov	r24, r25
    108a:	90 e0       	ldi	r25, 0x00	; 0
    108c:	88 0f       	add	r24, r24
    108e:	99 1f       	adc	r25, r25
    1090:	88 0f       	add	r24, r24
    1092:	99 1f       	adc	r25, r25
    1094:	8f 5d       	subi	r24, 0xDF	; 223
    1096:	9d 4f       	sbci	r25, 0xFD	; 253
    1098:	90 93 c0 02 	sts	0x02C0, r25
    109c:	80 93 bf 02 	sts	0x02BF, r24
    10a0:	90 e0       	ldi	r25, 0x00	; 0
/// 正常終了時 : 受信したデータのサイズ
/// 不正終了時 : HANDSHAKE_NAK [-1] もしくは HANDSHAKE_STALL [-2]
/// </returns>
int IntInTransfer(USBDevice *d, int ep, byte *data, int size)
{
	d->devinfo.ep = ep;
    10a2:	01 e0       	ldi	r16, 0x01	; 1
    10a4:	c0 e1       	ldi	r28, 0x10	; 16
    10a6:	d7 e2       	ldi	r29, 0x27	; 39
/// <summary>
/// SL811HST専用レジスタへの書き込み
/// </summary>
void sl811_write(const unsigned char offset, const unsigned char data)
{
	*(__sl811_addr) = offset;
    10a8:	2d e0       	ldi	r18, 0x0D	; 13
    10aa:	f2 2e       	mov	r15, r18
    can be achieved.
*/
void
_delay_loop_1(uint8_t __count)
{
	__asm__ volatile (
    10ac:	12 e3       	ldi	r17, 0x32	; 50
	DELAY;
	*(__sl811_data) = data;
    10ae:	ee 24       	eor	r14, r14
    10b0:	ea 94       	dec	r14
    10b2:	11 c0       	rjmp	.+34     	; 0x10d6 <controler_main_process_loop+0x166>
/// <summary>
/// SL811HST専用レジスタへの書き込み
/// </summary>
void sl811_write(const unsigned char offset, const unsigned char data)
{
	*(__sl811_addr) = offset;
    10b4:	e0 91 c3 02 	lds	r30, 0x02C3
    10b8:	f0 91 c4 02 	lds	r31, 0x02C4
    10bc:	f0 82       	st	Z, r15
    10be:	81 2f       	mov	r24, r17
    10c0:	8a 95       	dec	r24
    10c2:	f1 f7       	brne	.-4      	; 0x10c0 <controler_main_process_loop+0x150>
	DELAY;
	*(__sl811_data) = data;
    10c4:	e0 91 d5 02 	lds	r30, 0x02D5
    10c8:	f0 91 d6 02 	lds	r31, 0x02D6
    10cc:	e0 82       	st	Z, r14
    10ce:	81 2f       	mov	r24, r17
    10d0:	8a 95       	dec	r24
    10d2:	f1 f7       	brne	.-4      	; 0x10d0 <controler_main_process_loop+0x160>
	
	while(1)
	{
		
		// clear all interrupt bits
		for(status=0; status<20; status++)
    10d4:	9f 5f       	subi	r25, 0xFF	; 255
    10d6:	94 31       	cpi	r25, 0x14	; 20
    10d8:	68 f3       	brcs	.-38     	; 0x10b4 <controler_main_process_loop+0x144>
		for(getinfosixaxis = 0;getinfosixaxis != 0x00;)
		{
			getinfosixaxis = sl811_read(SL811H_INTSTATUSREG);
		}

		IntInTransfer(&dev, 1, &(_sixaxis_buf[0][_sixaxis_buf_index]), SIXAXIS_DATA_LENGTH);
    10da:	60 91 0f 02 	lds	r22, 0x020F
    10de:	70 e0       	ldi	r23, 0x00	; 0
    10e0:	61 55       	subi	r22, 0x51	; 81
    10e2:	7e 4f       	sbci	r23, 0xFE	; 254
/// 正常終了時 : 受信したデータのサイズ
/// 不正終了時 : HANDSHAKE_NAK [-1] もしくは HANDSHAKE_STALL [-2]
/// </returns>
int IntInTransfer(USBDevice *d, int ep, byte *data, int size)
{
	d->devinfo.ep = ep;
    10e4:	00 93 91 02 	sts	0x0291, r16
	return SL811IntInTransfer(&(d->devinfo), data, size);
    10e8:	80 e9       	ldi	r24, 0x90	; 144
    10ea:	92 e0       	ldi	r25, 0x02	; 2
    10ec:	40 e3       	ldi	r20, 0x30	; 48
    10ee:	50 e0       	ldi	r21, 0x00	; 0
    10f0:	0e 94 77 07 	call	0xeee	; 0xeee <SL811IntInTransfer>
/// <returns>現在（直前）のバッファへのアドレス</returns>
unsigned char *Toggle_SIXAXIS_Buffer(void)
{
	unsigned char *ret;
	
	ret = &(_sixaxis_buf[0][_sixaxis_buf_index]);
    10f4:	e0 91 0f 02 	lds	r30, 0x020F
	_sixaxis_buf_index = (_sixaxis_buf_index == 1) ? 0 : 1;
    10f8:	10 92 0f 02 	sts	0x020F, r1
    10fc:	e1 30       	cpi	r30, 0x01	; 1
    10fe:	11 f0       	breq	.+4      	; 0x1104 <__stack+0x5>
    1100:	00 93 0f 02 	sts	0x020F, r16
			getinfosixaxis = sl811_read(SL811H_INTSTATUSREG);
		}

		IntInTransfer(&dev, 1, &(_sixaxis_buf[0][_sixaxis_buf_index]), SIXAXIS_DATA_LENGTH);

		sixaxis = (SIXAXIS*)((Toggle_SIXAXIS_Buffer()) + 2);
    1104:	f0 e0       	ldi	r31, 0x00	; 0
    1106:	e1 55       	subi	r30, 0x51	; 81
    1108:	fe 4f       	sbci	r31, 0xFE	; 254
    110a:	32 96       	adiw	r30, 0x02	; 2
    110c:	f0 93 c2 02 	sts	0x02C2, r31
    1110:	e0 93 c1 02 	sts	0x02C1, r30
    1114:	32 97       	sbiw	r30, 0x02	; 2
		
		// Button
		txdata->detail.Button.LEFT = sixaxis->Button.LEFT;
    1116:	a0 91 bf 02 	lds	r26, 0x02BF
    111a:	b0 91 c0 02 	lds	r27, 0x02C0
    111e:	92 81       	ldd	r25, Z+2	; 0x02
    1120:	99 1f       	adc	r25, r25
    1122:	99 27       	eor	r25, r25
    1124:	99 1f       	adc	r25, r25
    1126:	8c 91       	ld	r24, X
    1128:	8e 7f       	andi	r24, 0xFE	; 254
    112a:	89 2b       	or	r24, r25
    112c:	8c 93       	st	X, r24
		txdata->detail.Button.DOWN = sixaxis->Button.DOWN;
    112e:	a0 91 bf 02 	lds	r26, 0x02BF
    1132:	b0 91 c0 02 	lds	r27, 0x02C0
    1136:	e0 91 c1 02 	lds	r30, 0x02C1
    113a:	f0 91 c2 02 	lds	r31, 0x02C2
    113e:	90 81       	ld	r25, Z
    1140:	92 95       	swap	r25
    1142:	96 95       	lsr	r25
    1144:	92 70       	andi	r25, 0x02	; 2
    1146:	8c 91       	ld	r24, X
    1148:	8d 7f       	andi	r24, 0xFD	; 253
    114a:	89 2b       	or	r24, r25
    114c:	8c 93       	st	X, r24
		txdata->detail.Button.RIGHT = sixaxis->Button.RIGHT;
    114e:	a0 91 bf 02 	lds	r26, 0x02BF
    1152:	b0 91 c0 02 	lds	r27, 0x02C0
    1156:	e0 91 c1 02 	lds	r30, 0x02C1
    115a:	f0 91 c2 02 	lds	r31, 0x02C2
    115e:	90 81       	ld	r25, Z
    1160:	96 95       	lsr	r25
    1162:	96 95       	lsr	r25
    1164:	96 95       	lsr	r25
    1166:	94 70       	andi	r25, 0x04	; 4
    1168:	8c 91       	ld	r24, X
    116a:	8b 7f       	andi	r24, 0xFB	; 251
    116c:	89 2b       	or	r24, r25
    116e:	8c 93       	st	X, r24
		txdata->detail.Button.UP = sixaxis->Button.UP;
    1170:	a0 91 bf 02 	lds	r26, 0x02BF
    1174:	b0 91 c0 02 	lds	r27, 0x02C0
    1178:	e0 91 c1 02 	lds	r30, 0x02C1
    117c:	f0 91 c2 02 	lds	r31, 0x02C2
    1180:	90 81       	ld	r25, Z
    1182:	96 95       	lsr	r25
    1184:	98 70       	andi	r25, 0x08	; 8
    1186:	8c 91       	ld	r24, X
    1188:	87 7f       	andi	r24, 0xF7	; 247
    118a:	89 2b       	or	r24, r25
    118c:	8c 93       	st	X, r24
		txdata->detail.Button.SQU = sixaxis->Button.SQU;
    118e:	a0 91 bf 02 	lds	r26, 0x02BF
    1192:	b0 91 c0 02 	lds	r27, 0x02C0
    1196:	e0 91 c1 02 	lds	r30, 0x02C1
    119a:	f0 91 c2 02 	lds	r31, 0x02C2
    119e:	91 81       	ldd	r25, Z+1	; 0x01
    11a0:	99 1f       	adc	r25, r25
    11a2:	99 27       	eor	r25, r25
    11a4:	99 1f       	adc	r25, r25
    11a6:	92 95       	swap	r25
    11a8:	90 7f       	andi	r25, 0xF0	; 240
    11aa:	8c 91       	ld	r24, X
    11ac:	8f 7e       	andi	r24, 0xEF	; 239
    11ae:	89 2b       	or	r24, r25
    11b0:	8c 93       	st	X, r24
		txdata->detail.Button.BAT = sixaxis->Button.BAT;
    11b2:	a0 91 bf 02 	lds	r26, 0x02BF
    11b6:	b0 91 c0 02 	lds	r27, 0x02C0
    11ba:	e0 91 c1 02 	lds	r30, 0x02C1
    11be:	f0 91 c2 02 	lds	r31, 0x02C2
    11c2:	91 81       	ldd	r25, Z+1	; 0x01
    11c4:	96 95       	lsr	r25
    11c6:	90 72       	andi	r25, 0x20	; 32
    11c8:	8c 91       	ld	r24, X
    11ca:	8f 7d       	andi	r24, 0xDF	; 223
    11cc:	89 2b       	or	r24, r25
    11ce:	8c 93       	st	X, r24
		txdata->detail.Button.CIR = sixaxis->Button.CIR;
    11d0:	a0 91 bf 02 	lds	r26, 0x02BF
    11d4:	b0 91 c0 02 	lds	r27, 0x02C0
    11d8:	e0 91 c1 02 	lds	r30, 0x02C1
    11dc:	f0 91 c2 02 	lds	r31, 0x02C2
    11e0:	91 81       	ldd	r25, Z+1	; 0x01
    11e2:	99 0f       	add	r25, r25
    11e4:	90 74       	andi	r25, 0x40	; 64
    11e6:	8c 91       	ld	r24, X
    11e8:	8f 7b       	andi	r24, 0xBF	; 191
    11ea:	89 2b       	or	r24, r25
    11ec:	8c 93       	st	X, r24
		txdata->detail.Button.TRI = sixaxis->Button.TRI;
    11ee:	a0 91 bf 02 	lds	r26, 0x02BF
    11f2:	b0 91 c0 02 	lds	r27, 0x02C0
    11f6:	e0 91 c1 02 	lds	r30, 0x02C1
    11fa:	f0 91 c2 02 	lds	r31, 0x02C2
    11fe:	91 81       	ldd	r25, Z+1	; 0x01
    1200:	92 95       	swap	r25
    1202:	9f 70       	andi	r25, 0x0F	; 15
    1204:	97 95       	ror	r25
    1206:	99 27       	eor	r25, r25
    1208:	97 95       	ror	r25
    120a:	8c 91       	ld	r24, X
    120c:	8f 77       	andi	r24, 0x7F	; 127
    120e:	89 2b       	or	r24, r25
    1210:	8c 93       	st	X, r24
		txdata->detail.Button.R1 = sixaxis->Button.R1;
    1212:	a0 91 bf 02 	lds	r26, 0x02BF
    1216:	b0 91 c0 02 	lds	r27, 0x02C0
    121a:	e0 91 c1 02 	lds	r30, 0x02C1
    121e:	f0 91 c2 02 	lds	r31, 0x02C2
    1222:	91 81       	ldd	r25, Z+1	; 0x01
    1224:	96 95       	lsr	r25
    1226:	96 95       	lsr	r25
    1228:	96 95       	lsr	r25
    122a:	91 70       	andi	r25, 0x01	; 1
    122c:	11 96       	adiw	r26, 0x01	; 1
    122e:	8c 91       	ld	r24, X
    1230:	11 97       	sbiw	r26, 0x01	; 1
    1232:	8e 7f       	andi	r24, 0xFE	; 254
    1234:	89 2b       	or	r24, r25
    1236:	11 96       	adiw	r26, 0x01	; 1
    1238:	8c 93       	st	X, r24
		txdata->detail.Button.L1 = sixaxis->Button.L1;
    123a:	a0 91 bf 02 	lds	r26, 0x02BF
    123e:	b0 91 c0 02 	lds	r27, 0x02C0
    1242:	e0 91 c1 02 	lds	r30, 0x02C1
    1246:	f0 91 c2 02 	lds	r31, 0x02C2
    124a:	91 81       	ldd	r25, Z+1	; 0x01
    124c:	96 95       	lsr	r25
    124e:	92 70       	andi	r25, 0x02	; 2
    1250:	11 96       	adiw	r26, 0x01	; 1
    1252:	8c 91       	ld	r24, X
    1254:	11 97       	sbiw	r26, 0x01	; 1
    1256:	8d 7f       	andi	r24, 0xFD	; 253
    1258:	89 2b       	or	r24, r25
    125a:	11 96       	adiw	r26, 0x01	; 1
    125c:	8c 93       	st	X, r24
		txdata->detail.Button.START = sixaxis->Button.START;
    125e:	a0 91 bf 02 	lds	r26, 0x02BF
    1262:	b0 91 c0 02 	lds	r27, 0x02C0
    1266:	e0 91 c1 02 	lds	r30, 0x02C1
    126a:	f0 91 c2 02 	lds	r31, 0x02C2
    126e:	90 81       	ld	r25, Z
    1270:	99 0f       	add	r25, r25
    1272:	99 0f       	add	r25, r25
    1274:	99 0f       	add	r25, r25
    1276:	90 74       	andi	r25, 0x40	; 64
    1278:	11 96       	adiw	r26, 0x01	; 1
    127a:	8c 91       	ld	r24, X
    127c:	11 97       	sbiw	r26, 0x01	; 1
    127e:	8f 7b       	andi	r24, 0xBF	; 191
    1280:	89 2b       	or	r24, r25
    1282:	11 96       	adiw	r26, 0x01	; 1
    1284:	8c 93       	st	X, r24
		txdata->detail.Button.SELECT = sixaxis->Button.SELECT;
    1286:	a0 91 bf 02 	lds	r26, 0x02BF
    128a:	b0 91 c0 02 	lds	r27, 0x02C0
    128e:	e0 91 c1 02 	lds	r30, 0x02C1
    1292:	f0 91 c2 02 	lds	r31, 0x02C2
    1296:	90 81       	ld	r25, Z
    1298:	97 95       	ror	r25
    129a:	99 27       	eor	r25, r25
    129c:	97 95       	ror	r25
    129e:	11 96       	adiw	r26, 0x01	; 1
    12a0:	8c 91       	ld	r24, X
    12a2:	11 97       	sbiw	r26, 0x01	; 1
    12a4:	8f 77       	andi	r24, 0x7F	; 127
    12a6:	89 2b       	or	r24, r25
    12a8:	11 96       	adiw	r26, 0x01	; 1
    12aa:	8c 93       	st	X, r24
		// Button
		
		// Analog Button
		if( sixaxis->AnalogButton.R2 < 100 )		tmp = 0;
    12ac:	e0 91 c1 02 	lds	r30, 0x02C1
    12b0:	f0 91 c2 02 	lds	r31, 0x02C2
    12b4:	81 89       	ldd	r24, Z+17	; 0x11
    12b6:	84 36       	cpi	r24, 0x64	; 100
    12b8:	18 f4       	brcc	.+6      	; 0x12c0 <__stack+0x1c1>
    12ba:	80 e0       	ldi	r24, 0x00	; 0
    12bc:	90 e0       	ldi	r25, 0x00	; 0
    12be:	0c c0       	rjmp	.+24     	; 0x12d8 <__stack+0x1d9>
		else if( sixaxis->AnalogButton.R2 < 180 )	tmp = 1;
    12c0:	84 3b       	cpi	r24, 0xB4	; 180
    12c2:	18 f4       	brcc	.+6      	; 0x12ca <__stack+0x1cb>
    12c4:	81 e0       	ldi	r24, 0x01	; 1
    12c6:	90 e0       	ldi	r25, 0x00	; 0
    12c8:	07 c0       	rjmp	.+14     	; 0x12d8 <__stack+0x1d9>
		else if( sixaxis->AnalogButton.R2 < 255 )	tmp = 2;
    12ca:	8f 3f       	cpi	r24, 0xFF	; 255
    12cc:	19 f4       	brne	.+6      	; 0x12d4 <__stack+0x1d5>
    12ce:	83 e0       	ldi	r24, 0x03	; 3
    12d0:	90 e0       	ldi	r25, 0x00	; 0
    12d2:	02 c0       	rjmp	.+4      	; 0x12d8 <__stack+0x1d9>
    12d4:	82 e0       	ldi	r24, 0x02	; 2
    12d6:	90 e0       	ldi	r25, 0x00	; 0
		else										tmp = 3;
		txdata->detail.Button.R2 = tmp;
    12d8:	e0 91 bf 02 	lds	r30, 0x02BF
    12dc:	f0 91 c0 02 	lds	r31, 0x02C0
    12e0:	98 2f       	mov	r25, r24
    12e2:	93 70       	andi	r25, 0x03	; 3
    12e4:	99 0f       	add	r25, r25
    12e6:	99 0f       	add	r25, r25
    12e8:	81 81       	ldd	r24, Z+1	; 0x01
    12ea:	83 7f       	andi	r24, 0xF3	; 243
    12ec:	89 2b       	or	r24, r25
    12ee:	81 83       	std	Z+1, r24	; 0x01
		
		if( sixaxis->AnalogButton.L2 < 100 )		tmp = 0;
    12f0:	e0 91 c1 02 	lds	r30, 0x02C1
    12f4:	f0 91 c2 02 	lds	r31, 0x02C2
    12f8:	80 89       	ldd	r24, Z+16	; 0x10
    12fa:	84 36       	cpi	r24, 0x64	; 100
    12fc:	18 f4       	brcc	.+6      	; 0x1304 <__stack+0x205>
    12fe:	80 e0       	ldi	r24, 0x00	; 0
    1300:	90 e0       	ldi	r25, 0x00	; 0
    1302:	0c c0       	rjmp	.+24     	; 0x131c <__stack+0x21d>
		else if( sixaxis->AnalogButton.L2 < 180 )	tmp = 1;
    1304:	84 3b       	cpi	r24, 0xB4	; 180
    1306:	18 f4       	brcc	.+6      	; 0x130e <__stack+0x20f>
    1308:	81 e0       	ldi	r24, 0x01	; 1
    130a:	90 e0       	ldi	r25, 0x00	; 0
    130c:	07 c0       	rjmp	.+14     	; 0x131c <__stack+0x21d>
		else if( sixaxis->AnalogButton.L2 < 255 )	tmp = 2;
    130e:	8f 3f       	cpi	r24, 0xFF	; 255
    1310:	19 f4       	brne	.+6      	; 0x1318 <__stack+0x219>
    1312:	83 e0       	ldi	r24, 0x03	; 3
    1314:	90 e0       	ldi	r25, 0x00	; 0
    1316:	02 c0       	rjmp	.+4      	; 0x131c <__stack+0x21d>
    1318:	82 e0       	ldi	r24, 0x02	; 2
    131a:	90 e0       	ldi	r25, 0x00	; 0
		else										tmp = 3;
		txdata->detail.Button.L2 = tmp;
    131c:	e0 91 bf 02 	lds	r30, 0x02BF
    1320:	f0 91 c0 02 	lds	r31, 0x02C0
    1324:	98 2f       	mov	r25, r24
    1326:	93 70       	andi	r25, 0x03	; 3
    1328:	92 95       	swap	r25
    132a:	90 7f       	andi	r25, 0xF0	; 240
    132c:	81 81       	ldd	r24, Z+1	; 0x01
    132e:	8f 7c       	andi	r24, 0xCF	; 207
    1330:	89 2b       	or	r24, r25
    1332:	81 83       	std	Z+1, r24	; 0x01
		// Analog Button
		
		// Analog Stick
		L_STICK_X = (sixaxis->AnalogL.X)/17;
    1334:	e0 91 c1 02 	lds	r30, 0x02C1
    1338:	f0 91 c2 02 	lds	r31, 0x02C2
    133c:	84 81       	ldd	r24, Z+4	; 0x04
    133e:	61 e1       	ldi	r22, 0x11	; 17
    1340:	0e 94 8a 12 	call	0x2514	; 0x2514 <__udivmodqi4>
    1344:	28 2f       	mov	r18, r24
		if(L_STICK_X == 15) L_STICK_X = 14;
    1346:	8f 30       	cpi	r24, 0x0F	; 15
    1348:	09 f4       	brne	.+2      	; 0x134c <__stack+0x24d>
    134a:	2e e0       	ldi	r18, 0x0E	; 14

		L_STICK_Y = (sixaxis->AnalogL.Y)/17;
    134c:	85 81       	ldd	r24, Z+5	; 0x05
    134e:	61 e1       	ldi	r22, 0x11	; 17
    1350:	0e 94 8a 12 	call	0x2514	; 0x2514 <__udivmodqi4>
    1354:	98 2f       	mov	r25, r24
		if(L_STICK_Y == 15) L_STICK_Y = 14;
    1356:	8f 30       	cpi	r24, 0x0F	; 15
    1358:	09 f4       	brne	.+2      	; 0x135c <__stack+0x25d>
    135a:	9e e0       	ldi	r25, 0x0E	; 14

		txdata->detail.AnalogL.X = L_STICK_X;
    135c:	e0 91 bf 02 	lds	r30, 0x02BF
    1360:	f0 91 c0 02 	lds	r31, 0x02C0
    1364:	2f 70       	andi	r18, 0x0F	; 15
    1366:	82 81       	ldd	r24, Z+2	; 0x02
    1368:	80 7f       	andi	r24, 0xF0	; 240
    136a:	82 2b       	or	r24, r18
    136c:	82 83       	std	Z+2, r24	; 0x02
		txdata->detail.AnalogL.Y = L_STICK_Y;
    136e:	e0 91 bf 02 	lds	r30, 0x02BF
    1372:	f0 91 c0 02 	lds	r31, 0x02C0
    1376:	92 95       	swap	r25
    1378:	90 7f       	andi	r25, 0xF0	; 240
    137a:	82 81       	ldd	r24, Z+2	; 0x02
    137c:	8f 70       	andi	r24, 0x0F	; 15
    137e:	89 2b       	or	r24, r25
    1380:	82 83       	std	Z+2, r24	; 0x02

		R_STICK_X = (sixaxis->AnalogR.X)/17;
    1382:	e0 91 c1 02 	lds	r30, 0x02C1
    1386:	f0 91 c2 02 	lds	r31, 0x02C2
    138a:	86 81       	ldd	r24, Z+6	; 0x06
    138c:	61 e1       	ldi	r22, 0x11	; 17
    138e:	0e 94 8a 12 	call	0x2514	; 0x2514 <__udivmodqi4>
    1392:	28 2f       	mov	r18, r24
		if(R_STICK_X == 15) R_STICK_X = 14;
    1394:	8f 30       	cpi	r24, 0x0F	; 15
    1396:	09 f4       	brne	.+2      	; 0x139a <__stack+0x29b>
    1398:	2e e0       	ldi	r18, 0x0E	; 14

		R_STICK_Y = (sixaxis->AnalogR.Y)/17;
    139a:	87 81       	ldd	r24, Z+7	; 0x07
    139c:	61 e1       	ldi	r22, 0x11	; 17
    139e:	0e 94 8a 12 	call	0x2514	; 0x2514 <__udivmodqi4>
    13a2:	98 2f       	mov	r25, r24
		if(R_STICK_Y == 15) R_STICK_Y = 14;		
    13a4:	8f 30       	cpi	r24, 0x0F	; 15
    13a6:	09 f4       	brne	.+2      	; 0x13aa <__stack+0x2ab>
    13a8:	9e e0       	ldi	r25, 0x0E	; 14

		txdata->detail.AnalogR.X = R_STICK_X;
    13aa:	e0 91 bf 02 	lds	r30, 0x02BF
    13ae:	f0 91 c0 02 	lds	r31, 0x02C0
    13b2:	2f 70       	andi	r18, 0x0F	; 15
    13b4:	83 81       	ldd	r24, Z+3	; 0x03
    13b6:	80 7f       	andi	r24, 0xF0	; 240
    13b8:	82 2b       	or	r24, r18
    13ba:	83 83       	std	Z+3, r24	; 0x03
		txdata->detail.AnalogR.Y = R_STICK_Y;
    13bc:	e0 91 bf 02 	lds	r30, 0x02BF
    13c0:	f0 91 c0 02 	lds	r31, 0x02C0
    13c4:	92 95       	swap	r25
    13c6:	90 7f       	andi	r25, 0xF0	; 240
    13c8:	83 81       	ldd	r24, Z+3	; 0x03
    13ca:	8f 70       	andi	r24, 0x0F	; 15
    13cc:	89 2b       	or	r24, r25
    13ce:	83 83       	std	Z+3, r24	; 0x03
    13d0:	80 91 bf 02 	lds	r24, 0x02BF
    13d4:	90 91 c0 02 	lds	r25, 0x02C0
//		printf("%02x ",sixaxis->AnalogR.Y);

///**/		printf("\n");
		
		//txdata = Toggle_RC_Tx_Buffer();
		if((PINF&0x01)==1)
    13d8:	00 9b       	sbis	0x00, 0	; 0
    13da:	04 c0       	rjmp	.+8      	; 0x13e4 <__stack+0x2e5>
		{
			MU2_SendData(txdata->buf,RC_DATA_LENGTH);
    13dc:	64 e0       	ldi	r22, 0x04	; 4
    13de:	0e 94 4b 11 	call	0x2296	; 0x2296 <MU2_SendData>
    13e2:	03 c0       	rjmp	.+6      	; 0x13ea <__stack+0x2eb>
		}
		else
		{
			MU2_SendDataBus(txdata->buf,RC_DATA_LENGTH);
    13e4:	64 e0       	ldi	r22, 0x04	; 4
    13e6:	0e 94 36 12 	call	0x246c	; 0x246c <MU2_SendDataBus>
    milliseconds can be achieved.
 */
void
_delay_loop_2(uint16_t __count)
{
	__asm__ volatile (
    13ea:	ce 01       	movw	r24, r28
    13ec:	01 97       	sbiw	r24, 0x01	; 1
    13ee:	f1 f7       	brne	.-4      	; 0x13ec <__stack+0x2ed>
    13f0:	90 e0       	ldi	r25, 0x00	; 0
    13f2:	60 ce       	rjmp	.-832    	; 0x10b4 <controler_main_process_loop+0x144>

000013f4 <main>:
							   {0x25,0x26,0x27,0x28},
							   {0x2A,0x2B,0x2C,0x2D}};

	
int main(void)
{
    13f4:	cf 92       	push	r12
    13f6:	df 92       	push	r13
    13f8:	ef 92       	push	r14
    13fa:	ff 92       	push	r15
    13fc:	0f 93       	push	r16
    13fe:	1f 93       	push	r17
    1400:	df 93       	push	r29
    1402:	cf 93       	push	r28
    1404:	00 d0       	rcall	.+0      	; 0x1406 <main+0x12>
    1406:	00 d0       	rcall	.+0      	; 0x1408 <main+0x14>
    1408:	cd b7       	in	r28, 0x3d	; 61
    140a:	de b7       	in	r29, 0x3e	; 62

//以下関数

void initialize(void)//IO_SETING
{
	DDRD = 0xFE;//PD1~7-->OUT
    140c:	8e ef       	ldi	r24, 0xFE	; 254
    140e:	81 bb       	out	0x11, r24	; 17
	PORTD = 0x82;//PD 1000 001*
    1410:	82 e8       	ldi	r24, 0x82	; 130
    1412:	82 bb       	out	0x12, r24	; 18
	DDRE = 0x02;
    1414:	82 e0       	ldi	r24, 0x02	; 2
    1416:	82 b9       	out	0x02, r24	; 2
	DDRF = 0x00;
    1418:	10 92 61 00 	sts	0x0061, r1
	PORTF = 0xFF;
    141c:	8f ef       	ldi	r24, 0xFF	; 255
    141e:	80 93 62 00 	sts	0x0062, r24
{
	int i;
	volatile int tmp, speed;

	initialize();
	mem_init();
    1422:	0e 94 73 00 	call	0xe6	; 0xe6 <mem_init>
//	uart_init(0,UART_TE|UART_RE,9600);
	uart_init(0,UART_TE|UART_RE,19200);
    1426:	80 e0       	ldi	r24, 0x00	; 0
    1428:	90 e0       	ldi	r25, 0x00	; 0
    142a:	68 e1       	ldi	r22, 0x18	; 24
    142c:	20 e0       	ldi	r18, 0x00	; 0
    142e:	3b e4       	ldi	r19, 0x4B	; 75
    1430:	40 e0       	ldi	r20, 0x00	; 0
    1432:	50 e0       	ldi	r21, 0x00	; 0
    1434:	0e 94 ec 0e 	call	0x1dd8	; 0x1dd8 <uart_init>
	set_printf_output(uart0_putchar);
    1438:	8a e9       	ldi	r24, 0x9A	; 154
    143a:	9f e0       	ldi	r25, 0x0F	; 15
    143c:	0e 94 85 0a 	call	0x150a	; 0x150a <set_printf_output>
    1440:	74 e2       	ldi	r23, 0x24	; 36
    1442:	c7 2e       	mov	r12, r23
    1444:	74 ef       	ldi	r23, 0xF4	; 244
    1446:	d7 2e       	mov	r13, r23

RESET:
	LED_OFF_ALL;
    1448:	68 ea       	ldi	r22, 0xA8	; 168
    144a:	e6 2e       	mov	r14, r22
    144c:	61 e6       	ldi	r22, 0x61	; 97
    144e:	f6 2e       	mov	r15, r22
    1450:	82 b3       	in	r24, 0x12	; 18
    1452:	8b 7a       	andi	r24, 0xAB	; 171
    1454:	82 bb       	out	0x12, r24	; 18
	
	cli();	
    1456:	f8 94       	cli

	LED0_ON;
    1458:	92 9a       	sbi	0x12, 2	; 18

///**/	DBG("USB_SET_Stert\n");

	VBUS_ON;
    145a:	97 98       	cbi	0x12, 7	; 18
    145c:	80 e0       	ldi	r24, 0x00	; 0
    145e:	90 e0       	ldi	r25, 0x00	; 0
    1460:	f6 01       	movw	r30, r12
    1462:	31 97       	sbiw	r30, 0x01	; 1
    1464:	f1 f7       	brne	.-4      	; 0x1462 <main+0x6e>
	for(i = 0;i <= 20; i++ ) _delay_ms(250);
    1466:	01 96       	adiw	r24, 0x01	; 1
    1468:	85 31       	cpi	r24, 0x15	; 21
    146a:	91 05       	cpc	r25, r1
    146c:	c9 f7       	brne	.-14     	; 0x1460 <main+0x6c>

	tmp = USBInit();
    146e:	0e 94 76 04 	call	0x8ec	; 0x8ec <USBInit>
    1472:	9a 83       	std	Y+2, r25	; 0x02
    1474:	89 83       	std	Y+1, r24	; 0x01
	if( tmp == 0 )
    1476:	89 81       	ldd	r24, Y+1	; 0x01
    1478:	9a 81       	ldd	r25, Y+2	; 0x02
    147a:	89 2b       	or	r24, r25
    147c:	09 f0       	breq	.+2      	; 0x1480 <main+0x8c>
    147e:	43 c0       	rjmp	.+134    	; 0x1506 <main+0x112>
	{
		LED0_OFF;
    1480:	92 98       	cbi	0x12, 2	; 18
		speed = SL811USBReset();
    1482:	0e 94 07 03 	call	0x60e	; 0x60e <SL811USBReset>
    1486:	9c 83       	std	Y+4, r25	; 0x04
    1488:	8b 83       	std	Y+3, r24	; 0x03
///**/		DBG("USBReset() - %s\n", ((speed == USB_NONE) ? "NONE" : ((speed == USB_LOW) ? "LOW" : ((speed == USB_FULL) ? "FULL" : "???"))));
		if( speed == USB_LOW || speed == USB_FULL )
    148a:	8b 81       	ldd	r24, Y+3	; 0x03
    148c:	9c 81       	ldd	r25, Y+4	; 0x04
    148e:	01 97       	sbiw	r24, 0x01	; 1
    1490:	21 f0       	breq	.+8      	; 0x149a <main+0xa6>
    1492:	8b 81       	ldd	r24, Y+3	; 0x03
    1494:	9c 81       	ldd	r25, Y+4	; 0x04
    1496:	02 97       	sbiw	r24, 0x02	; 2
    1498:	b9 f5       	brne	.+110    	; 0x1508 <main+0x114>
    149a:	00 e0       	ldi	r16, 0x00	; 0
    149c:	10 e0       	ldi	r17, 0x00	; 0
		{
///**/			DBG("Device initialize...\n");
			for( i=0; i<3; i++ )
			{
				LED1_ON;
    149e:	94 9a       	sbi	0x12, 4	; 18
				tmp = USBDeviceInit_in3(&dev, NULL, speed);
    14a0:	4b 81       	ldd	r20, Y+3	; 0x03
    14a2:	5c 81       	ldd	r21, Y+4	; 0x04
    14a4:	80 e9       	ldi	r24, 0x90	; 144
    14a6:	92 e0       	ldi	r25, 0x02	; 2
    14a8:	60 e0       	ldi	r22, 0x00	; 0
    14aa:	70 e0       	ldi	r23, 0x00	; 0
    14ac:	0e 94 d3 05 	call	0xba6	; 0xba6 <USBDeviceInit_in3>
    14b0:	9a 83       	std	Y+2, r25	; 0x02
    14b2:	89 83       	std	Y+1, r24	; 0x01
///**/				DBG("return_tmp[USBDeviceInit_in3]-->%d\n",tmp);
				if( tmp == 0 )	break;
    14b4:	89 81       	ldd	r24, Y+1	; 0x01
    14b6:	9a 81       	ldd	r25, Y+2	; 0x02
    14b8:	89 2b       	or	r24, r25
    14ba:	41 f0       	breq	.+16     	; 0x14cc <main+0xd8>
    14bc:	c7 01       	movw	r24, r14
    14be:	01 97       	sbiw	r24, 0x01	; 1
    14c0:	f1 f7       	brne	.-4      	; 0x14be <main+0xca>
		speed = SL811USBReset();
///**/		DBG("USBReset() - %s\n", ((speed == USB_NONE) ? "NONE" : ((speed == USB_LOW) ? "LOW" : ((speed == USB_FULL) ? "FULL" : "???"))));
		if( speed == USB_LOW || speed == USB_FULL )
		{
///**/			DBG("Device initialize...\n");
			for( i=0; i<3; i++ )
    14c2:	0f 5f       	subi	r16, 0xFF	; 255
    14c4:	1f 4f       	sbci	r17, 0xFF	; 255
    14c6:	03 30       	cpi	r16, 0x03	; 3
    14c8:	11 05       	cpc	r17, r1
    14ca:	49 f7       	brne	.-46     	; 0x149e <main+0xaa>
				tmp = USBDeviceInit_in3(&dev, NULL, speed);
///**/				DBG("return_tmp[USBDeviceInit_in3]-->%d\n",tmp);
				if( tmp == 0 )	break;
				_delay_ms(100);
			}
			if( tmp == 0 )
    14cc:	89 81       	ldd	r24, Y+1	; 0x01
    14ce:	9a 81       	ldd	r25, Y+2	; 0x02
    14d0:	89 2b       	or	r24, r25
    14d2:	09 f0       	breq	.+2      	; 0x14d6 <main+0xe2>
    14d4:	bd cf       	rjmp	.-134    	; 0x1450 <main+0x5c>
			{
				LED1_OFF;
    14d6:	94 98       	cbi	0x12, 4	; 18
    14d8:	84 e2       	ldi	r24, 0x24	; 36
    14da:	94 ef       	ldi	r25, 0xF4	; 244
    14dc:	01 97       	sbiw	r24, 0x01	; 1
    14de:	f1 f7       	brne	.-4      	; 0x14dc <main+0xe8>
///**/				DBG("Device initialize succeed!\n");
///**/				DBG("Sony SIXAXIS\n");
				_delay_ms(250);
				while(1)
				{
					tmp = Sony_SIXAXIS_Init(&dev);
    14e0:	04 e2       	ldi	r16, 0x24	; 36
    14e2:	14 ef       	ldi	r17, 0xF4	; 244
    14e4:	80 e9       	ldi	r24, 0x90	; 144
    14e6:	92 e0       	ldi	r25, 0x02	; 2
    14e8:	0e 94 3e 07 	call	0xe7c	; 0xe7c <Sony_SIXAXIS_Init>
    14ec:	9a 83       	std	Y+2, r25	; 0x02
    14ee:	89 83       	std	Y+1, r24	; 0x01
    14f0:	c8 01       	movw	r24, r16
    14f2:	01 97       	sbiw	r24, 0x01	; 1
    14f4:	f1 f7       	brne	.-4      	; 0x14f2 <main+0xfe>
					_delay_ms(250);	// 確実にSIXAXISからデータを受信
///**/					DBG("return_tmp[Sony_SIXAXIS_Init]-->%d\n",tmp);
					if(tmp==0) break;
    14f6:	89 81       	ldd	r24, Y+1	; 0x01
    14f8:	9a 81       	ldd	r25, Y+2	; 0x02
    14fa:	89 2b       	or	r24, r25
    14fc:	99 f7       	brne	.-26     	; 0x14e4 <main+0xf0>
				}
				LED2_ON;
    14fe:	96 9a       	sbi	0x12, 6	; 18
				controler_main_process_loop();
    1500:	0e 94 b8 07 	call	0xf70	; 0xf70 <controler_main_process_loop>
    1504:	01 c0       	rjmp	.+2      	; 0x1508 <main+0x114>
    1506:	ff cf       	rjmp	.-2      	; 0x1506 <main+0x112>
    1508:	ff cf       	rjmp	.-2      	; 0x1508 <main+0x114>

0000150a <set_printf_output>:
#define TYPE_OUTNUM		11


void set_printf_output(int (*fp)(char))
{
	__printf_output = (int (*)(char))fp;
    150a:	90 93 39 02 	sts	0x0239, r25
    150e:	80 93 38 02 	sts	0x0238, r24
}
    1512:	08 95       	ret

00001514 <__printf>:

int __printf(const char *format, ...)
{
    1514:	2f 92       	push	r2
    1516:	3f 92       	push	r3
    1518:	4f 92       	push	r4
    151a:	5f 92       	push	r5
    151c:	6f 92       	push	r6
    151e:	7f 92       	push	r7
    1520:	8f 92       	push	r8
    1522:	9f 92       	push	r9
    1524:	af 92       	push	r10
    1526:	bf 92       	push	r11
    1528:	cf 92       	push	r12
    152a:	df 92       	push	r13
    152c:	ef 92       	push	r14
    152e:	ff 92       	push	r15
    1530:	0f 93       	push	r16
    1532:	1f 93       	push	r17
    1534:	df 93       	push	r29
    1536:	cf 93       	push	r28
    1538:	cd b7       	in	r28, 0x3d	; 61
    153a:	de b7       	in	r29, 0x3e	; 62
    153c:	e1 97       	sbiw	r28, 0x31	; 49
    153e:	0f b6       	in	r0, 0x3f	; 63
    1540:	f8 94       	cli
    1542:	de bf       	out	0x3e, r29	; 62
    1544:	0f be       	out	0x3f, r0	; 63
    1546:	cd bf       	out	0x3d, r28	; 61
    1548:	28 96       	adiw	r28, 0x08	; 8
    154a:	ee ad       	ldd	r30, Y+62	; 0x3e
    154c:	ff ad       	ldd	r31, Y+63	; 0x3f
    154e:	28 97       	sbiw	r28, 0x08	; 8
	int width;				// 最小フィールド幅
	unsigned char length;	// 長さ修飾子
	unsigned char type;		// 変換指定子
	unsigned char radix;	// 基数
	
	if( __printf_output == NULL )	return -1;
    1550:	80 91 38 02 	lds	r24, 0x0238
    1554:	90 91 39 02 	lds	r25, 0x0239
    1558:	89 2b       	or	r24, r25
    155a:	09 f4       	brne	.+2      	; 0x155e <__printf+0x4a>
    155c:	89 c3       	rjmp	.+1810   	; 0x1c70 <__printf+0x75c>
{
	__printf_output = (int (*)(char))fp;
}

int __printf(const char *format, ...)
{
    155e:	88 e4       	ldi	r24, 0x48	; 72
    1560:	a8 2e       	mov	r10, r24
    1562:	b1 2c       	mov	r11, r1
    1564:	ac 0e       	add	r10, r28
    1566:	bd 1e       	adc	r11, r29
    1568:	88 24       	eor	r8, r8
    156a:	99 24       	eor	r9, r9
    156c:	b8 c1       	rjmp	.+880    	; 0x18de <__printf+0x3ca>
    156e:	8f 01       	movw	r16, r30
    1570:	0f 5f       	subi	r16, 0xFF	; 255
    1572:	1f 4f       	sbci	r17, 0xFF	; 255
	if( __printf_output == NULL )	return -1;

	va_start(ap, format);
	
	while( *format ){
		if( *format != '%' ){
    1574:	85 32       	cpi	r24, 0x25	; 37
    1576:	51 f0       	breq	.+20     	; 0x158c <__printf+0x78>
			OUTPUT(*format);	output_cnt++;
    1578:	e0 91 38 02 	lds	r30, 0x0238
    157c:	f0 91 39 02 	lds	r31, 0x0239
    1580:	09 95       	icall
    1582:	08 94       	sec
    1584:	81 1c       	adc	r8, r1
    1586:	91 1c       	adc	r9, r1
			
			format++;
    1588:	f8 01       	movw	r30, r16
    158a:	a9 c1       	rjmp	.+850    	; 0x18de <__printf+0x3ca>
		}else{
			format++;	// skip '%'
    158c:	f8 01       	movw	r30, r16
    158e:	cc 24       	eor	r12, r12
    1590:	dd 24       	eor	r13, r13
			///////////// flag analysis //////////////
			flag = 0;	// clear all flags
			while(1){
				switch(*format){
    1592:	80 81       	ld	r24, Z
    1594:	8b 32       	cpi	r24, 0x2B	; 43
    1596:	99 f0       	breq	.+38     	; 0x15be <__printf+0xaa>
    1598:	8c 32       	cpi	r24, 0x2C	; 44
    159a:	28 f4       	brcc	.+10     	; 0x15a6 <__printf+0x92>
    159c:	80 32       	cpi	r24, 0x20	; 32
    159e:	a1 f0       	breq	.+40     	; 0x15c8 <__printf+0xb4>
    15a0:	83 32       	cpi	r24, 0x23	; 35
    15a2:	29 f4       	brne	.+10     	; 0x15ae <__printf+0x9a>
    15a4:	1b c0       	rjmp	.+54     	; 0x15dc <__printf+0xc8>
    15a6:	8d 32       	cpi	r24, 0x2D	; 45
    15a8:	29 f0       	breq	.+10     	; 0x15b4 <__printf+0xa0>
    15aa:	80 33       	cpi	r24, 0x30	; 48
    15ac:	91 f0       	breq	.+36     	; 0x15d2 <__printf+0xbe>
    15ae:	60 e0       	ldi	r22, 0x00	; 0
    15b0:	70 e0       	ldi	r23, 0x00	; 0
    15b2:	1d c0       	rjmp	.+58     	; 0x15ee <__printf+0xda>
					case '-': flag |= FLAG_ALEFT;		break;
    15b4:	01 e0       	ldi	r16, 0x01	; 1
    15b6:	10 e0       	ldi	r17, 0x00	; 0
    15b8:	c0 2a       	or	r12, r16
    15ba:	d1 2a       	or	r13, r17
    15bc:	13 c0       	rjmp	.+38     	; 0x15e4 <__printf+0xd0>
					case '+': flag |= FLAG_SIGN;		break;
    15be:	22 e0       	ldi	r18, 0x02	; 2
    15c0:	30 e0       	ldi	r19, 0x00	; 0
    15c2:	c2 2a       	or	r12, r18
    15c4:	d3 2a       	or	r13, r19
    15c6:	0e c0       	rjmp	.+28     	; 0x15e4 <__printf+0xd0>
					case ' ': flag |= FLAG_SPACE;		break;
    15c8:	44 e0       	ldi	r20, 0x04	; 4
    15ca:	50 e0       	ldi	r21, 0x00	; 0
    15cc:	c4 2a       	or	r12, r20
    15ce:	d5 2a       	or	r13, r21
    15d0:	09 c0       	rjmp	.+18     	; 0x15e4 <__printf+0xd0>
					case '0': flag |= FLAG_ZERO;		break;
    15d2:	88 e0       	ldi	r24, 0x08	; 8
    15d4:	90 e0       	ldi	r25, 0x00	; 0
    15d6:	c8 2a       	or	r12, r24
    15d8:	d9 2a       	or	r13, r25
    15da:	04 c0       	rjmp	.+8      	; 0x15e4 <__printf+0xd0>
					case '#': flag |= FLAG_ALT;			break;
    15dc:	a0 e1       	ldi	r26, 0x10	; 16
    15de:	b0 e0       	ldi	r27, 0x00	; 0
    15e0:	ca 2a       	or	r12, r26
    15e2:	db 2a       	or	r13, r27
					default	: goto flag_analysis_end;
				}
				format++;
    15e4:	31 96       	adiw	r30, 0x01	; 1
    15e6:	d5 cf       	rjmp	.-86     	; 0x1592 <__printf+0x7e>
			flag_analysis_end:
			///////////// flag analysis //////////////
			///////////// width analysis //////////////
			cnt = 0;
			while( *format >= '0' && *format <= '9' ){
				cnt++;
    15e8:	6f 5f       	subi	r22, 0xFF	; 255
    15ea:	7f 4f       	sbci	r23, 0xFF	; 255
				format++;
    15ec:	31 96       	adiw	r30, 0x01	; 1
			}
			flag_analysis_end:
			///////////// flag analysis //////////////
			///////////// width analysis //////////////
			cnt = 0;
			while( *format >= '0' && *format <= '9' ){
    15ee:	80 81       	ld	r24, Z
    15f0:	80 53       	subi	r24, 0x30	; 48
    15f2:	8a 30       	cpi	r24, 0x0A	; 10
    15f4:	c8 f3       	brcs	.-14     	; 0x15e8 <__printf+0xd4>
    15f6:	df 01       	movw	r26, r30
    15f8:	ab 01       	movw	r20, r22
    15fa:	21 e0       	ldi	r18, 0x01	; 1
    15fc:	30 e0       	ldi	r19, 0x00	; 0
    15fe:	66 24       	eor	r6, r6
    1600:	77 24       	eor	r7, r7
    1602:	19 c0       	rjmp	.+50     	; 0x1636 <__printf+0x122>
			}
			width = 0;
			tmp = 1;
			for( i=cnt; i!=0; i-- ){
				format--;
				width += tmp*(*format - '0');
    1604:	82 91       	ld	r24, -Z
    1606:	90 e0       	ldi	r25, 0x00	; 0
    1608:	c0 97       	sbiw	r24, 0x30	; 48
    160a:	8c 01       	movw	r16, r24
    160c:	20 9f       	mul	r18, r16
    160e:	c0 01       	movw	r24, r0
    1610:	21 9f       	mul	r18, r17
    1612:	90 0d       	add	r25, r0
    1614:	30 9f       	mul	r19, r16
    1616:	90 0d       	add	r25, r0
    1618:	11 24       	eor	r1, r1
    161a:	68 0e       	add	r6, r24
    161c:	79 1e       	adc	r7, r25
				tmp*=10;
    161e:	c9 01       	movw	r24, r18
    1620:	88 0f       	add	r24, r24
    1622:	99 1f       	adc	r25, r25
    1624:	13 e0       	ldi	r17, 0x03	; 3
    1626:	22 0f       	add	r18, r18
    1628:	33 1f       	adc	r19, r19
    162a:	1a 95       	dec	r17
    162c:	e1 f7       	brne	.-8      	; 0x1626 <__printf+0x112>
    162e:	28 0f       	add	r18, r24
    1630:	39 1f       	adc	r19, r25
				cnt++;
				format++;
			}
			width = 0;
			tmp = 1;
			for( i=cnt; i!=0; i-- ){
    1632:	41 50       	subi	r20, 0x01	; 1
    1634:	50 40       	sbci	r21, 0x00	; 0
    1636:	41 15       	cp	r20, r1
    1638:	51 05       	cpc	r21, r1
    163a:	21 f7       	brne	.-56     	; 0x1604 <__printf+0xf0>
    163c:	9d 01       	movw	r18, r26
    163e:	26 1b       	sub	r18, r22
    1640:	37 0b       	sbc	r19, r23
				format--;
				width += tmp*(*format - '0');
				tmp*=10;
			}
			format += cnt;
    1642:	26 0f       	add	r18, r22
    1644:	37 1f       	adc	r19, r23
    1646:	3c a7       	std	Y+44, r19	; 0x2c
    1648:	2b a7       	std	Y+43, r18	; 0x2b
			///////////// width analysis //////////////
			///////////// length analysis //////////////
			switch(*format){
    164a:	d9 01       	movw	r26, r18
    164c:	8c 91       	ld	r24, X
    164e:	88 36       	cpi	r24, 0x68	; 104
    1650:	21 f0       	breq	.+8      	; 0x165a <__printf+0x146>
    1652:	8c 36       	cpi	r24, 0x6C	; 108
    1654:	b9 f0       	breq	.+46     	; 0x1684 <__printf+0x170>
    1656:	90 e0       	ldi	r25, 0x00	; 0
    1658:	1c c0       	rjmp	.+56     	; 0x1692 <__printf+0x17e>
				case 'h':
					if( *(format+1) == 'h' ){
    165a:	2b a5       	ldd	r18, Y+43	; 0x2b
    165c:	3c a5       	ldd	r19, Y+44	; 0x2c
    165e:	2f 5f       	subi	r18, 0xFF	; 255
    1660:	3f 4f       	sbci	r19, 0xFF	; 255
    1662:	eb a5       	ldd	r30, Y+43	; 0x2b
    1664:	fc a5       	ldd	r31, Y+44	; 0x2c
    1666:	81 81       	ldd	r24, Z+1	; 0x01
    1668:	88 36       	cpi	r24, 0x68	; 104
    166a:	21 f4       	brne	.+8      	; 0x1674 <__printf+0x160>
    166c:	3c a7       	std	Y+44, r19	; 0x2c
    166e:	2b a7       	std	Y+43, r18	; 0x2b
    1670:	93 e0       	ldi	r25, 0x03	; 3
    1672:	01 c0       	rjmp	.+2      	; 0x1676 <__printf+0x162>
    1674:	92 e0       	ldi	r25, 0x02	; 2
						format++;
					}else{
						// short length
						length = LENGTH_SHORT;
					}
					format++;
    1676:	0b a5       	ldd	r16, Y+43	; 0x2b
    1678:	1c a5       	ldd	r17, Y+44	; 0x2c
    167a:	0f 5f       	subi	r16, 0xFF	; 255
    167c:	1f 4f       	sbci	r17, 0xFF	; 255
    167e:	1c a7       	std	Y+44, r17	; 0x2c
    1680:	0b a7       	std	Y+43, r16	; 0x2b
    1682:	07 c0       	rjmp	.+14     	; 0x1692 <__printf+0x17e>
					break;
				case 'l':
					// long length
					length = LENGTH_LONG;
					format++;
    1684:	2b a5       	ldd	r18, Y+43	; 0x2b
    1686:	3c a5       	ldd	r19, Y+44	; 0x2c
    1688:	2f 5f       	subi	r18, 0xFF	; 255
    168a:	3f 4f       	sbci	r19, 0xFF	; 255
    168c:	3c a7       	std	Y+44, r19	; 0x2c
    168e:	2b a7       	std	Y+43, r18	; 0x2b
    1690:	91 e0       	ldi	r25, 0x01	; 1
					length = LENGTH_DEFAULT;
			}
			///////////// length analysis //////////////
			///////////// type analysis //////////////
			type = TYPE_UNKNOWN;
			switch(*format){
    1692:	ab a5       	ldd	r26, Y+43	; 0x2b
    1694:	bc a5       	ldd	r27, Y+44	; 0x2c
    1696:	8c 91       	ld	r24, X
    1698:	8e 36       	cpi	r24, 0x6E	; 110
    169a:	09 f4       	brne	.+2      	; 0x169e <__printf+0x18a>
    169c:	0d c1       	rjmp	.+538    	; 0x18b8 <__printf+0x3a4>
    169e:	8f 36       	cpi	r24, 0x6F	; 111
    16a0:	98 f4       	brcc	.+38     	; 0x16c8 <__printf+0x1b4>
    16a2:	83 36       	cpi	r24, 0x63	; 99
    16a4:	21 f1       	breq	.+72     	; 0x16ee <__printf+0x1da>
    16a6:	84 36       	cpi	r24, 0x64	; 100
    16a8:	40 f4       	brcc	.+16     	; 0x16ba <__printf+0x1a6>
    16aa:	88 35       	cpi	r24, 0x58	; 88
    16ac:	19 f1       	breq	.+70     	; 0x16f4 <__printf+0x1e0>
    16ae:	82 36       	cpi	r24, 0x62	; 98
    16b0:	49 f1       	breq	.+82     	; 0x1704 <__printf+0x1f0>
    16b2:	85 32       	cpi	r24, 0x25	; 37
    16b4:	09 f0       	breq	.+2      	; 0x16b8 <__printf+0x1a4>
    16b6:	0a c1       	rjmp	.+532    	; 0x18cc <__printf+0x3b8>
    16b8:	ab c0       	rjmp	.+342    	; 0x1810 <__printf+0x2fc>
    16ba:	84 36       	cpi	r24, 0x64	; 100
    16bc:	09 f4       	brne	.+2      	; 0x16c0 <__printf+0x1ac>
    16be:	15 c1       	rjmp	.+554    	; 0x18ea <__printf+0x3d6>
    16c0:	89 36       	cpi	r24, 0x69	; 105
    16c2:	09 f0       	breq	.+2      	; 0x16c6 <__printf+0x1b2>
    16c4:	03 c1       	rjmp	.+518    	; 0x18cc <__printf+0x3b8>
    16c6:	11 c1       	rjmp	.+546    	; 0x18ea <__printf+0x3d6>
    16c8:	83 37       	cpi	r24, 0x73	; 115
    16ca:	01 f1       	breq	.+64     	; 0x170c <__printf+0x1f8>
    16cc:	84 37       	cpi	r24, 0x74	; 116
    16ce:	30 f4       	brcc	.+12     	; 0x16dc <__printf+0x1c8>
    16d0:	8f 36       	cpi	r24, 0x6F	; 111
    16d2:	a1 f0       	breq	.+40     	; 0x16fc <__printf+0x1e8>
    16d4:	80 37       	cpi	r24, 0x70	; 112
    16d6:	09 f0       	breq	.+2      	; 0x16da <__printf+0x1c6>
    16d8:	f9 c0       	rjmp	.+498    	; 0x18cc <__printf+0x3b8>
    16da:	7f c0       	rjmp	.+254    	; 0x17da <__printf+0x2c6>
    16dc:	85 37       	cpi	r24, 0x75	; 117
    16de:	09 f4       	brne	.+2      	; 0x16e2 <__printf+0x1ce>
    16e0:	e3 c2       	rjmp	.+1478   	; 0x1ca8 <__printf+0x794>
    16e2:	88 37       	cpi	r24, 0x78	; 120
    16e4:	09 f0       	breq	.+2      	; 0x16e8 <__printf+0x1d4>
    16e6:	f2 c0       	rjmp	.+484    	; 0x18cc <__printf+0x3b8>
    16e8:	b3 e0       	ldi	r27, 0x03	; 3
    16ea:	be a3       	std	Y+38, r27	; 0x26
    16ec:	05 c0       	rjmp	.+10     	; 0x16f8 <__printf+0x1e4>
    16ee:	e7 e0       	ldi	r30, 0x07	; 7
    16f0:	ed a7       	std	Y+45, r30	; 0x2d
    16f2:	90 c0       	rjmp	.+288    	; 0x1814 <__printf+0x300>
    16f4:	f4 e0       	ldi	r31, 0x04	; 4
    16f6:	fe a3       	std	Y+38, r31	; 0x26
    16f8:	20 e1       	ldi	r18, 0x10	; 16
    16fa:	d9 c2       	rjmp	.+1458   	; 0x1cae <__printf+0x79a>
					radix = 16;
					goto output_number_data;
				case 'X':	// hexadecimal(upper-case)
					type = TYPE_HEX_UC;
					radix = 16;
					goto output_number_data;
    16fc:	05 e0       	ldi	r16, 0x05	; 5
    16fe:	0e a3       	std	Y+38, r16	; 0x26
    1700:	28 e0       	ldi	r18, 0x08	; 8
    1702:	d5 c2       	rjmp	.+1450   	; 0x1cae <__printf+0x79a>
				case 'o':	// octal
					type = TYPE_OCT;
					radix = 8;
					goto output_number_data;
    1704:	16 e0       	ldi	r17, 0x06	; 6
    1706:	1e a3       	std	Y+38, r17	; 0x26
    1708:	22 e0       	ldi	r18, 0x02	; 2
    170a:	d1 c2       	rjmp	.+1442   	; 0x1cae <__printf+0x79a>
					type = TYPE_BIN;
					radix = 2;
					goto output_number_data;
				case 's':	// character string
					type = TYPE_STRING;
					char_p = va_arg(ap, char *);
    170c:	02 e0       	ldi	r16, 0x02	; 2
    170e:	20 2e       	mov	r2, r16
    1710:	31 2c       	mov	r3, r1
    1712:	2a 0c       	add	r2, r10
    1714:	3b 1c       	adc	r3, r11
    1716:	d5 01       	movw	r26, r10
    1718:	ed 90       	ld	r14, X+
    171a:	fc 90       	ld	r15, X

					char_tmp = (flag & FLAG_ZERO) ? '0' : ' ';
    171c:	c3 fc       	sbrc	r12, 3
    171e:	03 c0       	rjmp	.+6      	; 0x1726 <__printf+0x212>
    1720:	10 e2       	ldi	r17, 0x20	; 32
    1722:	51 2e       	mov	r5, r17
    1724:	02 c0       	rjmp	.+4      	; 0x172a <__printf+0x216>
    1726:	b0 e3       	ldi	r27, 0x30	; 48
    1728:	5b 2e       	mov	r5, r27
    172a:	20 e0       	ldi	r18, 0x00	; 0
    172c:	30 e0       	ldi	r19, 0x00	; 0
    172e:	02 c0       	rjmp	.+4      	; 0x1734 <__printf+0x220>

					for( cnt=0; *(char_p + cnt) ; cnt++ );		// 文字列長カウント
    1730:	2f 5f       	subi	r18, 0xFF	; 255
    1732:	3f 4f       	sbci	r19, 0xFF	; 255
    1734:	f7 01       	movw	r30, r14
    1736:	e2 0f       	add	r30, r18
    1738:	f3 1f       	adc	r31, r19
    173a:	80 81       	ld	r24, Z
    173c:	88 23       	and	r24, r24
    173e:	c1 f7       	brne	.-16     	; 0x1730 <__printf+0x21c>

					tmp = (width>cnt) ? (width-cnt) : (0);
    1740:	26 15       	cp	r18, r6
    1742:	37 05       	cpc	r19, r7
    1744:	1c f0       	brlt	.+6      	; 0x174c <__printf+0x238>
    1746:	aa 24       	eor	r10, r10
    1748:	bb 24       	eor	r11, r11
    174a:	03 c0       	rjmp	.+6      	; 0x1752 <__printf+0x23e>
    174c:	53 01       	movw	r10, r6
    174e:	a2 1a       	sub	r10, r18
    1750:	b3 0a       	sbc	r11, r19
					if( flag & FLAG_ALEFT ){
    1752:	c0 fc       	sbrc	r12, 0
    1754:	0d c0       	rjmp	.+26     	; 0x1770 <__printf+0x25c>
    1756:	85 01       	movw	r16, r10
    1758:	26 c0       	rjmp	.+76     	; 0x17a6 <__printf+0x292>
						while(*char_p){ OUTPUT(*(char_p++));	output_cnt++; }
    175a:	08 94       	sec
    175c:	e1 1c       	adc	r14, r1
    175e:	f1 1c       	adc	r15, r1
    1760:	e0 91 38 02 	lds	r30, 0x0238
    1764:	f0 91 39 02 	lds	r31, 0x0239
    1768:	09 95       	icall
    176a:	08 94       	sec
    176c:	81 1c       	adc	r8, r1
    176e:	91 1c       	adc	r9, r1
    1770:	f7 01       	movw	r30, r14
    1772:	80 81       	ld	r24, Z
    1774:	88 23       	and	r24, r24
    1776:	89 f7       	brne	.-30     	; 0x175a <__printf+0x246>
    1778:	85 01       	movw	r16, r10
    177a:	06 c0       	rjmp	.+12     	; 0x1788 <__printf+0x274>
						while( tmp-- ){ OUTPUT(' ');			output_cnt++; }
    177c:	e0 91 38 02 	lds	r30, 0x0238
    1780:	f0 91 39 02 	lds	r31, 0x0239
    1784:	80 e2       	ldi	r24, 0x20	; 32
    1786:	09 95       	icall
    1788:	01 50       	subi	r16, 0x01	; 1
    178a:	10 40       	sbci	r17, 0x00	; 0
    178c:	ff ef       	ldi	r31, 0xFF	; 255
    178e:	0f 3f       	cpi	r16, 0xFF	; 255
    1790:	1f 07       	cpc	r17, r31
    1792:	a1 f7       	brne	.-24     	; 0x177c <__printf+0x268>
    1794:	8a 0c       	add	r8, r10
    1796:	9b 1c       	adc	r9, r11
    1798:	1e c0       	rjmp	.+60     	; 0x17d6 <__printf+0x2c2>
					}else{
						while( tmp-- ){ OUTPUT(char_tmp);	output_cnt++; }
    179a:	e0 91 38 02 	lds	r30, 0x0238
    179e:	f0 91 39 02 	lds	r31, 0x0239
    17a2:	85 2d       	mov	r24, r5
    17a4:	09 95       	icall
    17a6:	01 50       	subi	r16, 0x01	; 1
    17a8:	10 40       	sbci	r17, 0x00	; 0
    17aa:	2f ef       	ldi	r18, 0xFF	; 255
    17ac:	0f 3f       	cpi	r16, 0xFF	; 255
    17ae:	12 07       	cpc	r17, r18
    17b0:	a1 f7       	brne	.-24     	; 0x179a <__printf+0x286>
    17b2:	8a 0c       	add	r8, r10
    17b4:	9b 1c       	adc	r9, r11
    17b6:	0b c0       	rjmp	.+22     	; 0x17ce <__printf+0x2ba>
						while(*char_p){ OUTPUT(*(char_p++)); output_cnt++; }
    17b8:	08 94       	sec
    17ba:	e1 1c       	adc	r14, r1
    17bc:	f1 1c       	adc	r15, r1
    17be:	e0 91 38 02 	lds	r30, 0x0238
    17c2:	f0 91 39 02 	lds	r31, 0x0239
    17c6:	09 95       	icall
    17c8:	08 94       	sec
    17ca:	81 1c       	adc	r8, r1
    17cc:	91 1c       	adc	r9, r1
    17ce:	d7 01       	movw	r26, r14
    17d0:	8c 91       	ld	r24, X
    17d2:	88 23       	and	r24, r24
    17d4:	89 f7       	brne	.-30     	; 0x17b8 <__printf+0x2a4>
    17d6:	51 01       	movw	r10, r2
    17d8:	7f c0       	rjmp	.+254    	; 0x18d8 <__printf+0x3c4>
					}
					break;
				case 'p':	// pointer (void *)
					type = TYPE_POINTER;
					radix = 16;
					flag |= FLAG_ALT;		// enable alternate form '0x'
    17da:	e0 e1       	ldi	r30, 0x10	; 16
    17dc:	f0 e0       	ldi	r31, 0x00	; 0
    17de:	ce 2a       	or	r12, r30
    17e0:	df 2a       	or	r13, r31
			}else{
				number.sign = SIGN_PLUS;
			}
			break;
		case TYPE_POINTER:
			number.value.u = (unsigned long)( va_arg(ap, void *) );
    17e2:	d5 01       	movw	r26, r10
    17e4:	8d 91       	ld	r24, X+
    17e6:	9c 91       	ld	r25, X
    17e8:	aa 27       	eor	r26, r26
    17ea:	97 fd       	sbrc	r25, 7
    17ec:	a0 95       	com	r26
    17ee:	ba 2f       	mov	r27, r26
    17f0:	8a 83       	std	Y+2, r24	; 0x02
    17f2:	9b 83       	std	Y+3, r25	; 0x03
    17f4:	ac 83       	std	Y+4, r26	; 0x04
    17f6:	bd 83       	std	Y+5, r27	; 0x05
			number.sign = SIGN_PLUS;
			flag &= (FLAG_ALEFT | FLAG_ZERO | FLAG_ALT);	// ignore ' '(SPACE) and '+'(SIGN) flags
    17f8:	b9 e1       	ldi	r27, 0x19	; 25
    17fa:	cb 22       	and	r12, r27
    17fc:	dd 24       	eor	r13, r13
    17fe:	e2 e0       	ldi	r30, 0x02	; 2
    1800:	f0 e0       	ldi	r31, 0x00	; 0
    1802:	ae 0e       	add	r10, r30
    1804:	bf 1e       	adc	r11, r31
    1806:	33 24       	eor	r3, r3
    1808:	f9 e0       	ldi	r31, 0x09	; 9
    180a:	fe a3       	std	Y+38, r31	; 0x26
    180c:	20 e1       	ldi	r18, 0x10	; 16
    180e:	cd c0       	rjmp	.+410    	; 0x19aa <__printf+0x496>
			break;
    1810:	0a e0       	ldi	r16, 0x0A	; 10
    1812:	0d a7       	std	Y+45, r16	; 0x2d
					goto output_number_data;
				case 'c':	// charcter
					type = TYPE_CHAR;
				case '%':	// literal '%'
					type = (type == TYPE_UNKNOWN) ? TYPE_PERCENT : type;
					tmp = (width>0) ? (width-1) : (0);
    1814:	16 14       	cp	r1, r6
    1816:	17 04       	cpc	r1, r7
    1818:	1c f0       	brlt	.+6      	; 0x1820 <__printf+0x30c>
    181a:	ee 24       	eor	r14, r14
    181c:	ff 24       	eor	r15, r15
    181e:	04 c0       	rjmp	.+8      	; 0x1828 <__printf+0x314>
    1820:	73 01       	movw	r14, r6
    1822:	08 94       	sec
    1824:	e1 08       	sbc	r14, r1
    1826:	f1 08       	sbc	r15, r1
					if( flag & FLAG_ALEFT ){
    1828:	c0 fe       	sbrs	r12, 0
    182a:	1f c0       	rjmp	.+62     	; 0x186a <__printf+0x356>
						OUTPUT((type == TYPE_CHAR) ? ((char)( va_arg(ap, int) )) : '%');
    182c:	e0 91 38 02 	lds	r30, 0x0238
    1830:	f0 91 39 02 	lds	r31, 0x0239
    1834:	1d a5       	ldd	r17, Y+45	; 0x2d
    1836:	17 30       	cpi	r17, 0x07	; 7
    1838:	11 f0       	breq	.+4      	; 0x183e <__printf+0x32a>
    183a:	85 e2       	ldi	r24, 0x25	; 37
    183c:	06 c0       	rjmp	.+12     	; 0x184a <__printf+0x336>
    183e:	d5 01       	movw	r26, r10
    1840:	8c 91       	ld	r24, X
    1842:	02 e0       	ldi	r16, 0x02	; 2
    1844:	10 e0       	ldi	r17, 0x00	; 0
    1846:	a0 0e       	add	r10, r16
    1848:	b1 1e       	adc	r11, r17
    184a:	09 95       	icall
    184c:	87 01       	movw	r16, r14
    184e:	06 c0       	rjmp	.+12     	; 0x185c <__printf+0x348>
						output_cnt++;
						while( tmp-- ){ OUTPUT(' ');	output_cnt++; }
    1850:	e0 91 38 02 	lds	r30, 0x0238
    1854:	f0 91 39 02 	lds	r31, 0x0239
    1858:	80 e2       	ldi	r24, 0x20	; 32
    185a:	09 95       	icall
    185c:	01 50       	subi	r16, 0x01	; 1
    185e:	10 40       	sbci	r17, 0x00	; 0
    1860:	2f ef       	ldi	r18, 0xFF	; 255
    1862:	0f 3f       	cpi	r16, 0xFF	; 255
    1864:	12 07       	cpc	r17, r18
    1866:	a1 f7       	brne	.-24     	; 0x1850 <__printf+0x33c>
    1868:	21 c0       	rjmp	.+66     	; 0x18ac <__printf+0x398>
					}else{
						char_tmp = (flag & FLAG_ZERO) ? '0' : ' ';
    186a:	c3 fc       	sbrc	r12, 3
    186c:	03 c0       	rjmp	.+6      	; 0x1874 <__printf+0x360>
    186e:	a0 e2       	ldi	r26, 0x20	; 32
    1870:	da 2e       	mov	r13, r26
    1872:	02 c0       	rjmp	.+4      	; 0x1878 <__printf+0x364>
    1874:	f0 e3       	ldi	r31, 0x30	; 48
    1876:	df 2e       	mov	r13, r31
    1878:	87 01       	movw	r16, r14
    187a:	02 c0       	rjmp	.+4      	; 0x1880 <__printf+0x36c>
						while( tmp-- ){ OUTPUT(char_tmp);	output_cnt++; }
    187c:	8d 2d       	mov	r24, r13
    187e:	09 95       	icall
    1880:	01 50       	subi	r16, 0x01	; 1
    1882:	10 40       	sbci	r17, 0x00	; 0
    1884:	e0 91 38 02 	lds	r30, 0x0238
    1888:	f0 91 39 02 	lds	r31, 0x0239
    188c:	3f ef       	ldi	r19, 0xFF	; 255
    188e:	0f 3f       	cpi	r16, 0xFF	; 255
    1890:	13 07       	cpc	r17, r19
    1892:	a1 f7       	brne	.-24     	; 0x187c <__printf+0x368>
						OUTPUT((type == TYPE_CHAR) ? ((char)( va_arg(ap, int) )) : '%');
    1894:	4d a5       	ldd	r20, Y+45	; 0x2d
    1896:	47 30       	cpi	r20, 0x07	; 7
    1898:	11 f0       	breq	.+4      	; 0x189e <__printf+0x38a>
    189a:	85 e2       	ldi	r24, 0x25	; 37
    189c:	06 c0       	rjmp	.+12     	; 0x18aa <__printf+0x396>
    189e:	d5 01       	movw	r26, r10
    18a0:	8c 91       	ld	r24, X
    18a2:	02 e0       	ldi	r16, 0x02	; 2
    18a4:	10 e0       	ldi	r17, 0x00	; 0
    18a6:	a0 0e       	add	r10, r16
    18a8:	b1 1e       	adc	r11, r17
    18aa:	09 95       	icall
    18ac:	08 94       	sec
    18ae:	81 1c       	adc	r8, r1
    18b0:	91 1c       	adc	r9, r1
						output_cnt++;
    18b2:	8e 0c       	add	r8, r14
    18b4:	9f 1c       	adc	r9, r15
    18b6:	10 c0       	rjmp	.+32     	; 0x18d8 <__printf+0x3c4>
					}
					break;
				case 'n':
					type = TYPE_OUTNUM;
					int_p = va_arg(ap, int *);
					*int_p = output_cnt;
    18b8:	d5 01       	movw	r26, r10
    18ba:	ed 91       	ld	r30, X+
    18bc:	fc 91       	ld	r31, X
    18be:	91 82       	std	Z+1, r9	; 0x01
    18c0:	80 82       	st	Z, r8
    18c2:	e2 e0       	ldi	r30, 0x02	; 2
    18c4:	f0 e0       	ldi	r31, 0x00	; 0
    18c6:	ae 0e       	add	r10, r30
    18c8:	bf 1e       	adc	r11, r31
    18ca:	06 c0       	rjmp	.+12     	; 0x18d8 <__printf+0x3c4>
					break;
				default:
					format--;
    18cc:	0b a5       	ldd	r16, Y+43	; 0x2b
    18ce:	1c a5       	ldd	r17, Y+44	; 0x2c
    18d0:	01 50       	subi	r16, 0x01	; 1
    18d2:	10 40       	sbci	r17, 0x00	; 0
    18d4:	1c a7       	std	Y+44, r17	; 0x2c
    18d6:	0b a7       	std	Y+43, r16	; 0x2b
			}
			///////////// type analysis //////////////
			finish_output_number_data:
			format++;
    18d8:	eb a5       	ldd	r30, Y+43	; 0x2b
    18da:	fc a5       	ldd	r31, Y+44	; 0x2c
    18dc:	31 96       	adiw	r30, 0x01	; 1
	
	if( __printf_output == NULL )	return -1;

	va_start(ap, format);
	
	while( *format ){
    18de:	80 81       	ld	r24, Z
    18e0:	88 23       	and	r24, r24
    18e2:	09 f0       	breq	.+2      	; 0x18e6 <__printf+0x3d2>
    18e4:	44 ce       	rjmp	.-888    	; 0x156e <__printf+0x5a>
			format++;
		}
	}
	va_end(ap);

	return output_cnt;
    18e6:	94 01       	movw	r18, r8
    18e8:	c5 c1       	rjmp	.+906    	; 0x1c74 <__printf+0x760>

output_number_data:
	switch( type ){
		case TYPE_DEC_S:
			// signed number
			switch(length){
    18ea:	91 30       	cpi	r25, 0x01	; 1
    18ec:	39 f0       	breq	.+14     	; 0x18fc <__printf+0x3e8>
    18ee:	91 30       	cpi	r25, 0x01	; 1
    18f0:	98 f0       	brcs	.+38     	; 0x1918 <__printf+0x404>
    18f2:	92 30       	cpi	r25, 0x02	; 2
    18f4:	89 f0       	breq	.+34     	; 0x1918 <__printf+0x404>
    18f6:	93 30       	cpi	r25, 0x03	; 3
    18f8:	f1 f4       	brne	.+60     	; 0x1936 <__printf+0x422>
    18fa:	0e c0       	rjmp	.+28     	; 0x1918 <__printf+0x404>
				case LENGTH_DEFAULT:	number.value.s = (signed long)( va_arg(ap, signed int) );		break;
				case LENGTH_LONG:		number.value.s = (signed long)( va_arg(ap, signed long) );		break;
    18fc:	f5 01       	movw	r30, r10
    18fe:	80 81       	ld	r24, Z
    1900:	91 81       	ldd	r25, Z+1	; 0x01
    1902:	a2 81       	ldd	r26, Z+2	; 0x02
    1904:	b3 81       	ldd	r27, Z+3	; 0x03
    1906:	8a 83       	std	Y+2, r24	; 0x02
    1908:	9b 83       	std	Y+3, r25	; 0x03
    190a:	ac 83       	std	Y+4, r26	; 0x04
    190c:	bd 83       	std	Y+5, r27	; 0x05
    190e:	04 e0       	ldi	r16, 0x04	; 4
    1910:	10 e0       	ldi	r17, 0x00	; 0
    1912:	a0 0e       	add	r10, r16
    1914:	b1 1e       	adc	r11, r17
    1916:	0f c0       	rjmp	.+30     	; 0x1936 <__printf+0x422>
//				case LENGTH_SHORT:		number.value.s = (signed long)( va_arg(ap, signed short) );		break;
				case LENGTH_SHORT:		number.value.s = (signed long)( va_arg(ap, signed int) );		break;
//				case LENGTH_CHAR:		number.value.s = (signed long)( va_arg(ap, signed char) );		break;
				case LENGTH_CHAR:		number.value.s = (signed long)( va_arg(ap, signed int) );		break;
    1918:	d5 01       	movw	r26, r10
    191a:	8d 91       	ld	r24, X+
    191c:	9c 91       	ld	r25, X
    191e:	aa 27       	eor	r26, r26
    1920:	97 fd       	sbrc	r25, 7
    1922:	a0 95       	com	r26
    1924:	ba 2f       	mov	r27, r26
    1926:	8a 83       	std	Y+2, r24	; 0x02
    1928:	9b 83       	std	Y+3, r25	; 0x03
    192a:	ac 83       	std	Y+4, r26	; 0x04
    192c:	bd 83       	std	Y+5, r27	; 0x05
    192e:	e2 e0       	ldi	r30, 0x02	; 2
    1930:	f0 e0       	ldi	r31, 0x00	; 0
    1932:	ae 0e       	add	r10, r30
    1934:	bf 1e       	adc	r11, r31
			}
			if( number.value.s < 0 ){
    1936:	2a 81       	ldd	r18, Y+2	; 0x02
    1938:	3b 81       	ldd	r19, Y+3	; 0x03
    193a:	4c 81       	ldd	r20, Y+4	; 0x04
    193c:	5d 81       	ldd	r21, Y+5	; 0x05
    193e:	57 fd       	sbrc	r21, 7
    1940:	04 c0       	rjmp	.+8      	; 0x194a <__printf+0x436>
    1942:	33 24       	eor	r3, r3
    1944:	f1 e0       	ldi	r31, 0x01	; 1
    1946:	fe a3       	std	Y+38, r31	; 0x26
    1948:	0f c0       	rjmp	.+30     	; 0x1968 <__printf+0x454>
				number.sign = SIGN_MINUS;
				number.value.u = (unsigned long)( (-1)*number.value.s );
    194a:	88 27       	eor	r24, r24
    194c:	99 27       	eor	r25, r25
    194e:	dc 01       	movw	r26, r24
    1950:	82 1b       	sub	r24, r18
    1952:	93 0b       	sbc	r25, r19
    1954:	a4 0b       	sbc	r26, r20
    1956:	b5 0b       	sbc	r27, r21
    1958:	8a 83       	std	Y+2, r24	; 0x02
    195a:	9b 83       	std	Y+3, r25	; 0x03
    195c:	ac 83       	std	Y+4, r26	; 0x04
    195e:	bd 83       	std	Y+5, r27	; 0x05
    1960:	33 24       	eor	r3, r3
    1962:	33 94       	inc	r3
    1964:	01 e0       	ldi	r16, 0x01	; 1
    1966:	0e a3       	std	Y+38, r16	; 0x26
    1968:	2a e0       	ldi	r18, 0x0A	; 10
    196a:	1f c0       	rjmp	.+62     	; 0x19aa <__printf+0x496>
			break;
		default:
			// unsigned number
			switch(length){
				case LENGTH_DEFAULT:	number.value.u = (unsigned long)( va_arg(ap, unsigned int) );		break;
				case LENGTH_LONG:		number.value.u = (unsigned long)( va_arg(ap, unsigned long) );		break;
    196c:	f5 01       	movw	r30, r10
    196e:	80 81       	ld	r24, Z
    1970:	91 81       	ldd	r25, Z+1	; 0x01
    1972:	a2 81       	ldd	r26, Z+2	; 0x02
    1974:	b3 81       	ldd	r27, Z+3	; 0x03
    1976:	8a 83       	std	Y+2, r24	; 0x02
    1978:	9b 83       	std	Y+3, r25	; 0x03
    197a:	ac 83       	std	Y+4, r26	; 0x04
    197c:	bd 83       	std	Y+5, r27	; 0x05
    197e:	04 e0       	ldi	r16, 0x04	; 4
    1980:	10 e0       	ldi	r17, 0x00	; 0
    1982:	a0 0e       	add	r10, r16
    1984:	b1 1e       	adc	r11, r17
    1986:	0d c0       	rjmp	.+26     	; 0x19a2 <__printf+0x48e>
//				case LENGTH_SHORT:		number.value.u = (unsigned long)( va_arg(ap, unsigned short) );		break;
				case LENGTH_SHORT:		number.value.u = (unsigned long)( va_arg(ap, unsigned int) );		break;
//				case LENGTH_CHAR:		number.value.u = (unsigned long)( va_arg(ap, unsigned char) );		break;
				case LENGTH_CHAR:		number.value.u = (unsigned long)( va_arg(ap, unsigned int) );		break;
    1988:	d5 01       	movw	r26, r10
    198a:	8d 91       	ld	r24, X+
    198c:	9c 91       	ld	r25, X
    198e:	a0 e0       	ldi	r26, 0x00	; 0
    1990:	b0 e0       	ldi	r27, 0x00	; 0
    1992:	8a 83       	std	Y+2, r24	; 0x02
    1994:	9b 83       	std	Y+3, r25	; 0x03
    1996:	ac 83       	std	Y+4, r26	; 0x04
    1998:	bd 83       	std	Y+5, r27	; 0x05
    199a:	e2 e0       	ldi	r30, 0x02	; 2
    199c:	f0 e0       	ldi	r31, 0x00	; 0
    199e:	ae 0e       	add	r10, r30
    19a0:	bf 1e       	adc	r11, r31
			}
			number.sign = SIGN_PLUS;

			flag &= (FLAG_ALEFT | FLAG_ZERO | FLAG_ALT);	// ignore ' '(SPACE) and '+'(SIGN) flags
    19a2:	f9 e1       	ldi	r31, 0x19	; 25
    19a4:	cf 22       	and	r12, r31
    19a6:	dd 24       	eor	r13, r13
    19a8:	33 24       	eor	r3, r3
	}
	flag = (flag & FLAG_SIGN) ? (flag & ~FLAG_SPACE) : flag;	// ignore '+'(SIGN) when ' '(SPACE) flag is active
    19aa:	c1 fe       	sbrs	r12, 1
    19ac:	04 c0       	rjmp	.+8      	; 0x19b6 <__printf+0x4a2>
    19ae:	0b ef       	ldi	r16, 0xFB	; 251
    19b0:	1f ef       	ldi	r17, 0xFF	; 255
    19b2:	c0 22       	and	r12, r16
    19b4:	d1 22       	and	r13, r17
	flag = (flag & FLAG_ALEFT) ? (flag & ~FLAG_ZERO) : flag;	// ignore '0'(ZERO) when '-'(ALEFT) flag is active
    19b6:	c0 fe       	sbrs	r12, 0
    19b8:	04 c0       	rjmp	.+8      	; 0x19c2 <__printf+0x4ae>
    19ba:	47 ef       	ldi	r20, 0xF7	; 247
    19bc:	5f ef       	ldi	r21, 0xFF	; 255
    19be:	c4 22       	and	r12, r20
    19c0:	d5 22       	and	r13, r21

	//////////////// number -> string //////////////////
	i = NUM_BUF_SIZE;
	char_tmp = (type == TYPE_HEX_UC) ? (55) : (87);
    19c2:	5e a1       	ldd	r21, Y+38	; 0x26
    19c4:	54 30       	cpi	r21, 0x04	; 4
    19c6:	19 f0       	breq	.+6      	; 0x19ce <__printf+0x4ba>
    19c8:	e7 e5       	ldi	r30, 0x57	; 87
    19ca:	2e 2e       	mov	r2, r30
    19cc:	02 c0       	rjmp	.+4      	; 0x19d2 <__printf+0x4be>
    19ce:	77 e3       	ldi	r23, 0x37	; 55
    19d0:	27 2e       	mov	r2, r23
	ul_tmp = number.value.u;
    19d2:	8a 81       	ldd	r24, Y+2	; 0x02
    19d4:	9b 81       	ldd	r25, Y+3	; 0x03
    19d6:	ac 81       	ldd	r26, Y+4	; 0x04
    19d8:	bd 81       	ldd	r27, Y+5	; 0x05
    19da:	8f a3       	std	Y+39, r24	; 0x27
    19dc:	98 a7       	std	Y+40, r25	; 0x28
    19de:	a9 a7       	std	Y+41, r26	; 0x29
    19e0:	ba a7       	std	Y+42, r27	; 0x2a
    19e2:	7c 01       	movw	r14, r24
    19e4:	8d 01       	movw	r16, r26
    19e6:	60 e2       	ldi	r22, 0x20	; 32
    19e8:	46 2e       	mov	r4, r22
    19ea:	51 2c       	mov	r5, r1
	do{
		i--;
		num_buf[i] = ul_tmp % radix;
    19ec:	82 2f       	mov	r24, r18
    19ee:	90 e0       	ldi	r25, 0x00	; 0
    19f0:	a0 e0       	ldi	r26, 0x00	; 0
    19f2:	b0 e0       	ldi	r27, 0x00	; 0
    19f4:	8e a7       	std	Y+46, r24	; 0x2e
    19f6:	9f a7       	std	Y+47, r25	; 0x2f
    19f8:	a8 ab       	std	Y+48, r26	; 0x30
    19fa:	b9 ab       	std	Y+49, r27	; 0x31
	//////////////// number -> string //////////////////
	i = NUM_BUF_SIZE;
	char_tmp = (type == TYPE_HEX_UC) ? (55) : (87);
	ul_tmp = number.value.u;
	do{
		i--;
    19fc:	08 94       	sec
    19fe:	41 08       	sbc	r4, r1
    1a00:	51 08       	sbc	r5, r1
		num_buf[i] = ul_tmp % radix;
    1a02:	c8 01       	movw	r24, r16
    1a04:	b7 01       	movw	r22, r14
    1a06:	2e a5       	ldd	r18, Y+46	; 0x2e
    1a08:	3f a5       	ldd	r19, Y+47	; 0x2f
    1a0a:	48 a9       	ldd	r20, Y+48	; 0x30
    1a0c:	59 a9       	ldd	r21, Y+49	; 0x31
    1a0e:	0e 94 96 12 	call	0x252c	; 0x252c <__udivmodsi4>
		num_buf[i] += (num_buf[i]>9) ? char_tmp : '0';
    1a12:	6a 30       	cpi	r22, 0x0A	; 10
    1a14:	10 f4       	brcc	.+4      	; 0x1a1a <__printf+0x506>
    1a16:	80 e3       	ldi	r24, 0x30	; 48
    1a18:	01 c0       	rjmp	.+2      	; 0x1a1c <__printf+0x508>
    1a1a:	82 2d       	mov	r24, r2
    1a1c:	e6 e0       	ldi	r30, 0x06	; 6
    1a1e:	f0 e0       	ldi	r31, 0x00	; 0
    1a20:	ec 0f       	add	r30, r28
    1a22:	fd 1f       	adc	r31, r29
    1a24:	e4 0d       	add	r30, r4
    1a26:	f5 1d       	adc	r31, r5
    1a28:	86 0f       	add	r24, r22
    1a2a:	80 83       	st	Z, r24

		ul_tmp /= radix;
    1a2c:	c8 01       	movw	r24, r16
    1a2e:	b7 01       	movw	r22, r14
    1a30:	2e a5       	ldd	r18, Y+46	; 0x2e
    1a32:	3f a5       	ldd	r19, Y+47	; 0x2f
    1a34:	48 a9       	ldd	r20, Y+48	; 0x30
    1a36:	59 a9       	ldd	r21, Y+49	; 0x31
    1a38:	0e 94 96 12 	call	0x252c	; 0x252c <__udivmodsi4>
    1a3c:	c9 01       	movw	r24, r18
    1a3e:	da 01       	movw	r26, r20
    1a40:	7c 01       	movw	r14, r24
    1a42:	8d 01       	movw	r16, r26
	}while( ul_tmp!=0 && i!=0 );
    1a44:	e1 14       	cp	r14, r1
    1a46:	f1 04       	cpc	r15, r1
    1a48:	01 05       	cpc	r16, r1
    1a4a:	11 05       	cpc	r17, r1
    1a4c:	19 f0       	breq	.+6      	; 0x1a54 <__printf+0x540>
    1a4e:	41 14       	cp	r4, r1
    1a50:	51 04       	cpc	r5, r1
    1a52:	a1 f6       	brne	.-88     	; 0x19fc <__printf+0x4e8>
	//////////////// number -> string //////////////////
	
	///////////////// output number ///////////////////

	char_tmp = (number.sign == SIGN_PLUS) ? ((flag & FLAG_SIGN) ? '+' : ((flag & FLAG_SPACE) ? ' ' : '*' )) : '-';	// Dummy '*'
    1a54:	33 20       	and	r3, r3
    1a56:	19 f0       	breq	.+6      	; 0x1a5e <__printf+0x54a>
    1a58:	5d e2       	ldi	r21, 0x2D	; 45
    1a5a:	35 2e       	mov	r3, r21
    1a5c:	0c c0       	rjmp	.+24     	; 0x1a76 <__printf+0x562>
    1a5e:	c1 fe       	sbrs	r12, 1
    1a60:	03 c0       	rjmp	.+6      	; 0x1a68 <__printf+0x554>
    1a62:	4b e2       	ldi	r20, 0x2B	; 43
    1a64:	34 2e       	mov	r3, r20
    1a66:	07 c0       	rjmp	.+14     	; 0x1a76 <__printf+0x562>
    1a68:	c2 fc       	sbrc	r12, 2
    1a6a:	03 c0       	rjmp	.+6      	; 0x1a72 <__printf+0x55e>
    1a6c:	3a e2       	ldi	r19, 0x2A	; 42
    1a6e:	33 2e       	mov	r3, r19
    1a70:	02 c0       	rjmp	.+4      	; 0x1a76 <__printf+0x562>
    1a72:	20 e2       	ldi	r18, 0x20	; 32
    1a74:	32 2e       	mov	r3, r18

	tmp = (NUM_BUF_SIZE-i) + ((char_tmp !='*') ? (1) : (0));
    1a76:	80 e2       	ldi	r24, 0x20	; 32
    1a78:	90 e0       	ldi	r25, 0x00	; 0
    1a7a:	84 19       	sub	r24, r4
    1a7c:	95 09       	sbc	r25, r5
    1a7e:	20 e0       	ldi	r18, 0x00	; 0
    1a80:	30 e0       	ldi	r19, 0x00	; 0
    1a82:	aa e2       	ldi	r26, 0x2A	; 42
    1a84:	3a 16       	cp	r3, r26
    1a86:	11 f0       	breq	.+4      	; 0x1a8c <__printf+0x578>
    1a88:	21 e0       	ldi	r18, 0x01	; 1
    1a8a:	30 e0       	ldi	r19, 0x00	; 0
    1a8c:	82 0f       	add	r24, r18
    1a8e:	93 1f       	adc	r25, r19
	
	char_p = "";
	if( (flag & FLAG_ALT) && (number.value.u != 0) ){
    1a90:	c4 fe       	sbrs	r12, 4
    1a92:	18 c0       	rjmp	.+48     	; 0x1ac4 <__printf+0x5b0>
    1a94:	0f a1       	ldd	r16, Y+39	; 0x27
    1a96:	18 a5       	ldd	r17, Y+40	; 0x28
    1a98:	29 a5       	ldd	r18, Y+41	; 0x29
    1a9a:	3a a5       	ldd	r19, Y+42	; 0x2a
    1a9c:	01 15       	cp	r16, r1
    1a9e:	11 05       	cpc	r17, r1
    1aa0:	21 05       	cpc	r18, r1
    1aa2:	31 05       	cpc	r19, r1
    1aa4:	79 f0       	breq	.+30     	; 0x1ac4 <__printf+0x5b0>
		switch(type){
    1aa6:	1e a1       	ldd	r17, Y+38	; 0x26
    1aa8:	15 30       	cpi	r17, 0x05	; 5
    1aaa:	b9 f0       	breq	.+46     	; 0x1ada <__printf+0x5c6>
    1aac:	16 30       	cpi	r17, 0x06	; 6
    1aae:	28 f4       	brcc	.+10     	; 0x1aba <__printf+0x5a6>
    1ab0:	13 30       	cpi	r17, 0x03	; 3
    1ab2:	59 f0       	breq	.+22     	; 0x1aca <__printf+0x5b6>
    1ab4:	14 30       	cpi	r17, 0x04	; 4
    1ab6:	31 f4       	brne	.+12     	; 0x1ac4 <__printf+0x5b0>
    1ab8:	0c c0       	rjmp	.+24     	; 0x1ad2 <__printf+0x5be>
    1aba:	2e a1       	ldd	r18, Y+38	; 0x26
    1abc:	26 30       	cpi	r18, 0x06	; 6
    1abe:	89 f0       	breq	.+34     	; 0x1ae2 <__printf+0x5ce>
    1ac0:	29 30       	cpi	r18, 0x09	; 9
    1ac2:	19 f0       	breq	.+6      	; 0x1aca <__printf+0x5b6>
    1ac4:	04 e1       	ldi	r16, 0x14	; 20
    1ac6:	11 e0       	ldi	r17, 0x01	; 1
    1ac8:	0f c0       	rjmp	.+30     	; 0x1ae8 <__printf+0x5d4>
			case TYPE_POINTER:
			case TYPE_HEX_LC:
				char_p = "0x";
				tmp+=2;
    1aca:	02 96       	adiw	r24, 0x02	; 2
    1acc:	05 e1       	ldi	r16, 0x15	; 21
    1ace:	11 e0       	ldi	r17, 0x01	; 1
    1ad0:	0b c0       	rjmp	.+22     	; 0x1ae8 <__printf+0x5d4>
				break;
			case TYPE_HEX_UC:
				char_p = "0X";
				tmp+=2;
    1ad2:	02 96       	adiw	r24, 0x02	; 2
    1ad4:	08 e1       	ldi	r16, 0x18	; 24
    1ad6:	11 e0       	ldi	r17, 0x01	; 1
    1ad8:	07 c0       	rjmp	.+14     	; 0x1ae8 <__printf+0x5d4>
				break;
			case TYPE_OCT:
				char_p = "0";
				tmp+=1;
    1ada:	01 96       	adiw	r24, 0x01	; 1
    1adc:	0b e1       	ldi	r16, 0x1B	; 27
    1ade:	11 e0       	ldi	r17, 0x01	; 1
    1ae0:	03 c0       	rjmp	.+6      	; 0x1ae8 <__printf+0x5d4>
				break;
			case TYPE_BIN:
				char_p = "0b";
				tmp+=2;
    1ae2:	02 96       	adiw	r24, 0x02	; 2
    1ae4:	0d e1       	ldi	r16, 0x1D	; 29
    1ae6:	11 e0       	ldi	r17, 0x01	; 1
		}
	}

	tmp = (tmp < width) ? (width - tmp) : 0;
    1ae8:	86 15       	cp	r24, r6
    1aea:	97 05       	cpc	r25, r7
    1aec:	1c f0       	brlt	.+6      	; 0x1af4 <__printf+0x5e0>
    1aee:	66 24       	eor	r6, r6
    1af0:	77 24       	eor	r7, r7
    1af2:	02 c0       	rjmp	.+4      	; 0x1af8 <__printf+0x5e4>
    1af4:	68 1a       	sub	r6, r24
    1af6:	79 0a       	sbc	r7, r25
	if( flag & FLAG_ALEFT ){
    1af8:	c0 fe       	sbrs	r12, 0
    1afa:	44 c0       	rjmp	.+136    	; 0x1b84 <__printf+0x670>
		if(char_tmp != '*'){ OUTPUT(char_tmp);	output_cnt++; }
    1afc:	3a e2       	ldi	r19, 0x2A	; 42
    1afe:	33 16       	cp	r3, r19
    1b00:	81 f0       	breq	.+32     	; 0x1b22 <__printf+0x60e>
    1b02:	e0 91 38 02 	lds	r30, 0x0238
    1b06:	f0 91 39 02 	lds	r31, 0x0239
    1b0a:	83 2d       	mov	r24, r3
    1b0c:	06 c0       	rjmp	.+12     	; 0x1b1a <__printf+0x606>
		while(*char_p){ OUTPUT(*(char_p++));	output_cnt++; }	// output alternate form
    1b0e:	0f 5f       	subi	r16, 0xFF	; 255
    1b10:	1f 4f       	sbci	r17, 0xFF	; 255
    1b12:	e0 91 38 02 	lds	r30, 0x0238
    1b16:	f0 91 39 02 	lds	r31, 0x0239
    1b1a:	09 95       	icall
    1b1c:	08 94       	sec
    1b1e:	81 1c       	adc	r8, r1
    1b20:	91 1c       	adc	r9, r1
    1b22:	d8 01       	movw	r26, r16
    1b24:	8c 91       	ld	r24, X
    1b26:	88 23       	and	r24, r24
    1b28:	91 f7       	brne	.-28     	; 0x1b0e <__printf+0x5fa>
    1b2a:	96 e0       	ldi	r25, 0x06	; 6
    1b2c:	e9 2e       	mov	r14, r25
    1b2e:	f1 2c       	mov	r15, r1
    1b30:	ec 0e       	add	r14, r28
    1b32:	fd 1e       	adc	r15, r29
    1b34:	e4 0c       	add	r14, r4
    1b36:	f5 1c       	adc	r15, r5
    1b38:	82 01       	movw	r16, r4
		for(; i<NUM_BUF_SIZE; i++){ OUTPUT(num_buf[i]);	output_cnt++; }
    1b3a:	e0 91 38 02 	lds	r30, 0x0238
    1b3e:	f0 91 39 02 	lds	r31, 0x0239
    1b42:	d7 01       	movw	r26, r14
    1b44:	8d 91       	ld	r24, X+
    1b46:	7d 01       	movw	r14, r26
    1b48:	09 95       	icall
    1b4a:	0f 5f       	subi	r16, 0xFF	; 255
    1b4c:	1f 4f       	sbci	r17, 0xFF	; 255
    1b4e:	00 32       	cpi	r16, 0x20	; 32
    1b50:	11 05       	cpc	r17, r1
    1b52:	99 f7       	brne	.-26     	; 0x1b3a <__printf+0x626>
{
	__printf_output = (int (*)(char))fp;
}

int __printf(const char *format, ...)
{
    1b54:	72 01       	movw	r14, r4
    1b56:	e0 94       	com	r14
    1b58:	f0 94       	com	r15
    1b5a:	83 01       	movw	r16, r6
    1b5c:	06 c0       	rjmp	.+12     	; 0x1b6a <__printf+0x656>
	tmp = (tmp < width) ? (width - tmp) : 0;
	if( flag & FLAG_ALEFT ){
		if(char_tmp != '*'){ OUTPUT(char_tmp);	output_cnt++; }
		while(*char_p){ OUTPUT(*(char_p++));	output_cnt++; }	// output alternate form
		for(; i<NUM_BUF_SIZE; i++){ OUTPUT(num_buf[i]);	output_cnt++; }
		while(tmp--){ OUTPUT(' ');	output_cnt++; }
    1b5e:	e0 91 38 02 	lds	r30, 0x0238
    1b62:	f0 91 39 02 	lds	r31, 0x0239
    1b66:	80 e2       	ldi	r24, 0x20	; 32
    1b68:	09 95       	icall
    1b6a:	01 50       	subi	r16, 0x01	; 1
    1b6c:	10 40       	sbci	r17, 0x00	; 0
    1b6e:	bf ef       	ldi	r27, 0xFF	; 255
    1b70:	0f 3f       	cpi	r16, 0xFF	; 255
    1b72:	1b 07       	cpc	r17, r27
    1b74:	a1 f7       	brne	.-24     	; 0x1b5e <__printf+0x64a>
    1b76:	e1 e2       	ldi	r30, 0x21	; 33
    1b78:	f0 e0       	ldi	r31, 0x00	; 0
    1b7a:	ee 0e       	add	r14, r30
    1b7c:	ff 1e       	adc	r15, r31
    1b7e:	e6 0c       	add	r14, r6
    1b80:	f7 1c       	adc	r15, r7
    1b82:	97 ce       	rjmp	.-722    	; 0x18b2 <__printf+0x39e>
	}else{
		if( flag & FLAG_ZERO ){
    1b84:	c3 fc       	sbrc	r12, 3
    1b86:	02 c0       	rjmp	.+4      	; 0x1b8c <__printf+0x678>
    1b88:	73 01       	movw	r14, r6
    1b8a:	2f c0       	rjmp	.+94     	; 0x1bea <__printf+0x6d6>
			if(char_tmp != '*'){ OUTPUT(char_tmp);	output_cnt++; }
    1b8c:	fa e2       	ldi	r31, 0x2A	; 42
    1b8e:	3f 16       	cp	r3, r31
    1b90:	81 f0       	breq	.+32     	; 0x1bb2 <__printf+0x69e>
    1b92:	e0 91 38 02 	lds	r30, 0x0238
    1b96:	f0 91 39 02 	lds	r31, 0x0239
    1b9a:	83 2d       	mov	r24, r3
    1b9c:	06 c0       	rjmp	.+12     	; 0x1baa <__printf+0x696>
			while(*char_p){ OUTPUT(*(char_p++));	output_cnt++; }	// output alternate form
    1b9e:	0f 5f       	subi	r16, 0xFF	; 255
    1ba0:	1f 4f       	sbci	r17, 0xFF	; 255
    1ba2:	e0 91 38 02 	lds	r30, 0x0238
    1ba6:	f0 91 39 02 	lds	r31, 0x0239
    1baa:	09 95       	icall
    1bac:	08 94       	sec
    1bae:	81 1c       	adc	r8, r1
    1bb0:	91 1c       	adc	r9, r1
    1bb2:	d8 01       	movw	r26, r16
    1bb4:	8c 91       	ld	r24, X
    1bb6:	88 23       	and	r24, r24
    1bb8:	91 f7       	brne	.-28     	; 0x1b9e <__printf+0x68a>
    1bba:	83 01       	movw	r16, r6
    1bbc:	06 c0       	rjmp	.+12     	; 0x1bca <__printf+0x6b6>
			while(tmp--){ OUTPUT('0');				output_cnt++; }
    1bbe:	e0 91 38 02 	lds	r30, 0x0238
    1bc2:	f0 91 39 02 	lds	r31, 0x0239
    1bc6:	80 e3       	ldi	r24, 0x30	; 48
    1bc8:	09 95       	icall
    1bca:	01 50       	subi	r16, 0x01	; 1
    1bcc:	10 40       	sbci	r17, 0x00	; 0
    1bce:	bf ef       	ldi	r27, 0xFF	; 255
    1bd0:	0f 3f       	cpi	r16, 0xFF	; 255
    1bd2:	1b 07       	cpc	r17, r27
    1bd4:	a1 f7       	brne	.-24     	; 0x1bbe <__printf+0x6aa>
    1bd6:	74 01       	movw	r14, r8
    1bd8:	e6 0c       	add	r14, r6
    1bda:	f7 1c       	adc	r15, r7
    1bdc:	2c c0       	rjmp	.+88     	; 0x1c36 <__printf+0x722>
		}else{
			while(tmp--){ OUTPUT(' ');				output_cnt++; }
    1bde:	e0 91 38 02 	lds	r30, 0x0238
    1be2:	f0 91 39 02 	lds	r31, 0x0239
    1be6:	80 e2       	ldi	r24, 0x20	; 32
    1be8:	09 95       	icall
    1bea:	08 94       	sec
    1bec:	e1 08       	sbc	r14, r1
    1bee:	f1 08       	sbc	r15, r1
    1bf0:	ef ef       	ldi	r30, 0xFF	; 255
    1bf2:	ee 16       	cp	r14, r30
    1bf4:	ef ef       	ldi	r30, 0xFF	; 255
    1bf6:	fe 06       	cpc	r15, r30
    1bf8:	91 f7       	brne	.-28     	; 0x1bde <__printf+0x6ca>
    1bfa:	73 01       	movw	r14, r6
    1bfc:	e8 0c       	add	r14, r8
    1bfe:	f9 1c       	adc	r15, r9
    1c00:	0a c0       	rjmp	.+20     	; 0x1c16 <__printf+0x702>
			while(*char_p){ OUTPUT(*(char_p++));		output_cnt++; }	// output alternate form
    1c02:	0f 5f       	subi	r16, 0xFF	; 255
    1c04:	1f 4f       	sbci	r17, 0xFF	; 255
    1c06:	e0 91 38 02 	lds	r30, 0x0238
    1c0a:	f0 91 39 02 	lds	r31, 0x0239
    1c0e:	09 95       	icall
    1c10:	08 94       	sec
    1c12:	e1 1c       	adc	r14, r1
    1c14:	f1 1c       	adc	r15, r1
    1c16:	d8 01       	movw	r26, r16
    1c18:	8c 91       	ld	r24, X
    1c1a:	88 23       	and	r24, r24
    1c1c:	91 f7       	brne	.-28     	; 0x1c02 <__printf+0x6ee>
			if(char_tmp != '*'){ OUTPUT(char_tmp);	output_cnt++; }
    1c1e:	ba e2       	ldi	r27, 0x2A	; 42
    1c20:	3b 16       	cp	r3, r27
    1c22:	49 f0       	breq	.+18     	; 0x1c36 <__printf+0x722>
    1c24:	e0 91 38 02 	lds	r30, 0x0238
    1c28:	f0 91 39 02 	lds	r31, 0x0239
    1c2c:	83 2d       	mov	r24, r3
    1c2e:	09 95       	icall
    1c30:	08 94       	sec
    1c32:	e1 1c       	adc	r14, r1
    1c34:	f1 1c       	adc	r15, r1
    1c36:	86 e0       	ldi	r24, 0x06	; 6
    1c38:	c8 2e       	mov	r12, r24
    1c3a:	d1 2c       	mov	r13, r1
    1c3c:	cc 0e       	add	r12, r28
    1c3e:	dd 1e       	adc	r13, r29
    1c40:	c4 0c       	add	r12, r4
    1c42:	d5 1c       	adc	r13, r5
    1c44:	82 01       	movw	r16, r4
		}
		for(; i<NUM_BUF_SIZE; i++){ OUTPUT(num_buf[i]);	output_cnt++; }
    1c46:	e0 91 38 02 	lds	r30, 0x0238
    1c4a:	f0 91 39 02 	lds	r31, 0x0239
    1c4e:	d6 01       	movw	r26, r12
    1c50:	8d 91       	ld	r24, X+
    1c52:	6d 01       	movw	r12, r26
    1c54:	09 95       	icall
    1c56:	0f 5f       	subi	r16, 0xFF	; 255
    1c58:	1f 4f       	sbci	r17, 0xFF	; 255
    1c5a:	00 32       	cpi	r16, 0x20	; 32
    1c5c:	11 05       	cpc	r17, r1
    1c5e:	99 f7       	brne	.-26     	; 0x1c46 <__printf+0x732>
    1c60:	47 01       	movw	r8, r14
    1c62:	84 18       	sub	r8, r4
    1c64:	95 08       	sbc	r9, r5
    1c66:	e0 e2       	ldi	r30, 0x20	; 32
    1c68:	f0 e0       	ldi	r31, 0x00	; 0
    1c6a:	8e 0e       	add	r8, r30
    1c6c:	9f 1e       	adc	r9, r31
    1c6e:	34 ce       	rjmp	.-920    	; 0x18d8 <__printf+0x3c4>
    1c70:	2f ef       	ldi	r18, 0xFF	; 255
    1c72:	3f ef       	ldi	r19, 0xFF	; 255
	}
	///////////////// output number ///////////////////
	
	goto finish_output_number_data;
}
    1c74:	c9 01       	movw	r24, r18
    1c76:	e1 96       	adiw	r28, 0x31	; 49
    1c78:	0f b6       	in	r0, 0x3f	; 63
    1c7a:	f8 94       	cli
    1c7c:	de bf       	out	0x3e, r29	; 62
    1c7e:	0f be       	out	0x3f, r0	; 63
    1c80:	cd bf       	out	0x3d, r28	; 61
    1c82:	cf 91       	pop	r28
    1c84:	df 91       	pop	r29
    1c86:	1f 91       	pop	r17
    1c88:	0f 91       	pop	r16
    1c8a:	ff 90       	pop	r15
    1c8c:	ef 90       	pop	r14
    1c8e:	df 90       	pop	r13
    1c90:	cf 90       	pop	r12
    1c92:	bf 90       	pop	r11
    1c94:	af 90       	pop	r10
    1c96:	9f 90       	pop	r9
    1c98:	8f 90       	pop	r8
    1c9a:	7f 90       	pop	r7
    1c9c:	6f 90       	pop	r6
    1c9e:	5f 90       	pop	r5
    1ca0:	4f 90       	pop	r4
    1ca2:	3f 90       	pop	r3
    1ca4:	2f 90       	pop	r2
    1ca6:	08 95       	ret
		}else{
			while(tmp--){ OUTPUT(' ');				output_cnt++; }
			while(*char_p){ OUTPUT(*(char_p++));		output_cnt++; }	// output alternate form
			if(char_tmp != '*'){ OUTPUT(char_tmp);	output_cnt++; }
		}
		for(; i<NUM_BUF_SIZE; i++){ OUTPUT(num_buf[i]);	output_cnt++; }
    1ca8:	f2 e0       	ldi	r31, 0x02	; 2
    1caa:	fe a3       	std	Y+38, r31	; 0x26
    1cac:	2a e0       	ldi	r18, 0x0A	; 10
			number.sign = SIGN_PLUS;
			flag &= (FLAG_ALEFT | FLAG_ZERO | FLAG_ALT);	// ignore ' '(SPACE) and '+'(SIGN) flags
			break;
		default:
			// unsigned number
			switch(length){
    1cae:	91 30       	cpi	r25, 0x01	; 1
    1cb0:	09 f4       	brne	.+2      	; 0x1cb4 <__printf+0x7a0>
    1cb2:	5c ce       	rjmp	.-840    	; 0x196c <__printf+0x458>
    1cb4:	91 30       	cpi	r25, 0x01	; 1
    1cb6:	08 f4       	brcc	.+2      	; 0x1cba <__printf+0x7a6>
    1cb8:	67 ce       	rjmp	.-818    	; 0x1988 <__printf+0x474>
    1cba:	92 30       	cpi	r25, 0x02	; 2
    1cbc:	09 f4       	brne	.+2      	; 0x1cc0 <__printf+0x7ac>
    1cbe:	64 ce       	rjmp	.-824    	; 0x1988 <__printf+0x474>
    1cc0:	93 30       	cpi	r25, 0x03	; 3
    1cc2:	09 f0       	breq	.+2      	; 0x1cc6 <__printf+0x7b2>
    1cc4:	6e ce       	rjmp	.-804    	; 0x19a2 <__printf+0x48e>
    1cc6:	60 ce       	rjmp	.-832    	; 0x1988 <__printf+0x474>

00001cc8 <RingInit>:

#define TRUE	1
#define FALSE	0

__inline__ void RingInit(RingBuffer *ring, unsigned char *buf, unsigned int size)
{
    1cc8:	fc 01       	movw	r30, r24
	ring->buf = buf;
    1cca:	71 83       	std	Z+1, r23	; 0x01
    1ccc:	60 83       	st	Z, r22
	ring->size = size;
    1cce:	57 83       	std	Z+7, r21	; 0x07
    1cd0:	46 83       	std	Z+6, r20	; 0x06
	ring->rp = 0;
    1cd2:	13 82       	std	Z+3, r1	; 0x03
    1cd4:	12 82       	std	Z+2, r1	; 0x02
	ring->wp = 0;
    1cd6:	15 82       	std	Z+5, r1	; 0x05
    1cd8:	14 82       	std	Z+4, r1	; 0x04
	ring->empty = TRUE;
    1cda:	81 e0       	ldi	r24, 0x01	; 1
    1cdc:	80 87       	std	Z+8, r24	; 0x08
}
    1cde:	08 95       	ret

00001ce0 <RingPut>:

__inline__ int RingPut(RingBuffer *ring, unsigned char value)
{
    1ce0:	dc 01       	movw	r26, r24
	if( !ring->empty && ring->rp == ring->wp ){
    1ce2:	18 96       	adiw	r26, 0x08	; 8
    1ce4:	8c 91       	ld	r24, X
    1ce6:	18 97       	sbiw	r26, 0x08	; 8
    1ce8:	88 23       	and	r24, r24
    1cea:	71 f4       	brne	.+28     	; 0x1d08 <RingPut+0x28>
    1cec:	12 96       	adiw	r26, 0x02	; 2
    1cee:	2d 91       	ld	r18, X+
    1cf0:	3c 91       	ld	r19, X
    1cf2:	13 97       	sbiw	r26, 0x03	; 3
    1cf4:	14 96       	adiw	r26, 0x04	; 4
    1cf6:	8d 91       	ld	r24, X+
    1cf8:	9c 91       	ld	r25, X
    1cfa:	15 97       	sbiw	r26, 0x05	; 5
    1cfc:	28 17       	cp	r18, r24
    1cfe:	39 07       	cpc	r19, r25
    1d00:	19 f4       	brne	.+6      	; 0x1d08 <RingPut+0x28>
    1d02:	20 e0       	ldi	r18, 0x00	; 0
    1d04:	30 e0       	ldi	r19, 0x00	; 0
    1d06:	22 c0       	rjmp	.+68     	; 0x1d4c <RingPut+0x6c>
		return FALSE;
	}
	ring->buf[ring->wp] = value;
    1d08:	ed 91       	ld	r30, X+
    1d0a:	fc 91       	ld	r31, X
    1d0c:	11 97       	sbiw	r26, 0x01	; 1
    1d0e:	14 96       	adiw	r26, 0x04	; 4
    1d10:	8d 91       	ld	r24, X+
    1d12:	9c 91       	ld	r25, X
    1d14:	15 97       	sbiw	r26, 0x05	; 5
    1d16:	e8 0f       	add	r30, r24
    1d18:	f9 1f       	adc	r31, r25
    1d1a:	60 83       	st	Z, r22
	ring->wp++;
    1d1c:	14 96       	adiw	r26, 0x04	; 4
    1d1e:	8d 91       	ld	r24, X+
    1d20:	9c 91       	ld	r25, X
    1d22:	15 97       	sbiw	r26, 0x05	; 5
    1d24:	01 96       	adiw	r24, 0x01	; 1
    1d26:	15 96       	adiw	r26, 0x05	; 5
    1d28:	9c 93       	st	X, r25
    1d2a:	8e 93       	st	-X, r24
    1d2c:	14 97       	sbiw	r26, 0x04	; 4
	if( ring->wp == ring->size ) ring->wp = 0;
    1d2e:	16 96       	adiw	r26, 0x06	; 6
    1d30:	2d 91       	ld	r18, X+
    1d32:	3c 91       	ld	r19, X
    1d34:	17 97       	sbiw	r26, 0x07	; 7
    1d36:	82 17       	cp	r24, r18
    1d38:	93 07       	cpc	r25, r19
    1d3a:	21 f4       	brne	.+8      	; 0x1d44 <RingPut+0x64>
    1d3c:	15 96       	adiw	r26, 0x05	; 5
    1d3e:	1c 92       	st	X, r1
    1d40:	1e 92       	st	-X, r1
    1d42:	14 97       	sbiw	r26, 0x04	; 4

	ring->empty = FALSE;
    1d44:	18 96       	adiw	r26, 0x08	; 8
    1d46:	1c 92       	st	X, r1
    1d48:	21 e0       	ldi	r18, 0x01	; 1
    1d4a:	30 e0       	ldi	r19, 0x00	; 0
	
	return TRUE;
}
    1d4c:	c9 01       	movw	r24, r18
    1d4e:	08 95       	ret

00001d50 <RingGet>:

__inline__ int RingGet(RingBuffer *ring, unsigned char *value)
{
    1d50:	cf 93       	push	r28
    1d52:	df 93       	push	r29
    1d54:	dc 01       	movw	r26, r24
    1d56:	eb 01       	movw	r28, r22
	if( !ring->empty ){
    1d58:	18 96       	adiw	r26, 0x08	; 8
    1d5a:	8c 91       	ld	r24, X
    1d5c:	18 97       	sbiw	r26, 0x08	; 8
    1d5e:	88 23       	and	r24, r24
    1d60:	81 f5       	brne	.+96     	; 0x1dc2 <RingGet+0x72>
		*value = ring->buf[ring->rp];
    1d62:	ed 91       	ld	r30, X+
    1d64:	fc 91       	ld	r31, X
    1d66:	11 97       	sbiw	r26, 0x01	; 1
    1d68:	12 96       	adiw	r26, 0x02	; 2
    1d6a:	8d 91       	ld	r24, X+
    1d6c:	9c 91       	ld	r25, X
    1d6e:	13 97       	sbiw	r26, 0x03	; 3
    1d70:	e8 0f       	add	r30, r24
    1d72:	f9 1f       	adc	r31, r25
    1d74:	80 81       	ld	r24, Z
    1d76:	88 83       	st	Y, r24
		ring->rp++;
    1d78:	12 96       	adiw	r26, 0x02	; 2
    1d7a:	8d 91       	ld	r24, X+
    1d7c:	9c 91       	ld	r25, X
    1d7e:	13 97       	sbiw	r26, 0x03	; 3
    1d80:	01 96       	adiw	r24, 0x01	; 1
    1d82:	13 96       	adiw	r26, 0x03	; 3
    1d84:	9c 93       	st	X, r25
    1d86:	8e 93       	st	-X, r24
    1d88:	12 97       	sbiw	r26, 0x02	; 2
		if( ring->rp == ring->size ) ring->rp = 0;
    1d8a:	16 96       	adiw	r26, 0x06	; 6
    1d8c:	2d 91       	ld	r18, X+
    1d8e:	3c 91       	ld	r19, X
    1d90:	17 97       	sbiw	r26, 0x07	; 7
    1d92:	82 17       	cp	r24, r18
    1d94:	93 07       	cpc	r25, r19
    1d96:	21 f4       	brne	.+8      	; 0x1da0 <RingGet+0x50>
    1d98:	13 96       	adiw	r26, 0x03	; 3
    1d9a:	1c 92       	st	X, r1
    1d9c:	1e 92       	st	-X, r1
    1d9e:	12 97       	sbiw	r26, 0x02	; 2
		if( ring->rp == ring->wp )	ring->empty = TRUE;
    1da0:	12 96       	adiw	r26, 0x02	; 2
    1da2:	2d 91       	ld	r18, X+
    1da4:	3c 91       	ld	r19, X
    1da6:	13 97       	sbiw	r26, 0x03	; 3
    1da8:	14 96       	adiw	r26, 0x04	; 4
    1daa:	8d 91       	ld	r24, X+
    1dac:	9c 91       	ld	r25, X
    1dae:	15 97       	sbiw	r26, 0x05	; 5
    1db0:	28 17       	cp	r18, r24
    1db2:	39 07       	cpc	r19, r25
    1db4:	19 f4       	brne	.+6      	; 0x1dbc <RingGet+0x6c>
    1db6:	81 e0       	ldi	r24, 0x01	; 1
    1db8:	18 96       	adiw	r26, 0x08	; 8
    1dba:	8c 93       	st	X, r24
    1dbc:	21 e0       	ldi	r18, 0x01	; 1
    1dbe:	30 e0       	ldi	r19, 0x00	; 0
    1dc0:	03 c0       	rjmp	.+6      	; 0x1dc8 <RingGet+0x78>

		return TRUE;
	}else{			// リングバッファが空のとき
		*value = 0;
    1dc2:	18 82       	st	Y, r1
    1dc4:	20 e0       	ldi	r18, 0x00	; 0
    1dc6:	30 e0       	ldi	r19, 0x00	; 0
		return FALSE;
	}
}
    1dc8:	c9 01       	movw	r24, r18
    1dca:	df 91       	pop	r29
    1dcc:	cf 91       	pop	r28
    1dce:	08 95       	ret

00001dd0 <isRingEmpty>:

__inline__ int isRingEmpty(RingBuffer *ring)
{
   return ring->empty;
}
    1dd0:	fc 01       	movw	r30, r24
    1dd2:	80 85       	ldd	r24, Z+8	; 0x08
    1dd4:	90 e0       	ldi	r25, 0x00	; 0
    1dd6:	08 95       	ret

00001dd8 <uart_init>:
/// </summary>
/// <param name="uart_no">UARTの選択 0 または 1</param>
/// <param name="option">uart.h にあるUART設定用マクロを使う</param>
/// <param name="speed">通信速度.ボーレート[bps]を入れる</param>
int uart_init(int uart_no, unsigned char option, unsigned long speed)
{
    1dd8:	ff 92       	push	r15
    1dda:	0f 93       	push	r16
    1ddc:	1f 93       	push	r17
    1dde:	df 93       	push	r29
    1de0:	cf 93       	push	r28
    1de2:	00 d0       	rcall	.+0      	; 0x1de4 <uart_init+0xc>
    1de4:	00 d0       	rcall	.+0      	; 0x1de6 <uart_init+0xe>
    1de6:	cd b7       	in	r28, 0x3d	; 61
    1de8:	de b7       	in	r29, 0x3e	; 62
    1dea:	8c 01       	movw	r16, r24
    1dec:	f6 2e       	mov	r15, r22
	uint32_t x, y;
	
	x = PERIPHERAL_CLOCK_FREQ * 1000000;
	y = 8 * speed;	// 倍速動作設定のため、ボーレートに 8 をかける

	b = x / y -1;
    1dee:	63 e0       	ldi	r22, 0x03	; 3
    1df0:	22 0f       	add	r18, r18
    1df2:	33 1f       	adc	r19, r19
    1df4:	44 1f       	adc	r20, r20
    1df6:	55 1f       	adc	r21, r21
    1df8:	6a 95       	dec	r22
    1dfa:	d1 f7       	brne	.-12     	; 0x1df0 <uart_init+0x18>
    1dfc:	60 e0       	ldi	r22, 0x00	; 0
    1dfe:	72 e1       	ldi	r23, 0x12	; 18
    1e00:	8a e7       	ldi	r24, 0x7A	; 122
    1e02:	90 e0       	ldi	r25, 0x00	; 0
    1e04:	0e 94 96 12 	call	0x252c	; 0x252c <__udivmodsi4>
    1e08:	21 50       	subi	r18, 0x01	; 1
    1e0a:	30 40       	sbci	r19, 0x00	; 0
    1e0c:	40 40       	sbci	r20, 0x00	; 0
    1e0e:	50 40       	sbci	r21, 0x00	; 0

		
	switch( uart_no ){
    1e10:	01 15       	cp	r16, r1
    1e12:	11 05       	cpc	r17, r1
    1e14:	31 f0       	breq	.+12     	; 0x1e22 <uart_init+0x4a>
    1e16:	01 30       	cpi	r16, 0x01	; 1
    1e18:	11 05       	cpc	r17, r1
    1e1a:	81 f1       	breq	.+96     	; 0x1e7c <uart_init+0xa4>
    1e1c:	2f ef       	ldi	r18, 0xFF	; 255
    1e1e:	3f ef       	ldi	r19, 0xFF	; 255
    1e20:	61 c0       	rjmp	.+194    	; 0x1ee4 <uart_init+0x10c>
		case 0:
			sbi(UCSR0A,U2X0);			// 倍速許可
    1e22:	59 9a       	sbi	0x0b, 1	; 11

			UCSR0B = 0x00;
    1e24:	1a b8       	out	0x0a, r1	; 10
			UCSR0C |= 0x06;
    1e26:	80 91 95 00 	lds	r24, 0x0095
    1e2a:	86 60       	ori	r24, 0x06	; 6
    1e2c:	80 93 95 00 	sts	0x0095, r24

			

			for(i=0; i<5000; i++);		// Wait
    1e30:	19 82       	std	Y+1, r1	; 0x01
    1e32:	1a 82       	std	Y+2, r1	; 0x02
    1e34:	1b 82       	std	Y+3, r1	; 0x03
    1e36:	1c 82       	std	Y+4, r1	; 0x04
    1e38:	0b c0       	rjmp	.+22     	; 0x1e50 <uart_init+0x78>
    1e3a:	89 81       	ldd	r24, Y+1	; 0x01
    1e3c:	9a 81       	ldd	r25, Y+2	; 0x02
    1e3e:	ab 81       	ldd	r26, Y+3	; 0x03
    1e40:	bc 81       	ldd	r27, Y+4	; 0x04
    1e42:	01 96       	adiw	r24, 0x01	; 1
    1e44:	a1 1d       	adc	r26, r1
    1e46:	b1 1d       	adc	r27, r1
    1e48:	89 83       	std	Y+1, r24	; 0x01
    1e4a:	9a 83       	std	Y+2, r25	; 0x02
    1e4c:	ab 83       	std	Y+3, r26	; 0x03
    1e4e:	bc 83       	std	Y+4, r27	; 0x04
    1e50:	89 81       	ldd	r24, Y+1	; 0x01
    1e52:	9a 81       	ldd	r25, Y+2	; 0x02
    1e54:	ab 81       	ldd	r26, Y+3	; 0x03
    1e56:	bc 81       	ldd	r27, Y+4	; 0x04
    1e58:	88 58       	subi	r24, 0x88	; 136
    1e5a:	93 41       	sbci	r25, 0x13	; 19
    1e5c:	a0 40       	sbci	r26, 0x00	; 0
    1e5e:	b0 40       	sbci	r27, 0x00	; 0
    1e60:	60 f3       	brcs	.-40     	; 0x1e3a <uart_init+0x62>
			
			UCSR0B = option;					
    1e62:	fa b8       	out	0x0a, r15	; 10

			UBRR0H = (unsigned char)(b>>8);
    1e64:	bb 27       	eor	r27, r27
    1e66:	a5 2f       	mov	r26, r21
    1e68:	94 2f       	mov	r25, r20
    1e6a:	83 2f       	mov	r24, r19
    1e6c:	80 93 90 00 	sts	0x0090, r24
	 		UBRR0L = (unsigned char)b;		
    1e70:	29 b9       	out	0x09, r18	; 9

			UCSR0A;						// DummyRead
    1e72:	8b b1       	in	r24, 0x0b	; 11
			UCSR0A &= 0xe3;				// Clear Error Flag
    1e74:	8b b1       	in	r24, 0x0b	; 11
    1e76:	83 7e       	andi	r24, 0xE3	; 227
    1e78:	8b b9       	out	0x0b, r24	; 11
    1e7a:	32 c0       	rjmp	.+100    	; 0x1ee0 <uart_init+0x108>
			break;
		case 1:
			sbi(UCSR1A,U2X1);			// 倍速許可
    1e7c:	80 91 9b 00 	lds	r24, 0x009B
    1e80:	82 60       	ori	r24, 0x02	; 2
    1e82:	80 93 9b 00 	sts	0x009B, r24

			UBRR1H = (unsigned char)(b>>8);
    1e86:	bb 27       	eor	r27, r27
    1e88:	a5 2f       	mov	r26, r21
    1e8a:	94 2f       	mov	r25, r20
    1e8c:	83 2f       	mov	r24, r19
    1e8e:	80 93 98 00 	sts	0x0098, r24
	 		UBRR1L = (unsigned char)b;	 
    1e92:	20 93 99 00 	sts	0x0099, r18

			for(i=0; i<5000; i++);		// Wait
    1e96:	19 82       	std	Y+1, r1	; 0x01
    1e98:	1a 82       	std	Y+2, r1	; 0x02
    1e9a:	1b 82       	std	Y+3, r1	; 0x03
    1e9c:	1c 82       	std	Y+4, r1	; 0x04
    1e9e:	0b c0       	rjmp	.+22     	; 0x1eb6 <uart_init+0xde>
    1ea0:	89 81       	ldd	r24, Y+1	; 0x01
    1ea2:	9a 81       	ldd	r25, Y+2	; 0x02
    1ea4:	ab 81       	ldd	r26, Y+3	; 0x03
    1ea6:	bc 81       	ldd	r27, Y+4	; 0x04
    1ea8:	01 96       	adiw	r24, 0x01	; 1
    1eaa:	a1 1d       	adc	r26, r1
    1eac:	b1 1d       	adc	r27, r1
    1eae:	89 83       	std	Y+1, r24	; 0x01
    1eb0:	9a 83       	std	Y+2, r25	; 0x02
    1eb2:	ab 83       	std	Y+3, r26	; 0x03
    1eb4:	bc 83       	std	Y+4, r27	; 0x04
    1eb6:	89 81       	ldd	r24, Y+1	; 0x01
    1eb8:	9a 81       	ldd	r25, Y+2	; 0x02
    1eba:	ab 81       	ldd	r26, Y+3	; 0x03
    1ebc:	bc 81       	ldd	r27, Y+4	; 0x04
    1ebe:	88 58       	subi	r24, 0x88	; 136
    1ec0:	93 41       	sbci	r25, 0x13	; 19
    1ec2:	a0 40       	sbci	r26, 0x00	; 0
    1ec4:	b0 40       	sbci	r27, 0x00	; 0
    1ec6:	60 f3       	brcs	.-40     	; 0x1ea0 <uart_init+0xc8>
			
			UCSR1B |= option;
    1ec8:	80 91 9a 00 	lds	r24, 0x009A
    1ecc:	8f 29       	or	r24, r15
    1ece:	80 93 9a 00 	sts	0x009A, r24
			UCSR1A;						// DummyRead
    1ed2:	80 91 9b 00 	lds	r24, 0x009B
			UCSR1A &= 0xe3;				// Clear Error Flag
    1ed6:	80 91 9b 00 	lds	r24, 0x009B
    1eda:	83 7e       	andi	r24, 0xE3	; 227
    1edc:	80 93 9b 00 	sts	0x009B, r24
    1ee0:	20 e0       	ldi	r18, 0x00	; 0
    1ee2:	30 e0       	ldi	r19, 0x00	; 0
		default:
			return -1;
	}

	return 0;
}
    1ee4:	c9 01       	movw	r24, r18
    1ee6:	0f 90       	pop	r0
    1ee8:	0f 90       	pop	r0
    1eea:	0f 90       	pop	r0
    1eec:	0f 90       	pop	r0
    1eee:	cf 91       	pop	r28
    1ef0:	df 91       	pop	r29
    1ef2:	1f 91       	pop	r17
    1ef4:	0f 91       	pop	r16
    1ef6:	ff 90       	pop	r15
    1ef8:	08 95       	ret

00001efa <uart_setbuffer>:

void uart_setbuffer(int uart_no, unsigned char *buf, int size)
{
	if( uart_no<0 || uart_no>=UART_NUM )	return;
    1efa:	82 30       	cpi	r24, 0x02	; 2
    1efc:	91 05       	cpc	r25, r1
    1efe:	a0 f4       	brcc	.+40     	; 0x1f28 <uart_setbuffer+0x2e>
	
	RingInit(&(__uartbuf[uart_no]), buf, size);
    1f00:	fc 01       	movw	r30, r24
    1f02:	a3 e0       	ldi	r26, 0x03	; 3
    1f04:	ee 0f       	add	r30, r30
    1f06:	ff 1f       	adc	r31, r31
    1f08:	aa 95       	dec	r26
    1f0a:	e1 f7       	brne	.-8      	; 0x1f04 <uart_setbuffer+0xa>
    1f0c:	e8 0f       	add	r30, r24
    1f0e:	f9 1f       	adc	r31, r25
    1f10:	e6 5c       	subi	r30, 0xC6	; 198
    1f12:	fd 4f       	sbci	r31, 0xFD	; 253
#define TRUE	1
#define FALSE	0

__inline__ void RingInit(RingBuffer *ring, unsigned char *buf, unsigned int size)
{
	ring->buf = buf;
    1f14:	71 83       	std	Z+1, r23	; 0x01
    1f16:	60 83       	st	Z, r22
	ring->size = size;
    1f18:	57 83       	std	Z+7, r21	; 0x07
    1f1a:	46 83       	std	Z+6, r20	; 0x06
	ring->rp = 0;
    1f1c:	13 82       	std	Z+3, r1	; 0x03
    1f1e:	12 82       	std	Z+2, r1	; 0x02
	ring->wp = 0;
    1f20:	15 82       	std	Z+5, r1	; 0x05
    1f22:	14 82       	std	Z+4, r1	; 0x04
	ring->empty = TRUE;
    1f24:	81 e0       	ldi	r24, 0x01	; 1
    1f26:	80 87       	std	Z+8, r24	; 0x08
    1f28:	08 95       	ret

00001f2a <uart0_getchar>:
}

unsigned char uart0_getchar(void)
{
	while( !bit_is_set(UCSR0A,RXC0) );
    1f2a:	5f 9b       	sbis	0x0b, 7	; 11
    1f2c:	fe cf       	rjmp	.-4      	; 0x1f2a <uart0_getchar>
	cbi(UCSR0A,RXC0);
    1f2e:	5f 98       	cbi	0x0b, 7	; 11
	return UDR0;
    1f30:	8c b1       	in	r24, 0x0c	; 12
}
    1f32:	08 95       	ret

00001f34 <uart0_putchar>:
	}
#elif (UART0_LINE_FEED == CR_CODE)				// CR
	if( c == '\n' )		c = '\r';
#elif (UART0_LINE_FEED == LF_CODE)
#endif*/
	while( !bit_is_set(UCSR0A,UDRE0) );
    1f34:	5d 9b       	sbis	0x0b, 5	; 11
    1f36:	fe cf       	rjmp	.-4      	; 0x1f34 <uart0_putchar>
	UDR0 = c;
    1f38:	8c b9       	out	0x0c, r24	; 12
	cbi(UCSR0A,UDRE0);
    1f3a:	5d 98       	cbi	0x0b, 5	; 11
	
	return 0;
}
    1f3c:	80 e0       	ldi	r24, 0x00	; 0
    1f3e:	90 e0       	ldi	r25, 0x00	; 0
    1f40:	08 95       	ret

00001f42 <uart1_putchar>:

int uart1_putchar(char c)
{
    1f42:	98 2f       	mov	r25, r24
#if (UART1_LINE_FEED == CR_CODE | LF_CODE)		// CRLF
	if( c == '\n' ){
    1f44:	8a 30       	cpi	r24, 0x0A	; 10
    1f46:	61 f4       	brne	.+24     	; 0x1f60 <uart1_putchar+0x1e>
		while( !bit_is_set(UCSR1A,UDRE1) );
    1f48:	80 91 9b 00 	lds	r24, 0x009B
    1f4c:	85 ff       	sbrs	r24, 5
    1f4e:	fc cf       	rjmp	.-8      	; 0x1f48 <uart1_putchar+0x6>
		UDR1 = '\r';
    1f50:	8d e0       	ldi	r24, 0x0D	; 13
    1f52:	80 93 9c 00 	sts	0x009C, r24
		cbi(UCSR1A,UDRE1);
    1f56:	80 91 9b 00 	lds	r24, 0x009B
    1f5a:	8f 7d       	andi	r24, 0xDF	; 223
    1f5c:	80 93 9b 00 	sts	0x009B, r24
	}
#elif (UART1_LINE_FEED == CR_CODE)				// CR
	if( c == '\n' )		c = '\r';
#elif (UART1_LINE_FEED == LF_CODE)
#endif
	while( !bit_is_set(UCSR1A,UDRE1) );
    1f60:	80 91 9b 00 	lds	r24, 0x009B
    1f64:	85 ff       	sbrs	r24, 5
    1f66:	fc cf       	rjmp	.-8      	; 0x1f60 <uart1_putchar+0x1e>
	UDR1 = c;
    1f68:	90 93 9c 00 	sts	0x009C, r25
	cbi(UCSR1A,UDRE1);
    1f6c:	80 91 9b 00 	lds	r24, 0x009B
    1f70:	8f 7d       	andi	r24, 0xDF	; 223
    1f72:	80 93 9b 00 	sts	0x009B, r24

	return 0;
}
    1f76:	80 e0       	ldi	r24, 0x00	; 0
    1f78:	90 e0       	ldi	r25, 0x00	; 0
    1f7a:	08 95       	ret

00001f7c <uart0_buf_putchar>:

int uart0_buf_putchar(char c)
{
    1f7c:	0f 93       	push	r16
    1f7e:	1f 93       	push	r17
    1f80:	18 2f       	mov	r17, r24
	int ret;
	
	ret = 0;
	_uart_interrupt_status = SREG;
    1f82:	0f b7       	in	r16, 0x3f	; 63
    1f84:	00 93 4c 02 	sts	0x024C, r16
	cli();
    1f88:	f8 94       	cli
	
#if (UART0_LINE_FEED == CR_CODE | LF_CODE)		// CRLF
	if( c == '\n' ){
    1f8a:	8a 30       	cpi	r24, 0x0A	; 10
    1f8c:	51 f4       	brne	.+20     	; 0x1fa2 <uart0_buf_putchar+0x26>
		if( !RingPut(&__uartbuf[0], '\r') ){
    1f8e:	8a e3       	ldi	r24, 0x3A	; 58
    1f90:	92 e0       	ldi	r25, 0x02	; 2
    1f92:	6d e0       	ldi	r22, 0x0D	; 13
    1f94:	0e 94 70 0e 	call	0x1ce0	; 0x1ce0 <RingPut>
    1f98:	89 2b       	or	r24, r25
    1f9a:	19 f4       	brne	.+6      	; 0x1fa2 <uart0_buf_putchar+0x26>
    1f9c:	2f ef       	ldi	r18, 0xFF	; 255
    1f9e:	3f ef       	ldi	r19, 0xFF	; 255
    1fa0:	0d c0       	rjmp	.+26     	; 0x1fbc <uart0_buf_putchar+0x40>
#elif (UART0_LINE_FEED == CR_CODE)				// CR
	if( c == '\n' )		c = '\r';
#elif (UART0_LINE_FEED == LF_CODE)
#endif

	if( !RingPut(&__uartbuf[0], c) ){
    1fa2:	8a e3       	ldi	r24, 0x3A	; 58
    1fa4:	92 e0       	ldi	r25, 0x02	; 2
    1fa6:	61 2f       	mov	r22, r17
    1fa8:	0e 94 70 0e 	call	0x1ce0	; 0x1ce0 <RingPut>
    1fac:	89 2b       	or	r24, r25
    1fae:	19 f4       	brne	.+6      	; 0x1fb6 <uart0_buf_putchar+0x3a>
    1fb0:	2f ef       	ldi	r18, 0xFF	; 255
    1fb2:	3f ef       	ldi	r19, 0xFF	; 255
    1fb4:	02 c0       	rjmp	.+4      	; 0x1fba <uart0_buf_putchar+0x3e>
    1fb6:	20 e0       	ldi	r18, 0x00	; 0
    1fb8:	30 e0       	ldi	r19, 0x00	; 0
		ret = -1;	// Buffer Full
	}
	start_uart0tx_interrupt();
    1fba:	55 9a       	sbi	0x0a, 5	; 10
	
#if (UART0_LINE_FEED == CR_CODE | LF_CODE)		// CRLF
_exit_uart0_buf_putchar:
#endif
	SREG = _uart_interrupt_status;
    1fbc:	0f bf       	out	0x3f, r16	; 63

	return ret;
}
    1fbe:	c9 01       	movw	r24, r18
    1fc0:	1f 91       	pop	r17
    1fc2:	0f 91       	pop	r16
    1fc4:	08 95       	ret

00001fc6 <uart1_buf_putchar>:

int uart1_buf_putchar(char c)
{
    1fc6:	0f 93       	push	r16
    1fc8:	1f 93       	push	r17
    1fca:	18 2f       	mov	r17, r24
	int ret;
	
	ret = 0;
	_uart_interrupt_status = SREG;
    1fcc:	0f b7       	in	r16, 0x3f	; 63
    1fce:	00 93 4c 02 	sts	0x024C, r16
	cli();
    1fd2:	f8 94       	cli
	
#if (UART1_LINE_FEED == CR_CODE | LF_CODE)		// CRLF
	if( c == '\n' ){
    1fd4:	8a 30       	cpi	r24, 0x0A	; 10
    1fd6:	51 f4       	brne	.+20     	; 0x1fec <uart1_buf_putchar+0x26>
		if( !RingPut(&__uartbuf[1], '\r') ){
    1fd8:	83 e4       	ldi	r24, 0x43	; 67
    1fda:	92 e0       	ldi	r25, 0x02	; 2
    1fdc:	6d e0       	ldi	r22, 0x0D	; 13
    1fde:	0e 94 70 0e 	call	0x1ce0	; 0x1ce0 <RingPut>
    1fe2:	89 2b       	or	r24, r25
    1fe4:	19 f4       	brne	.+6      	; 0x1fec <uart1_buf_putchar+0x26>
    1fe6:	2f ef       	ldi	r18, 0xFF	; 255
    1fe8:	3f ef       	ldi	r19, 0xFF	; 255
    1fea:	11 c0       	rjmp	.+34     	; 0x200e <uart1_buf_putchar+0x48>
	}
#elif (UART1_LINE_FEED == CR_CODE)				// CR
	if( c == '\n' )		c = '\r';
#elif (UART1_LINE_FEED == LF_CODE)
#endif
	if( !RingPut(&__uartbuf[1], c) ){
    1fec:	83 e4       	ldi	r24, 0x43	; 67
    1fee:	92 e0       	ldi	r25, 0x02	; 2
    1ff0:	61 2f       	mov	r22, r17
    1ff2:	0e 94 70 0e 	call	0x1ce0	; 0x1ce0 <RingPut>
    1ff6:	89 2b       	or	r24, r25
    1ff8:	19 f4       	brne	.+6      	; 0x2000 <uart1_buf_putchar+0x3a>
    1ffa:	2f ef       	ldi	r18, 0xFF	; 255
    1ffc:	3f ef       	ldi	r19, 0xFF	; 255
    1ffe:	02 c0       	rjmp	.+4      	; 0x2004 <uart1_buf_putchar+0x3e>
    2000:	20 e0       	ldi	r18, 0x00	; 0
    2002:	30 e0       	ldi	r19, 0x00	; 0
		ret = -1;	// Buffer Full
	}
	start_uart1tx_interrupt();
    2004:	80 91 9a 00 	lds	r24, 0x009A
    2008:	80 62       	ori	r24, 0x20	; 32
    200a:	80 93 9a 00 	sts	0x009A, r24

	
#if (UART1_LINE_FEED == CR_CODE | LF_CODE)		// CRLF
_exit_uart1_buf_putchar:
#endif
	SREG = _uart_interrupt_status;
    200e:	0f bf       	out	0x3f, r16	; 63

	return ret;
}
    2010:	c9 01       	movw	r24, r18
    2012:	1f 91       	pop	r17
    2014:	0f 91       	pop	r16
    2016:	08 95       	ret

00002018 <__vector_19>:


ISR(USART0_UDRE_vect)
{
    2018:	1f 92       	push	r1
    201a:	0f 92       	push	r0
    201c:	0f b6       	in	r0, 0x3f	; 63
    201e:	0f 92       	push	r0
    2020:	0b b6       	in	r0, 0x3b	; 59
    2022:	0f 92       	push	r0
    2024:	11 24       	eor	r1, r1
    2026:	2f 93       	push	r18
    2028:	3f 93       	push	r19
    202a:	4f 93       	push	r20
    202c:	5f 93       	push	r21
    202e:	6f 93       	push	r22
    2030:	7f 93       	push	r23
    2032:	8f 93       	push	r24
    2034:	9f 93       	push	r25
    2036:	af 93       	push	r26
    2038:	bf 93       	push	r27
    203a:	ef 93       	push	r30
    203c:	ff 93       	push	r31
    203e:	df 93       	push	r29
    2040:	cf 93       	push	r28
    2042:	0f 92       	push	r0
    2044:	cd b7       	in	r28, 0x3d	; 61
    2046:	de b7       	in	r29, 0x3e	; 62
	unsigned char c;

	if( RingGet(&__uartbuf[0], &c) ){
    2048:	8a e3       	ldi	r24, 0x3A	; 58
    204a:	92 e0       	ldi	r25, 0x02	; 2
    204c:	be 01       	movw	r22, r28
    204e:	6f 5f       	subi	r22, 0xFF	; 255
    2050:	7f 4f       	sbci	r23, 0xFF	; 255
    2052:	0e 94 a8 0e 	call	0x1d50	; 0x1d50 <RingGet>
    2056:	89 2b       	or	r24, r25
    2058:	19 f0       	breq	.+6      	; 0x2060 <__vector_19+0x48>
		UDR0 = c;
    205a:	89 81       	ldd	r24, Y+1	; 0x01
    205c:	8c b9       	out	0x0c, r24	; 12
    205e:	01 c0       	rjmp	.+2      	; 0x2062 <__vector_19+0x4a>
		cbi(UCSR0A,UDRE0);			// UDREクリア
	}else{
		stop_uart0tx_interrupt();
    2060:	55 98       	cbi	0x0a, 5	; 10
		cbi(UCSR0A,UDRE0);
    2062:	5d 98       	cbi	0x0b, 5	; 11
	}
}
    2064:	0f 90       	pop	r0
    2066:	cf 91       	pop	r28
    2068:	df 91       	pop	r29
    206a:	ff 91       	pop	r31
    206c:	ef 91       	pop	r30
    206e:	bf 91       	pop	r27
    2070:	af 91       	pop	r26
    2072:	9f 91       	pop	r25
    2074:	8f 91       	pop	r24
    2076:	7f 91       	pop	r23
    2078:	6f 91       	pop	r22
    207a:	5f 91       	pop	r21
    207c:	4f 91       	pop	r20
    207e:	3f 91       	pop	r19
    2080:	2f 91       	pop	r18
    2082:	0f 90       	pop	r0
    2084:	0b be       	out	0x3b, r0	; 59
    2086:	0f 90       	pop	r0
    2088:	0f be       	out	0x3f, r0	; 63
    208a:	0f 90       	pop	r0
    208c:	1f 90       	pop	r1
    208e:	18 95       	reti

00002090 <__vector_31>:

ISR(USART1_UDRE_vect)
{
    2090:	1f 92       	push	r1
    2092:	0f 92       	push	r0
    2094:	0f b6       	in	r0, 0x3f	; 63
    2096:	0f 92       	push	r0
    2098:	0b b6       	in	r0, 0x3b	; 59
    209a:	0f 92       	push	r0
    209c:	11 24       	eor	r1, r1
    209e:	2f 93       	push	r18
    20a0:	3f 93       	push	r19
    20a2:	4f 93       	push	r20
    20a4:	5f 93       	push	r21
    20a6:	6f 93       	push	r22
    20a8:	7f 93       	push	r23
    20aa:	8f 93       	push	r24
    20ac:	9f 93       	push	r25
    20ae:	af 93       	push	r26
    20b0:	bf 93       	push	r27
    20b2:	ef 93       	push	r30
    20b4:	ff 93       	push	r31
    20b6:	df 93       	push	r29
    20b8:	cf 93       	push	r28
    20ba:	0f 92       	push	r0
    20bc:	cd b7       	in	r28, 0x3d	; 61
    20be:	de b7       	in	r29, 0x3e	; 62
	unsigned char c;
	
	if( RingGet(&__uartbuf[1], &c) ){
    20c0:	83 e4       	ldi	r24, 0x43	; 67
    20c2:	92 e0       	ldi	r25, 0x02	; 2
    20c4:	be 01       	movw	r22, r28
    20c6:	6f 5f       	subi	r22, 0xFF	; 255
    20c8:	7f 4f       	sbci	r23, 0xFF	; 255
    20ca:	0e 94 a8 0e 	call	0x1d50	; 0x1d50 <RingGet>
    20ce:	89 2b       	or	r24, r25
    20d0:	21 f0       	breq	.+8      	; 0x20da <__vector_31+0x4a>
		UDR1 = c;
    20d2:	89 81       	ldd	r24, Y+1	; 0x01
    20d4:	80 93 9c 00 	sts	0x009C, r24
    20d8:	05 c0       	rjmp	.+10     	; 0x20e4 <__vector_31+0x54>
		cbi(UCSR1A,UDRE1);			// UDREクリア
	}else{
		stop_uart1tx_interrupt();
    20da:	80 91 9a 00 	lds	r24, 0x009A
    20de:	8f 7d       	andi	r24, 0xDF	; 223
    20e0:	80 93 9a 00 	sts	0x009A, r24
		cbi(UCSR1A,UDRE1);
    20e4:	80 91 9b 00 	lds	r24, 0x009B
    20e8:	8f 7d       	andi	r24, 0xDF	; 223
    20ea:	80 93 9b 00 	sts	0x009B, r24
	}
}
    20ee:	0f 90       	pop	r0
    20f0:	cf 91       	pop	r28
    20f2:	df 91       	pop	r29
    20f4:	ff 91       	pop	r31
    20f6:	ef 91       	pop	r30
    20f8:	bf 91       	pop	r27
    20fa:	af 91       	pop	r26
    20fc:	9f 91       	pop	r25
    20fe:	8f 91       	pop	r24
    2100:	7f 91       	pop	r23
    2102:	6f 91       	pop	r22
    2104:	5f 91       	pop	r21
    2106:	4f 91       	pop	r20
    2108:	3f 91       	pop	r19
    210a:	2f 91       	pop	r18
    210c:	0f 90       	pop	r0
    210e:	0b be       	out	0x3b, r0	; 59
    2110:	0f 90       	pop	r0
    2112:	0f be       	out	0x3f, r0	; 63
    2114:	0f 90       	pop	r0
    2116:	1f 90       	pop	r1
    2118:	18 95       	reti

0000211a <MU2_SetTxHandler>:
static unsigned char phase = 0;
static          char rx_buf[MU2_RX_BUF_SIZE];
static unsigned char rx_count;
static unsigned char i;

__inline__ void MU2_SetTxHandler(int (*fp)(unsigned char)){__mu2_tx_char=fp;}
    211a:	90 93 21 03 	sts	0x0321, r25
    211e:	80 93 20 03 	sts	0x0320, r24
    2122:	08 95       	ret

00002124 <MU2_SetRxHandler>:
__inline__ void MU2_SetRxHandler(int (*fp)(unsigned char *)){__mu2_rx_char=fp;}
    2124:	90 93 26 03 	sts	0x0326, r25
    2128:	80 93 25 03 	sts	0x0325, r24
    212c:	08 95       	ret

0000212e <MU2_TxChar>:
__inline__ int MU2_TxChar(unsigned char c){ return (*__mu2_tx_char)(c);	}
    212e:	e0 91 20 03 	lds	r30, 0x0320
    2132:	f0 91 21 03 	lds	r31, 0x0321
    2136:	09 95       	icall
    2138:	08 95       	ret

0000213a <MU2_RxChar>:
__inline__ int MU2_RxChar(unsigned char *c){ return (*__mu2_rx_char)(c); }
    213a:	e0 91 25 03 	lds	r30, 0x0325
    213e:	f0 91 26 03 	lds	r31, 0x0326
    2142:	09 95       	icall
    2144:	08 95       	ret

00002146 <Byte2Str>:


static __inline__ void Byte2Str(unsigned char num, char *str)
{
    2146:	38 2f       	mov	r19, r24
    2148:	fb 01       	movw	r30, r22
	int tmp;

	tmp = (num >> 4) & 0x0F;
    214a:	28 2f       	mov	r18, r24
    214c:	22 95       	swap	r18
    214e:	2f 70       	andi	r18, 0x0F	; 15
	str[0] = tmp + ((tmp > 9) ? ('A'-10) : '0');
    2150:	82 2f       	mov	r24, r18
    2152:	90 e0       	ldi	r25, 0x00	; 0
    2154:	0a 97       	sbiw	r24, 0x0a	; 10
    2156:	14 f4       	brge	.+4      	; 0x215c <Byte2Str+0x16>
    2158:	80 e3       	ldi	r24, 0x30	; 48
    215a:	01 c0       	rjmp	.+2      	; 0x215e <Byte2Str+0x18>
    215c:	87 e3       	ldi	r24, 0x37	; 55
    215e:	82 0f       	add	r24, r18
    2160:	80 83       	st	Z, r24
	tmp = num & 0x0F;
    2162:	83 2f       	mov	r24, r19
    2164:	90 e0       	ldi	r25, 0x00	; 0
    2166:	8f 70       	andi	r24, 0x0F	; 15
    2168:	90 70       	andi	r25, 0x00	; 0
	str[1] = tmp + ((tmp > 9) ? ('A'-10) : '0');
    216a:	8a 30       	cpi	r24, 0x0A	; 10
    216c:	91 05       	cpc	r25, r1
    216e:	14 f0       	brlt	.+4      	; 0x2174 <Byte2Str+0x2e>
    2170:	27 e3       	ldi	r18, 0x37	; 55
    2172:	01 c0       	rjmp	.+2      	; 0x2176 <Byte2Str+0x30>
    2174:	20 e3       	ldi	r18, 0x30	; 48
    2176:	28 0f       	add	r18, r24
    2178:	21 83       	std	Z+1, r18	; 0x01
	str[2] = '\0';
    217a:	12 82       	std	Z+2, r1	; 0x02
}
    217c:	08 95       	ret

0000217e <MU2_CheckCommand>:
	return tmp;
}


int MU2_CheckCommand(char *prefix1, char *prefix2)
{
    217e:	fc 01       	movw	r30, r24
    2180:	db 01       	movw	r26, r22
	if( (prefix1[0] == prefix2[0]) && (prefix1[1] == prefix2[1]) ){
    2182:	90 81       	ld	r25, Z
    2184:	8c 91       	ld	r24, X
    2186:	98 17       	cp	r25, r24
    2188:	41 f4       	brne	.+16     	; 0x219a <MU2_CheckCommand+0x1c>
    218a:	91 81       	ldd	r25, Z+1	; 0x01
    218c:	11 96       	adiw	r26, 0x01	; 1
    218e:	8c 91       	ld	r24, X
    2190:	98 17       	cp	r25, r24
    2192:	19 f4       	brne	.+6      	; 0x219a <MU2_CheckCommand+0x1c>
    2194:	20 e0       	ldi	r18, 0x00	; 0
    2196:	30 e0       	ldi	r19, 0x00	; 0
    2198:	02 c0       	rjmp	.+4      	; 0x219e <MU2_CheckCommand+0x20>
    219a:	2f ef       	ldi	r18, 0xFF	; 255
    219c:	3f ef       	ldi	r19, 0xFF	; 255
		return 0;
	}else{
		return -1;
	}
}
    219e:	c9 01       	movw	r24, r18
    21a0:	08 95       	ret

000021a2 <MU2_Command>:


int MU2_Command( char *cmd, char *value, unsigned char value_len )
{
    21a2:	ff 92       	push	r15
    21a4:	0f 93       	push	r16
    21a6:	1f 93       	push	r17
    21a8:	cf 93       	push	r28
    21aa:	df 93       	push	r29
    21ac:	8c 01       	movw	r16, r24
    21ae:	eb 01       	movw	r28, r22
    21b0:	f4 2e       	mov	r15, r20
static unsigned char rx_count;
static unsigned char i;

__inline__ void MU2_SetTxHandler(int (*fp)(unsigned char)){__mu2_tx_char=fp;}
__inline__ void MU2_SetRxHandler(int (*fp)(unsigned char *)){__mu2_rx_char=fp;}
__inline__ int MU2_TxChar(unsigned char c){ return (*__mu2_tx_char)(c);	}
    21b2:	e0 91 20 03 	lds	r30, 0x0320
    21b6:	f0 91 21 03 	lds	r31, 0x0321
    21ba:	80 e4       	ldi	r24, 0x40	; 64
    21bc:	09 95       	icall
	// Command Name
	MU2_TxChar( cmd[0] );
	MU2_TxChar( cmd[1] );

	// Value 1
	while( value_len-- )	MU2_TxChar( *value++ );
    21be:	e0 91 20 03 	lds	r30, 0x0320
    21c2:	f0 91 21 03 	lds	r31, 0x0321
    21c6:	d8 01       	movw	r26, r16
    21c8:	8c 91       	ld	r24, X
    21ca:	09 95       	icall
    21cc:	e0 91 20 03 	lds	r30, 0x0320
    21d0:	f0 91 21 03 	lds	r31, 0x0321
    21d4:	d8 01       	movw	r26, r16
    21d6:	11 96       	adiw	r26, 0x01	; 1
    21d8:	8c 91       	ld	r24, X
    21da:	09 95       	icall
    21dc:	03 c0       	rjmp	.+6      	; 0x21e4 <MU2_Command+0x42>
    21de:	89 91       	ld	r24, Y+
    21e0:	09 95       	icall
    21e2:	fa 94       	dec	r15
    21e4:	e0 91 20 03 	lds	r30, 0x0320
    21e8:	f0 91 21 03 	lds	r31, 0x0321
    21ec:	ff 20       	and	r15, r15
    21ee:	b9 f7       	brne	.-18     	; 0x21de <MU2_Command+0x3c>
static unsigned char rx_count;
static unsigned char i;

__inline__ void MU2_SetTxHandler(int (*fp)(unsigned char)){__mu2_tx_char=fp;}
__inline__ void MU2_SetRxHandler(int (*fp)(unsigned char *)){__mu2_rx_char=fp;}
__inline__ int MU2_TxChar(unsigned char c){ return (*__mu2_tx_char)(c);	}
    21f0:	8d e0       	ldi	r24, 0x0D	; 13
    21f2:	09 95       	icall

	// Terminator
	MU2_TxChar('\r');	MU2_TxChar('\n');

	return 0;
}
    21f4:	e0 91 20 03 	lds	r30, 0x0320
    21f8:	f0 91 21 03 	lds	r31, 0x0321
    21fc:	8a e0       	ldi	r24, 0x0A	; 10
    21fe:	09 95       	icall
    2200:	80 e0       	ldi	r24, 0x00	; 0
    2202:	90 e0       	ldi	r25, 0x00	; 0
    2204:	df 91       	pop	r29
    2206:	cf 91       	pop	r28
    2208:	1f 91       	pop	r17
    220a:	0f 91       	pop	r16
    220c:	ff 90       	pop	r15
    220e:	08 95       	ret

00002210 <MU2_Response>:


int MU2_Response(char rx_data,char *prefix, char *value)
{
    2210:	98 2f       	mov	r25, r24
    2212:	da 01       	movw	r26, r20
    switch(phase){
    2214:	80 91 4d 02 	lds	r24, 0x024D
    2218:	88 23       	and	r24, r24
    221a:	19 f0       	breq	.+6      	; 0x2222 <MU2_Response+0x12>
    221c:	81 30       	cpi	r24, 0x01	; 1
    221e:	69 f5       	brne	.+90     	; 0x227a <MU2_Response+0x6a>
    2220:	08 c0       	rjmp	.+16     	; 0x2232 <MU2_Response+0x22>
        case 0:
            if(rx_data=='*')
    2222:	9a 32       	cpi	r25, 0x2A	; 42
    2224:	51 f5       	brne	.+84     	; 0x227a <MU2_Response+0x6a>
                {
                    rx_count = 0;
    2226:	10 92 8e 02 	sts	0x028E, r1
                    phase = 1;
    222a:	81 e0       	ldi	r24, 0x01	; 1
    222c:	80 93 4d 02 	sts	0x024D, r24
    2230:	24 c0       	rjmp	.+72     	; 0x227a <MU2_Response+0x6a>
                }
            break;
        case 1:
            if( rx_data == '\n' ){
    2232:	9a 30       	cpi	r25, 0x0A	; 10
    2234:	11 f5       	brne	.+68     	; 0x227a <MU2_Response+0x6a>
                if( rx_buf[rx_count-1] == '\r')
    2236:	80 91 8e 02 	lds	r24, 0x028E
    223a:	28 2f       	mov	r18, r24
    223c:	30 e0       	ldi	r19, 0x00	; 0
    223e:	21 50       	subi	r18, 0x01	; 1
    2240:	30 40       	sbci	r19, 0x00	; 0
    2242:	f9 01       	movw	r30, r18
    2244:	e2 5b       	subi	r30, 0xB2	; 178
    2246:	fd 4f       	sbci	r31, 0xFD	; 253
    2248:	80 81       	ld	r24, Z
    224a:	8d 30       	cpi	r24, 0x0D	; 13
    224c:	b1 f4       	brne	.+44     	; 0x227a <MU2_Response+0x6a>
    224e:	83 e0       	ldi	r24, 0x03	; 3
    2250:	05 c0       	rjmp	.+10     	; 0x225c <MU2_Response+0x4c>
                    {
                        for(i=3;i<rx_count-1;i++,value++)
                            {
                                *value = rx_buf[i];
    2252:	e2 5b       	subi	r30, 0xB2	; 178
    2254:	fd 4f       	sbci	r31, 0xFD	; 253
    2256:	80 81       	ld	r24, Z
    2258:	8d 93       	st	X+, r24
            break;
        case 1:
            if( rx_data == '\n' ){
                if( rx_buf[rx_count-1] == '\r')
                    {
                        for(i=3;i<rx_count-1;i++,value++)
    225a:	89 2f       	mov	r24, r25
    225c:	e8 2f       	mov	r30, r24
    225e:	f0 e0       	ldi	r31, 0x00	; 0
    2260:	98 2f       	mov	r25, r24
    2262:	9f 5f       	subi	r25, 0xFF	; 255
    2264:	e2 17       	cp	r30, r18
    2266:	f3 07       	cpc	r31, r19
    2268:	a4 f3       	brlt	.-24     	; 0x2252 <MU2_Response+0x42>
    226a:	80 93 8f 02 	sts	0x028F, r24
                            {
                                *value = rx_buf[i];
                            }
                        *value = '\0';
    226e:	1c 92       	st	X, r1
                        phase = 0;
    2270:	10 92 4d 02 	sts	0x024D, r1
    2274:	21 e0       	ldi	r18, 0x01	; 1
    2276:	30 e0       	ldi	r19, 0x00	; 0
    2278:	0c c0       	rjmp	.+24     	; 0x2292 <MU2_Response+0x82>
                    }
            }
            break;
    }

    rx_buf[rx_count++] = rx_data;
    227a:	80 91 8e 02 	lds	r24, 0x028E
    227e:	e8 2f       	mov	r30, r24
    2280:	f0 e0       	ldi	r31, 0x00	; 0
    2282:	e2 5b       	subi	r30, 0xB2	; 178
    2284:	fd 4f       	sbci	r31, 0xFD	; 253
    2286:	90 83       	st	Z, r25
    2288:	8f 5f       	subi	r24, 0xFF	; 255
    228a:	80 93 8e 02 	sts	0x028E, r24
    228e:	20 e0       	ldi	r18, 0x00	; 0
    2290:	30 e0       	ldi	r19, 0x00	; 0

    return 0;
}
    2292:	c9 01       	movw	r24, r18
    2294:	08 95       	ret

00002296 <MU2_SendData>:

int MU2_SendData(unsigned char *data, unsigned char len)
{
    2296:	ef 92       	push	r14
    2298:	ff 92       	push	r15
    229a:	1f 93       	push	r17
    229c:	df 93       	push	r29
    229e:	cf 93       	push	r28
    22a0:	00 d0       	rcall	.+0      	; 0x22a2 <MU2_SendData+0xc>
    22a2:	0f 92       	push	r0
    22a4:	cd b7       	in	r28, 0x3d	; 61
    22a6:	de b7       	in	r29, 0x3e	; 62
    22a8:	7c 01       	movw	r14, r24
    22aa:	16 2f       	mov	r17, r22
static unsigned char rx_count;
static unsigned char i;

__inline__ void MU2_SetTxHandler(int (*fp)(unsigned char)){__mu2_tx_char=fp;}
__inline__ void MU2_SetRxHandler(int (*fp)(unsigned char *)){__mu2_rx_char=fp;}
__inline__ int MU2_TxChar(unsigned char c){ return (*__mu2_tx_char)(c);	}
    22ac:	e0 91 20 03 	lds	r30, 0x0320
    22b0:	f0 91 21 03 	lds	r31, 0x0321
    22b4:	80 e4       	ldi	r24, 0x40	; 64
    22b6:	09 95       	icall
	MU2_TxChar('@');
	// Command Name
	MU2_TxChar('D');	MU2_TxChar('T');

	// Data Size
	Byte2Str(len, size);
    22b8:	e0 91 20 03 	lds	r30, 0x0320
    22bc:	f0 91 21 03 	lds	r31, 0x0321
    22c0:	84 e4       	ldi	r24, 0x44	; 68
    22c2:	09 95       	icall
    22c4:	e0 91 20 03 	lds	r30, 0x0320
    22c8:	f0 91 21 03 	lds	r31, 0x0321
    22cc:	84 e5       	ldi	r24, 0x54	; 84
    22ce:	09 95       	icall
    22d0:	81 2f       	mov	r24, r17
    22d2:	be 01       	movw	r22, r28
    22d4:	6f 5f       	subi	r22, 0xFF	; 255
    22d6:	7f 4f       	sbci	r23, 0xFF	; 255
    22d8:	0e 94 a3 10 	call	0x2146	; 0x2146 <Byte2Str>
static unsigned char rx_count;
static unsigned char i;

__inline__ void MU2_SetTxHandler(int (*fp)(unsigned char)){__mu2_tx_char=fp;}
__inline__ void MU2_SetRxHandler(int (*fp)(unsigned char *)){__mu2_rx_char=fp;}
__inline__ int MU2_TxChar(unsigned char c){ return (*__mu2_tx_char)(c);	}
    22dc:	e0 91 20 03 	lds	r30, 0x0320
    22e0:	f0 91 21 03 	lds	r31, 0x0321
    22e4:	89 81       	ldd	r24, Y+1	; 0x01
    22e6:	09 95       	icall
	Byte2Str(len, size);
	MU2_TxChar(size[0]);
	MU2_TxChar(size[1]);

	// Data
	while( len-- ){
    22e8:	e0 91 20 03 	lds	r30, 0x0320
    22ec:	f0 91 21 03 	lds	r31, 0x0321
    22f0:	8a 81       	ldd	r24, Y+2	; 0x02
    22f2:	09 95       	icall
    22f4:	05 c0       	rjmp	.+10     	; 0x2300 <MU2_SendData+0x6a>
    22f6:	d7 01       	movw	r26, r14
    22f8:	8d 91       	ld	r24, X+
    22fa:	7d 01       	movw	r14, r26
    22fc:	09 95       	icall
		MU2_TxChar(*data);
		data++;
    22fe:	11 50       	subi	r17, 0x01	; 1
    2300:	e0 91 20 03 	lds	r30, 0x0320
    2304:	f0 91 21 03 	lds	r31, 0x0321
	Byte2Str(len, size);
	MU2_TxChar(size[0]);
	MU2_TxChar(size[1]);

	// Data
	while( len-- ){
    2308:	11 23       	and	r17, r17
    230a:	a9 f7       	brne	.-22     	; 0x22f6 <MU2_SendData+0x60>
static unsigned char rx_count;
static unsigned char i;

__inline__ void MU2_SetTxHandler(int (*fp)(unsigned char)){__mu2_tx_char=fp;}
__inline__ void MU2_SetRxHandler(int (*fp)(unsigned char *)){__mu2_rx_char=fp;}
__inline__ int MU2_TxChar(unsigned char c){ return (*__mu2_tx_char)(c);	}
    230c:	8d e0       	ldi	r24, 0x0D	; 13
    230e:	09 95       	icall

	// Terminator
	MU2_TxChar('\r');	MU2_TxChar('\n');

    return 0;
}
    2310:	e0 91 20 03 	lds	r30, 0x0320
    2314:	f0 91 21 03 	lds	r31, 0x0321
    2318:	8a e0       	ldi	r24, 0x0A	; 10
    231a:	09 95       	icall
    231c:	80 e0       	ldi	r24, 0x00	; 0
    231e:	90 e0       	ldi	r25, 0x00	; 0
    2320:	0f 90       	pop	r0
    2322:	0f 90       	pop	r0
    2324:	0f 90       	pop	r0
    2326:	cf 91       	pop	r28
    2328:	df 91       	pop	r29
    232a:	1f 91       	pop	r17
    232c:	ff 90       	pop	r15
    232e:	ef 90       	pop	r14
    2330:	08 95       	ret

00002332 <MU2_ReceiveData>:


int MU2_ReceiveData(unsigned char *buf, unsigned char size)
{
    2332:	ff 92       	push	r15
    2334:	0f 93       	push	r16
    2336:	1f 93       	push	r17
    2338:	df 93       	push	r29
    233a:	cf 93       	push	r28
    233c:	0f 92       	push	r0
    233e:	cd b7       	in	r28, 0x3d	; 61
    2340:	de b7       	in	r29, 0x3e	; 62
    2342:	8c 01       	movw	r16, r24
    2344:	f6 2e       	mov	r15, r22
static unsigned char i;

__inline__ void MU2_SetTxHandler(int (*fp)(unsigned char)){__mu2_tx_char=fp;}
__inline__ void MU2_SetRxHandler(int (*fp)(unsigned char *)){__mu2_rx_char=fp;}
__inline__ int MU2_TxChar(unsigned char c){ return (*__mu2_tx_char)(c);	}
__inline__ int MU2_RxChar(unsigned char *c){ return (*__mu2_rx_char)(c); }
    2346:	e0 91 25 03 	lds	r30, 0x0325
    234a:	f0 91 26 03 	lds	r31, 0x0326
    234e:	ce 01       	movw	r24, r28
    2350:	01 96       	adiw	r24, 0x01	; 1
    2352:	09 95       	icall

int MU2_ReceiveData(unsigned char *buf, unsigned char size)
{
    unsigned char c;
    MU2_RxChar(&c);
	if(MU2_Response(c,MU2_PREFIX, MU2_RX_BUF)){
    2354:	89 81       	ldd	r24, Y+1	; 0x01
    2356:	62 e2       	ldi	r22, 0x22	; 34
    2358:	73 e0       	ldi	r23, 0x03	; 3
    235a:	40 ee       	ldi	r20, 0xE0	; 224
    235c:	52 e0       	ldi	r21, 0x02	; 2
    235e:	0e 94 08 11 	call	0x2210	; 0x2210 <MU2_Response>
    2362:	89 2b       	or	r24, r25
    2364:	19 f4       	brne	.+6      	; 0x236c <MU2_ReceiveData+0x3a>
    2366:	40 e0       	ldi	r20, 0x00	; 0
    2368:	50 e0       	ldi	r21, 0x00	; 0
    236a:	33 c0       	rjmp	.+102    	; 0x23d2 <MU2_ReceiveData+0xa0>
}


int MU2_CheckCommand(char *prefix1, char *prefix2)
{
	if( (prefix1[0] == prefix2[0]) && (prefix1[1] == prefix2[1]) ){
    236c:	80 91 22 03 	lds	r24, 0x0322
    2370:	84 34       	cpi	r24, 0x44	; 68
    2372:	69 f5       	brne	.+90     	; 0x23ce <MU2_ReceiveData+0x9c>
    2374:	80 91 23 03 	lds	r24, 0x0323
    2378:	82 35       	cpi	r24, 0x52	; 82
    237a:	49 f5       	brne	.+82     	; 0x23ce <MU2_ReceiveData+0x9c>
        if( MU2_CheckCommand(MU2_PREFIX, "DR") == 0){
            // RI=OFF縺ｮ譎
            // RI=ON縺ｮ譎
            unsigned char tmp[2];
            int len, i;
            tmp[0] = MU2_RX_BUF[0];
    237c:	90 91 e0 02 	lds	r25, 0x02E0
            tmp[1] = MU2_RX_BUF[1];
    2380:	80 91 e1 02 	lds	r24, 0x02E1

static __inline__ unsigned char Str2Byte(char *str)
{
	unsigned char tmp;

	tmp = str[0] - ((str[0] >= 'A') ? ('A'-10) : '0' );
    2384:	91 34       	cpi	r25, 0x41	; 65
    2386:	10 f4       	brcc	.+4      	; 0x238c <MU2_ReceiveData+0x5a>
    2388:	30 e3       	ldi	r19, 0x30	; 48
    238a:	01 c0       	rjmp	.+2      	; 0x238e <MU2_ReceiveData+0x5c>
    238c:	37 e3       	ldi	r19, 0x37	; 55
	tmp <<= 4;
	tmp |= str[1] - ((str[1] >= 'A') ? ('A'-10) : '0' );
    238e:	81 34       	cpi	r24, 0x41	; 65
    2390:	10 f4       	brcc	.+4      	; 0x2396 <MU2_ReceiveData+0x64>
    2392:	20 e3       	ldi	r18, 0x30	; 48
    2394:	01 c0       	rjmp	.+2      	; 0x2398 <MU2_ReceiveData+0x66>
    2396:	27 e3       	ldi	r18, 0x37	; 55

static __inline__ unsigned char Str2Byte(char *str)
{
	unsigned char tmp;

	tmp = str[0] - ((str[0] >= 'A') ? ('A'-10) : '0' );
    2398:	93 1b       	sub	r25, r19
	tmp <<= 4;
	tmp |= str[1] - ((str[1] >= 'A') ? ('A'-10) : '0' );
    239a:	82 1b       	sub	r24, r18
    239c:	92 95       	swap	r25
    239e:	90 7f       	andi	r25, 0xF0	; 240
    23a0:	89 2b       	or	r24, r25
            // RI=ON縺ｮ譎
            unsigned char tmp[2];
            int len, i;
            tmp[0] = MU2_RX_BUF[0];
            tmp[1] = MU2_RX_BUF[1];
            len = Str2Byte((char *)tmp);
    23a2:	48 2f       	mov	r20, r24
    23a4:	50 e0       	ldi	r21, 0x00	; 0
    23a6:	e2 ee       	ldi	r30, 0xE2	; 226
    23a8:	f2 e0       	ldi	r31, 0x02	; 2
    23aa:	21 e0       	ldi	r18, 0x01	; 1
    23ac:	30 e0       	ldi	r19, 0x00	; 0

            for( i=2; (i-2)<len && (i-2)<size; i++){
    23ae:	6f 2d       	mov	r22, r15
    23b0:	70 e0       	ldi	r23, 0x00	; 0
    23b2:	06 c0       	rjmp	.+12     	; 0x23c0 <MU2_ReceiveData+0x8e>
                *buf = MU2_RX_BUF[i];
    23b4:	81 91       	ld	r24, Z+
    23b6:	d8 01       	movw	r26, r16
    23b8:	8d 93       	st	X+, r24
    23ba:	8d 01       	movw	r16, r26
                buf++;
    23bc:	2f 5f       	subi	r18, 0xFF	; 255
    23be:	3f 4f       	sbci	r19, 0xFF	; 255
            int len, i;
            tmp[0] = MU2_RX_BUF[0];
            tmp[1] = MU2_RX_BUF[1];
            len = Str2Byte((char *)tmp);

            for( i=2; (i-2)<len && (i-2)<size; i++){
    23c0:	42 17       	cp	r20, r18
    23c2:	53 07       	cpc	r21, r19
    23c4:	34 f0       	brlt	.+12     	; 0x23d2 <MU2_ReceiveData+0xa0>
    23c6:	62 17       	cp	r22, r18
    23c8:	73 07       	cpc	r23, r19
    23ca:	a4 f7       	brge	.-24     	; 0x23b4 <MU2_ReceiveData+0x82>
    23cc:	02 c0       	rjmp	.+4      	; 0x23d2 <MU2_ReceiveData+0xa0>
    23ce:	4f ef       	ldi	r20, 0xFF	; 255
    23d0:	5f ef       	ldi	r21, 0xFF	; 255
        }else{
            return -1;
        }
	}
	return 0;
}
    23d2:	ca 01       	movw	r24, r20
    23d4:	0f 90       	pop	r0
    23d6:	cf 91       	pop	r28
    23d8:	df 91       	pop	r29
    23da:	1f 91       	pop	r17
    23dc:	0f 91       	pop	r16
    23de:	ff 90       	pop	r15
    23e0:	08 95       	ret

000023e2 <MU2_SetChannel>:

int MU2_SetChannel(unsigned char ch)
{
    23e2:	0f 93       	push	r16
    23e4:	1f 93       	push	r17
    23e6:	df 93       	push	r29
    23e8:	cf 93       	push	r28
    23ea:	00 d0       	rcall	.+0      	; 0x23ec <MU2_SetChannel+0xa>
    23ec:	0f 92       	push	r0
    23ee:	cd b7       	in	r28, 0x3d	; 61
    23f0:	de b7       	in	r29, 0x3e	; 62
    23f2:	98 2f       	mov	r25, r24
	char value[3];

	if( ch<7 || ch>46 )		return -1;
    23f4:	87 50       	subi	r24, 0x07	; 7
    23f6:	88 32       	cpi	r24, 0x28	; 40
    23f8:	18 f0       	brcs	.+6      	; 0x2400 <MU2_SetChannel+0x1e>
    23fa:	2f ef       	ldi	r18, 0xFF	; 255
    23fc:	3f ef       	ldi	r19, 0xFF	; 255
    23fe:	0f c0       	rjmp	.+30     	; 0x241e <MU2_SetChannel+0x3c>

	Byte2Str(ch, value);
    2400:	89 2f       	mov	r24, r25
    2402:	8e 01       	movw	r16, r28
    2404:	0f 5f       	subi	r16, 0xFF	; 255
    2406:	1f 4f       	sbci	r17, 0xFF	; 255
    2408:	b8 01       	movw	r22, r16
    240a:	0e 94 a3 10 	call	0x2146	; 0x2146 <Byte2Str>
	MU2_Command("CH", value, 2);
    240e:	80 e2       	ldi	r24, 0x20	; 32
    2410:	91 e0       	ldi	r25, 0x01	; 1
    2412:	b8 01       	movw	r22, r16
    2414:	42 e0       	ldi	r20, 0x02	; 2
    2416:	0e 94 d1 10 	call	0x21a2	; 0x21a2 <MU2_Command>
    241a:	20 e0       	ldi	r18, 0x00	; 0
    241c:	30 e0       	ldi	r19, 0x00	; 0

	return 0;
}
    241e:	c9 01       	movw	r24, r18
    2420:	0f 90       	pop	r0
    2422:	0f 90       	pop	r0
    2424:	0f 90       	pop	r0
    2426:	cf 91       	pop	r28
    2428:	df 91       	pop	r29
    242a:	1f 91       	pop	r17
    242c:	0f 91       	pop	r16
    242e:	08 95       	ret

00002430 <MU2_SetGroupID>:

int MU2_SetGroupID(unsigned char id)
{
    2430:	0f 93       	push	r16
    2432:	1f 93       	push	r17
    2434:	df 93       	push	r29
    2436:	cf 93       	push	r28
    2438:	00 d0       	rcall	.+0      	; 0x243a <MU2_SetGroupID+0xa>
    243a:	0f 92       	push	r0
    243c:	cd b7       	in	r28, 0x3d	; 61
    243e:	de b7       	in	r29, 0x3e	; 62
	char id_str[3];

	Byte2Str(id, id_str);
    2440:	8e 01       	movw	r16, r28
    2442:	0f 5f       	subi	r16, 0xFF	; 255
    2444:	1f 4f       	sbci	r17, 0xFF	; 255
    2446:	b8 01       	movw	r22, r16
    2448:	0e 94 a3 10 	call	0x2146	; 0x2146 <Byte2Str>
	MU2_Command("GI", id_str, 2);
    244c:	83 e2       	ldi	r24, 0x23	; 35
    244e:	91 e0       	ldi	r25, 0x01	; 1
    2450:	b8 01       	movw	r22, r16
    2452:	42 e0       	ldi	r20, 0x02	; 2
    2454:	0e 94 d1 10 	call	0x21a2	; 0x21a2 <MU2_Command>

	return 0;
}
    2458:	80 e0       	ldi	r24, 0x00	; 0
    245a:	90 e0       	ldi	r25, 0x00	; 0
    245c:	0f 90       	pop	r0
    245e:	0f 90       	pop	r0
    2460:	0f 90       	pop	r0
    2462:	cf 91       	pop	r28
    2464:	df 91       	pop	r29
    2466:	1f 91       	pop	r17
    2468:	0f 91       	pop	r16
    246a:	08 95       	ret

0000246c <MU2_SendDataBus>:

int MU2_SendDataBus(unsigned char *data, unsigned char len)
{
    246c:	ef 92       	push	r14
    246e:	ff 92       	push	r15
    2470:	1f 93       	push	r17
    2472:	df 93       	push	r29
    2474:	cf 93       	push	r28
    2476:	00 d0       	rcall	.+0      	; 0x2478 <MU2_SendDataBus+0xc>
    2478:	0f 92       	push	r0
    247a:	cd b7       	in	r28, 0x3d	; 61
    247c:	de b7       	in	r29, 0x3e	; 62
    247e:	7c 01       	movw	r14, r24
    2480:	16 2f       	mov	r17, r22
static unsigned char rx_count;
static unsigned char i;

__inline__ void MU2_SetTxHandler(int (*fp)(unsigned char)){__mu2_tx_char=fp;}
__inline__ void MU2_SetRxHandler(int (*fp)(unsigned char *)){__mu2_rx_char=fp;}
__inline__ int MU2_TxChar(unsigned char c){ return (*__mu2_tx_char)(c);	}
    2482:	e0 91 20 03 	lds	r30, 0x0320
    2486:	f0 91 21 03 	lds	r31, 0x0321
    248a:	8a e2       	ldi	r24, 0x2A	; 42
    248c:	09 95       	icall
	// Command Name
	MU2_TxChar('D');	MU2_TxChar('R');
	MU2_TxChar('=');

	// Data Size
	Byte2Str(len, size);
    248e:	e0 91 20 03 	lds	r30, 0x0320
    2492:	f0 91 21 03 	lds	r31, 0x0321
    2496:	84 e4       	ldi	r24, 0x44	; 68
    2498:	09 95       	icall
    249a:	e0 91 20 03 	lds	r30, 0x0320
    249e:	f0 91 21 03 	lds	r31, 0x0321
    24a2:	82 e5       	ldi	r24, 0x52	; 82
    24a4:	09 95       	icall
    24a6:	e0 91 20 03 	lds	r30, 0x0320
    24aa:	f0 91 21 03 	lds	r31, 0x0321
    24ae:	8d e3       	ldi	r24, 0x3D	; 61
    24b0:	09 95       	icall
    24b2:	81 2f       	mov	r24, r17
    24b4:	be 01       	movw	r22, r28
    24b6:	6f 5f       	subi	r22, 0xFF	; 255
    24b8:	7f 4f       	sbci	r23, 0xFF	; 255
    24ba:	0e 94 a3 10 	call	0x2146	; 0x2146 <Byte2Str>
static unsigned char rx_count;
static unsigned char i;

__inline__ void MU2_SetTxHandler(int (*fp)(unsigned char)){__mu2_tx_char=fp;}
__inline__ void MU2_SetRxHandler(int (*fp)(unsigned char *)){__mu2_rx_char=fp;}
__inline__ int MU2_TxChar(unsigned char c){ return (*__mu2_tx_char)(c);	}
    24be:	e0 91 20 03 	lds	r30, 0x0320
    24c2:	f0 91 21 03 	lds	r31, 0x0321
    24c6:	89 81       	ldd	r24, Y+1	; 0x01
    24c8:	09 95       	icall
	Byte2Str(len, size);
	MU2_TxChar(size[0]);
	MU2_TxChar(size[1]);

	// Data
	while( len-- ){
    24ca:	e0 91 20 03 	lds	r30, 0x0320
    24ce:	f0 91 21 03 	lds	r31, 0x0321
    24d2:	8a 81       	ldd	r24, Y+2	; 0x02
    24d4:	09 95       	icall
    24d6:	05 c0       	rjmp	.+10     	; 0x24e2 <MU2_SendDataBus+0x76>
    24d8:	d7 01       	movw	r26, r14
    24da:	8d 91       	ld	r24, X+
    24dc:	7d 01       	movw	r14, r26
    24de:	09 95       	icall
		MU2_TxChar(*data);
		data++;
    24e0:	11 50       	subi	r17, 0x01	; 1
    24e2:	e0 91 20 03 	lds	r30, 0x0320
    24e6:	f0 91 21 03 	lds	r31, 0x0321
	Byte2Str(len, size);
	MU2_TxChar(size[0]);
	MU2_TxChar(size[1]);

	// Data
	while( len-- ){
    24ea:	11 23       	and	r17, r17
    24ec:	a9 f7       	brne	.-22     	; 0x24d8 <MU2_SendDataBus+0x6c>
static unsigned char rx_count;
static unsigned char i;

__inline__ void MU2_SetTxHandler(int (*fp)(unsigned char)){__mu2_tx_char=fp;}
__inline__ void MU2_SetRxHandler(int (*fp)(unsigned char *)){__mu2_rx_char=fp;}
__inline__ int MU2_TxChar(unsigned char c){ return (*__mu2_tx_char)(c);	}
    24ee:	8d e0       	ldi	r24, 0x0D	; 13
    24f0:	09 95       	icall

	// Terminator
	MU2_TxChar('\r');	MU2_TxChar('\n');

    return 0;
}
    24f2:	e0 91 20 03 	lds	r30, 0x0320
    24f6:	f0 91 21 03 	lds	r31, 0x0321
    24fa:	8a e0       	ldi	r24, 0x0A	; 10
    24fc:	09 95       	icall
    24fe:	80 e0       	ldi	r24, 0x00	; 0
    2500:	90 e0       	ldi	r25, 0x00	; 0
    2502:	0f 90       	pop	r0
    2504:	0f 90       	pop	r0
    2506:	0f 90       	pop	r0
    2508:	cf 91       	pop	r28
    250a:	df 91       	pop	r29
    250c:	1f 91       	pop	r17
    250e:	ff 90       	pop	r15
    2510:	ef 90       	pop	r14
    2512:	08 95       	ret

00002514 <__udivmodqi4>:
    2514:	99 1b       	sub	r25, r25
    2516:	79 e0       	ldi	r23, 0x09	; 9
    2518:	04 c0       	rjmp	.+8      	; 0x2522 <__udivmodqi4_ep>

0000251a <__udivmodqi4_loop>:
    251a:	99 1f       	adc	r25, r25
    251c:	96 17       	cp	r25, r22
    251e:	08 f0       	brcs	.+2      	; 0x2522 <__udivmodqi4_ep>
    2520:	96 1b       	sub	r25, r22

00002522 <__udivmodqi4_ep>:
    2522:	88 1f       	adc	r24, r24
    2524:	7a 95       	dec	r23
    2526:	c9 f7       	brne	.-14     	; 0x251a <__udivmodqi4_loop>
    2528:	80 95       	com	r24
    252a:	08 95       	ret

0000252c <__udivmodsi4>:
    252c:	a1 e2       	ldi	r26, 0x21	; 33
    252e:	1a 2e       	mov	r1, r26
    2530:	aa 1b       	sub	r26, r26
    2532:	bb 1b       	sub	r27, r27
    2534:	fd 01       	movw	r30, r26
    2536:	0d c0       	rjmp	.+26     	; 0x2552 <__udivmodsi4_ep>

00002538 <__udivmodsi4_loop>:
    2538:	aa 1f       	adc	r26, r26
    253a:	bb 1f       	adc	r27, r27
    253c:	ee 1f       	adc	r30, r30
    253e:	ff 1f       	adc	r31, r31
    2540:	a2 17       	cp	r26, r18
    2542:	b3 07       	cpc	r27, r19
    2544:	e4 07       	cpc	r30, r20
    2546:	f5 07       	cpc	r31, r21
    2548:	20 f0       	brcs	.+8      	; 0x2552 <__udivmodsi4_ep>
    254a:	a2 1b       	sub	r26, r18
    254c:	b3 0b       	sbc	r27, r19
    254e:	e4 0b       	sbc	r30, r20
    2550:	f5 0b       	sbc	r31, r21

00002552 <__udivmodsi4_ep>:
    2552:	66 1f       	adc	r22, r22
    2554:	77 1f       	adc	r23, r23
    2556:	88 1f       	adc	r24, r24
    2558:	99 1f       	adc	r25, r25
    255a:	1a 94       	dec	r1
    255c:	69 f7       	brne	.-38     	; 0x2538 <__udivmodsi4_loop>
    255e:	60 95       	com	r22
    2560:	70 95       	com	r23
    2562:	80 95       	com	r24
    2564:	90 95       	com	r25
    2566:	9b 01       	movw	r18, r22
    2568:	ac 01       	movw	r20, r24
    256a:	bd 01       	movw	r22, r26
    256c:	cf 01       	movw	r24, r30
    256e:	08 95       	ret

00002570 <_exit>:
    2570:	f8 94       	cli

00002572 <__stop_program>:
    2572:	ff cf       	rjmp	.-2      	; 0x2572 <__stop_program>
