
usb_new.elf:     file format elf32-avr

Sections:
Idx Name          Size      VMA       LMA       File off  Algn
  0 .data         00000038  00800100  00005626  000056ba  2**0
                  CONTENTS, ALLOC, LOAD, DATA
  1 .text         00005626  00000000  00000000  00000094  2**1
                  CONTENTS, ALLOC, LOAD, READONLY, CODE
  2 .bss          00000214  00800138  00800138  000056f2  2**0
                  ALLOC
  3 .debug_aranges 000001e0  00000000  00000000  000056f2  2**0
                  CONTENTS, READONLY, DEBUGGING
  4 .debug_pubnames 00000706  00000000  00000000  000058d2  2**0
                  CONTENTS, READONLY, DEBUGGING
  5 .debug_info   00005f29  00000000  00000000  00005fd8  2**0
                  CONTENTS, READONLY, DEBUGGING
  6 .debug_abbrev 000017c8  00000000  00000000  0000bf01  2**0
                  CONTENTS, READONLY, DEBUGGING
  7 .debug_line   00003902  00000000  00000000  0000d6c9  2**0
                  CONTENTS, READONLY, DEBUGGING
  8 .debug_frame  000005c0  00000000  00000000  00010fcc  2**2
                  CONTENTS, READONLY, DEBUGGING
  9 .debug_str    00000e22  00000000  00000000  0001158c  2**0
                  CONTENTS, READONLY, DEBUGGING
 10 .debug_loc    00001da0  00000000  00000000  000123ae  2**0
                  CONTENTS, READONLY, DEBUGGING
 11 .debug_ranges 00000698  00000000  00000000  0001414e  2**0
                  CONTENTS, READONLY, DEBUGGING

Disassembly of section .text:

00000000 <__vectors>:
       0:	0c 94 46 00 	jmp	0x8c	; 0x8c <__ctors_end>
       4:	0c 94 65 00 	jmp	0xca	; 0xca <__bad_interrupt>
       8:	0c 94 65 00 	jmp	0xca	; 0xca <__bad_interrupt>
       c:	0c 94 65 00 	jmp	0xca	; 0xca <__bad_interrupt>
      10:	0c 94 65 00 	jmp	0xca	; 0xca <__bad_interrupt>
      14:	0c 94 65 00 	jmp	0xca	; 0xca <__bad_interrupt>
      18:	0c 94 65 00 	jmp	0xca	; 0xca <__bad_interrupt>
      1c:	0c 94 65 00 	jmp	0xca	; 0xca <__bad_interrupt>
      20:	0c 94 65 00 	jmp	0xca	; 0xca <__bad_interrupt>
      24:	0c 94 65 00 	jmp	0xca	; 0xca <__bad_interrupt>
      28:	0c 94 65 00 	jmp	0xca	; 0xca <__bad_interrupt>
      2c:	0c 94 65 00 	jmp	0xca	; 0xca <__bad_interrupt>
      30:	0c 94 65 00 	jmp	0xca	; 0xca <__bad_interrupt>
      34:	0c 94 65 00 	jmp	0xca	; 0xca <__bad_interrupt>
      38:	0c 94 65 00 	jmp	0xca	; 0xca <__bad_interrupt>
      3c:	0c 94 65 00 	jmp	0xca	; 0xca <__bad_interrupt>
      40:	0c 94 65 00 	jmp	0xca	; 0xca <__bad_interrupt>
      44:	0c 94 65 00 	jmp	0xca	; 0xca <__bad_interrupt>
      48:	0c 94 05 16 	jmp	0x2c0a	; 0x2c0a <__vector_18>
      4c:	0c 94 5b 15 	jmp	0x2ab6	; 0x2ab6 <__vector_19>
      50:	0c 94 65 00 	jmp	0xca	; 0xca <__bad_interrupt>
      54:	0c 94 65 00 	jmp	0xca	; 0xca <__bad_interrupt>
      58:	0c 94 65 00 	jmp	0xca	; 0xca <__bad_interrupt>
      5c:	0c 94 65 00 	jmp	0xca	; 0xca <__bad_interrupt>
      60:	0c 94 65 00 	jmp	0xca	; 0xca <__bad_interrupt>
      64:	0c 94 65 00 	jmp	0xca	; 0xca <__bad_interrupt>
      68:	0c 94 65 00 	jmp	0xca	; 0xca <__bad_interrupt>
      6c:	0c 94 65 00 	jmp	0xca	; 0xca <__bad_interrupt>
      70:	0c 94 65 00 	jmp	0xca	; 0xca <__bad_interrupt>
      74:	0c 94 65 00 	jmp	0xca	; 0xca <__bad_interrupt>
      78:	0c 94 3b 16 	jmp	0x2c76	; 0x2c76 <__vector_30>
      7c:	0c 94 b0 15 	jmp	0x2b60	; 0x2b60 <__vector_31>
      80:	0c 94 65 00 	jmp	0xca	; 0xca <__bad_interrupt>
      84:	0c 94 65 00 	jmp	0xca	; 0xca <__bad_interrupt>
      88:	0c 94 65 00 	jmp	0xca	; 0xca <__bad_interrupt>

0000008c <__ctors_end>:
      8c:	11 24       	eor	r1, r1
      8e:	1f be       	out	0x3f, r1	; 63
      90:	cf ef       	ldi	r28, 0xFF	; 255
      92:	d0 e1       	ldi	r29, 0x10	; 16
      94:	de bf       	out	0x3e, r29	; 62
      96:	cd bf       	out	0x3d, r28	; 61

00000098 <__do_copy_data>:
      98:	11 e0       	ldi	r17, 0x01	; 1
      9a:	a0 e0       	ldi	r26, 0x00	; 0
      9c:	b1 e0       	ldi	r27, 0x01	; 1
      9e:	e6 e2       	ldi	r30, 0x26	; 38
      a0:	f6 e5       	ldi	r31, 0x56	; 86
      a2:	00 e0       	ldi	r16, 0x00	; 0
      a4:	0b bf       	out	0x3b, r16	; 59
      a6:	02 c0       	rjmp	.+4      	; 0xac <__do_copy_data+0x14>
      a8:	07 90       	elpm	r0, Z+
      aa:	0d 92       	st	X+, r0
      ac:	a8 33       	cpi	r26, 0x38	; 56
      ae:	b1 07       	cpc	r27, r17
      b0:	d9 f7       	brne	.-10     	; 0xa8 <__do_copy_data+0x10>

000000b2 <__do_clear_bss>:
      b2:	13 e0       	ldi	r17, 0x03	; 3
      b4:	a8 e3       	ldi	r26, 0x38	; 56
      b6:	b1 e0       	ldi	r27, 0x01	; 1
      b8:	01 c0       	rjmp	.+2      	; 0xbc <.do_clear_bss_start>

000000ba <.do_clear_bss_loop>:
      ba:	1d 92       	st	X+, r1

000000bc <.do_clear_bss_start>:
      bc:	ac 34       	cpi	r26, 0x4C	; 76
      be:	b1 07       	cpc	r27, r17
      c0:	e1 f7       	brne	.-8      	; 0xba <.do_clear_bss_loop>
      c2:	0e 94 58 0a 	call	0x14b0	; 0x14b0 <main>
      c6:	0c 94 11 2b 	jmp	0x5622	; 0x5622 <_exit>

000000ca <__bad_interrupt>:
      ca:	0c 94 00 00 	jmp	0	; 0x0 <__vectors>

000000ce <initialize>:

//以下関数

void initialize(void)//IO_SETING
{
	DDRD = 0xFE;//PD1~7-->OUT
      ce:	8e ef       	ldi	r24, 0xFE	; 254
      d0:	81 bb       	out	0x11, r24	; 17
	PORTD = 0x82;//PD 1000 001*
      d2:	82 e8       	ldi	r24, 0x82	; 130
      d4:	82 bb       	out	0x12, r24	; 18
	DDRE = 0x02;
      d6:	82 e0       	ldi	r24, 0x02	; 2
      d8:	82 b9       	out	0x02, r24	; 2
	DDRF = 0x00;
      da:	10 92 61 00 	sts	0x0061, r1
	PORTF = 0xFF;
      de:	8f ef       	ldi	r24, 0xFF	; 255
      e0:	80 93 62 00 	sts	0x0062, r24
}
      e4:	08 95       	ret

000000e6 <mem_init>:

void mem_init(void)//XMEM_SETING
{
	MCUCR |= _BV(SRE) | _BV(SRW10);//XMEM_PARMISSION
      e6:	85 b7       	in	r24, 0x35	; 53
      e8:	80 6c       	ori	r24, 0xC0	; 192
      ea:	85 bf       	out	0x35, r24	; 53
	XMCRA |= _BV(SRW11) | _BV(SRW00) | _BV(SRW01);//(High&Low)WAIT2+LOCK1
      ec:	ed e6       	ldi	r30, 0x6D	; 109
      ee:	f0 e0       	ldi	r31, 0x00	; 0
      f0:	80 81       	ld	r24, Z
      f2:	8e 60       	ori	r24, 0x0E	; 14
      f4:	80 83       	st	Z, r24
	XMCRB |= _BV(XMBK);//BUS_KEEPE
      f6:	ec e6       	ldi	r30, 0x6C	; 108
      f8:	f0 e0       	ldi	r31, 0x00	; 0
      fa:	80 81       	ld	r24, Z
      fc:	80 68       	ori	r24, 0x80	; 128
      fe:	80 83       	st	Z, r24
}
     100:	08 95       	ret

00000102 <sl811_init>:
/// <summary>
/// SL811HSTの初期化
/// </summary>
void sl811_init(void)
{
	__sl811_addr = (volatile unsigned char *)0x8000;
     102:	80 e0       	ldi	r24, 0x00	; 0
     104:	90 e8       	ldi	r25, 0x80	; 128
     106:	90 93 c5 02 	sts	0x02C5, r25
     10a:	80 93 c4 02 	sts	0x02C4, r24
	__sl811_data = (volatile unsigned char *)0xC000;
     10e:	80 e0       	ldi	r24, 0x00	; 0
     110:	90 ec       	ldi	r25, 0xC0	; 192
     112:	90 93 d7 02 	sts	0x02D7, r25
     116:	80 93 d6 02 	sts	0x02D6, r24
}
     11a:	08 95       	ret

0000011c <sl811_read>:
/// </summary>
unsigned char sl811_read(const unsigned char offset)
{
	unsigned char data;

	*(__sl811_addr) = offset;
     11c:	e0 91 c4 02 	lds	r30, 0x02C4
     120:	f0 91 c5 02 	lds	r31, 0x02C5
     124:	80 83       	st	Z, r24
    can be achieved.
*/
void
_delay_loop_1(uint8_t __count)
{
	__asm__ volatile (
     126:	92 e3       	ldi	r25, 0x32	; 50
     128:	89 2f       	mov	r24, r25
     12a:	8a 95       	dec	r24
     12c:	f1 f7       	brne	.-4      	; 0x12a <sl811_read+0xe>
	DELAY;
	data = *(__sl811_data);
     12e:	e0 91 d6 02 	lds	r30, 0x02D6
     132:	f0 91 d7 02 	lds	r31, 0x02D7
     136:	80 81       	ld	r24, Z
     138:	9a 95       	dec	r25
     13a:	f1 f7       	brne	.-4      	; 0x138 <sl811_read+0x1c>
	DELAY;

	return data;
}
     13c:	08 95       	ret

0000013e <sl811_write>:
/// <summary>
/// SL811HST専用レジスタへの書き込み
/// </summary>
void sl811_write(const unsigned char offset, const unsigned char data)
{
	*(__sl811_addr) = offset;
     13e:	e0 91 c4 02 	lds	r30, 0x02C4
     142:	f0 91 c5 02 	lds	r31, 0x02C5
     146:	80 83       	st	Z, r24
     148:	82 e3       	ldi	r24, 0x32	; 50
     14a:	98 2f       	mov	r25, r24
     14c:	9a 95       	dec	r25
     14e:	f1 f7       	brne	.-4      	; 0x14c <sl811_write+0xe>
	DELAY;
	*(__sl811_data) = data;
     150:	e0 91 d6 02 	lds	r30, 0x02D6
     154:	f0 91 d7 02 	lds	r31, 0x02D7
     158:	60 83       	st	Z, r22
     15a:	8a 95       	dec	r24
     15c:	f1 f7       	brne	.-4      	; 0x15a <sl811_write+0x1c>
	DELAY;
}
     15e:	08 95       	ret

00000160 <sl811_buf_read>:

/// <summary>
/// SL811HST FIFOメモリ・バッファからのブロック・データ読み込み
/// </summary>
void sl811_buf_read(const unsigned char offset, unsigned char *buf, int size)
{
     160:	db 01       	movw	r26, r22
	if(size <= 0)	return;
     162:	14 16       	cp	r1, r20
     164:	15 06       	cpc	r1, r21
     166:	cc f4       	brge	.+50     	; 0x19a <sl811_buf_read+0x3a>
	
	*(__sl811_addr) = offset;
     168:	e0 91 c4 02 	lds	r30, 0x02C4
     16c:	f0 91 c5 02 	lds	r31, 0x02C5
     170:	80 83       	st	Z, r24
     172:	82 e3       	ldi	r24, 0x32	; 50
     174:	8a 95       	dec	r24
     176:	f1 f7       	brne	.-4      	; 0x174 <sl811_buf_read+0x14>
	DELAY;

	while( size-- ){
		 *buf = *(__sl811_data);
     178:	92 e3       	ldi	r25, 0x32	; 50
     17a:	09 c0       	rjmp	.+18     	; 0x18e <sl811_buf_read+0x2e>
     17c:	e0 91 d6 02 	lds	r30, 0x02D6
     180:	f0 91 d7 02 	lds	r31, 0x02D7
     184:	80 81       	ld	r24, Z
     186:	8d 93       	st	X+, r24
     188:	89 2f       	mov	r24, r25
     18a:	8a 95       	dec	r24
     18c:	f1 f7       	brne	.-4      	; 0x18a <sl811_buf_read+0x2a>
	if(size <= 0)	return;
	
	*(__sl811_addr) = offset;
	DELAY;

	while( size-- ){
     18e:	41 50       	subi	r20, 0x01	; 1
     190:	50 40       	sbci	r21, 0x00	; 0
     192:	8f ef       	ldi	r24, 0xFF	; 255
     194:	4f 3f       	cpi	r20, 0xFF	; 255
     196:	58 07       	cpc	r21, r24
     198:	89 f7       	brne	.-30     	; 0x17c <sl811_buf_read+0x1c>
     19a:	08 95       	ret

0000019c <sl811_buf_write>:

/// <summary>
/// SL811HST FIFOメモリ・バッファへブロック・データ書き込み
/// </summary>
void sl811_buf_write(const unsigned char offset, const unsigned char *buf, int size)
{
     19c:	db 01       	movw	r26, r22
	if(size <= 0)	return;
     19e:	14 16       	cp	r1, r20
     1a0:	15 06       	cpc	r1, r21
     1a2:	cc f4       	brge	.+50     	; 0x1d6 <sl811_buf_write+0x3a>
	
	*(__sl811_addr) = offset;
     1a4:	e0 91 c4 02 	lds	r30, 0x02C4
     1a8:	f0 91 c5 02 	lds	r31, 0x02C5
     1ac:	80 83       	st	Z, r24
     1ae:	82 e3       	ldi	r24, 0x32	; 50
     1b0:	8a 95       	dec	r24
     1b2:	f1 f7       	brne	.-4      	; 0x1b0 <sl811_buf_write+0x14>
	DELAY;

	while( size-- ){
		*(__sl811_data) = *buf;
     1b4:	92 e3       	ldi	r25, 0x32	; 50
     1b6:	09 c0       	rjmp	.+18     	; 0x1ca <sl811_buf_write+0x2e>
     1b8:	e0 91 d6 02 	lds	r30, 0x02D6
     1bc:	f0 91 d7 02 	lds	r31, 0x02D7
     1c0:	8d 91       	ld	r24, X+
     1c2:	80 83       	st	Z, r24
     1c4:	89 2f       	mov	r24, r25
     1c6:	8a 95       	dec	r24
     1c8:	f1 f7       	brne	.-4      	; 0x1c6 <sl811_buf_write+0x2a>
	if(size <= 0)	return;
	
	*(__sl811_addr) = offset;
	DELAY;

	while( size-- ){
     1ca:	41 50       	subi	r20, 0x01	; 1
     1cc:	50 40       	sbci	r21, 0x00	; 0
     1ce:	8f ef       	ldi	r24, 0xFF	; 255
     1d0:	4f 3f       	cpi	r20, 0xFF	; 255
     1d2:	58 07       	cpc	r21, r24
     1d4:	89 f7       	brne	.-30     	; 0x1b8 <sl811_buf_write+0x1c>
     1d6:	08 95       	ret

000001d8 <SL811WriteData>:
/// <returns>
/// 正常終了時 : 送信したデータのサイズ
/// 不正終了時 : SL811_HANDSHAKE_NAK [-1] もしくは SL811_HANDSHAKE_STALL [-2]
/// </returns>
int SL811WriteData(SL811USBDevInfo *d, unsigned char *data, int size, int flag)
{
     1d8:	2f 92       	push	r2
     1da:	3f 92       	push	r3
     1dc:	4f 92       	push	r4
     1de:	5f 92       	push	r5
     1e0:	6f 92       	push	r6
     1e2:	7f 92       	push	r7
     1e4:	8f 92       	push	r8
     1e6:	9f 92       	push	r9
     1e8:	af 92       	push	r10
     1ea:	bf 92       	push	r11
     1ec:	cf 92       	push	r12
     1ee:	df 92       	push	r13
     1f0:	ef 92       	push	r14
     1f2:	ff 92       	push	r15
     1f4:	0f 93       	push	r16
     1f6:	1f 93       	push	r17
     1f8:	cf 93       	push	r28
     1fa:	df 93       	push	r29
     1fc:	ec 01       	movw	r28, r24
     1fe:	4b 01       	movw	r8, r22
     200:	8a 01       	movw	r16, r20
	int remain, wsiz, timeovr, retry;
	
	// 未処理のデータ数
	remain = size;

	retry = d->retry;
     202:	8b 81       	ldd	r24, Y+3	; 0x03
     204:	68 2e       	mov	r6, r24
     206:	77 24       	eor	r7, r7
	d->wr_cmd |= d->pre;
     208:	8c 81       	ldd	r24, Y+4	; 0x04
     20a:	9e 81       	ldd	r25, Y+6	; 0x06
     20c:	89 2b       	or	r24, r25
     20e:	8c 83       	std	Y+4, r24	; 0x04
/// <summary>
/// SL811HST専用レジスタへの書き込み
/// </summary>
void sl811_write(const unsigned char offset, const unsigned char data)
{
	*(__sl811_addr) = offset;
     210:	e0 91 c4 02 	lds	r30, 0x02C4
     214:	f0 91 c5 02 	lds	r31, 0x02C5
     218:	81 e0       	ldi	r24, 0x01	; 1
     21a:	80 83       	st	Z, r24
     21c:	92 e3       	ldi	r25, 0x32	; 50
     21e:	89 2f       	mov	r24, r25
     220:	8a 95       	dec	r24
     222:	f1 f7       	brne	.-4      	; 0x220 <SL811WriteData+0x48>
	DELAY;
	*(__sl811_data) = data;
     224:	e0 91 d6 02 	lds	r30, 0x02D6
     228:	f0 91 d7 02 	lds	r31, 0x02D7
     22c:	80 e1       	ldi	r24, 0x10	; 16
     22e:	80 83       	st	Z, r24
     230:	89 2f       	mov	r24, r25
     232:	8a 95       	dec	r24
     234:	f1 f7       	brne	.-4      	; 0x232 <SL811WriteData+0x5a>
	
	// USB FIFOメモリバッファの先頭アドレスの指定
	sl811_write(SL811H_HOSTBASEADDR_A, SL811H_MEMBUF_BGN);

	// 対象となるUSBデバイスのアドレスの指定
	sl811_write(SL811H_HOSTDEVADDR_A, d->addr);
     236:	48 81       	ld	r20, Y
/// <summary>
/// SL811HST専用レジスタへの書き込み
/// </summary>
void sl811_write(const unsigned char offset, const unsigned char data)
{
	*(__sl811_addr) = offset;
     238:	e0 91 c4 02 	lds	r30, 0x02C4
     23c:	f0 91 c5 02 	lds	r31, 0x02C5
     240:	84 e0       	ldi	r24, 0x04	; 4
     242:	80 83       	st	Z, r24
     244:	89 2f       	mov	r24, r25
     246:	8a 95       	dec	r24
     248:	f1 f7       	brne	.-4      	; 0x246 <SL811WriteData+0x6e>
	DELAY;
	*(__sl811_data) = data;
     24a:	e0 91 d6 02 	lds	r30, 0x02D6
     24e:	f0 91 d7 02 	lds	r31, 0x02D7
     252:	40 83       	st	Z, r20
     254:	9a 95       	dec	r25
     256:	f1 f7       	brne	.-4      	; 0x254 <SL811WriteData+0x7c>

	// 対象となるUSBデバイスのアドレスの指定
	sl811_write(SL811H_HOSTDEVADDR_A, d->addr);

	// パケット種別(OUT/SETUP)エンドポイント番号の指定
	sl811_write(SL811H_PIDDEVENDPT_A, (flag == SL811WRITE_SETUP) ? PID_SETUP : (PID_OUT | d->ep));
     258:	21 30       	cpi	r18, 0x01	; 1
     25a:	31 05       	cpc	r19, r1
     25c:	11 f4       	brne	.+4      	; 0x262 <SL811WriteData+0x8a>
     25e:	20 ed       	ldi	r18, 0xD0	; 208
     260:	02 c0       	rjmp	.+4      	; 0x266 <SL811WriteData+0x8e>
     262:	29 81       	ldd	r18, Y+1	; 0x01
     264:	20 61       	ori	r18, 0x10	; 16
/// <summary>
/// SL811HST専用レジスタへの書き込み
/// </summary>
void sl811_write(const unsigned char offset, const unsigned char data)
{
	*(__sl811_addr) = offset;
     266:	e0 91 c4 02 	lds	r30, 0x02C4
     26a:	f0 91 c5 02 	lds	r31, 0x02C5
     26e:	83 e0       	ldi	r24, 0x03	; 3
     270:	80 83       	st	Z, r24
     272:	82 e3       	ldi	r24, 0x32	; 50
     274:	98 2f       	mov	r25, r24
     276:	9a 95       	dec	r25
     278:	f1 f7       	brne	.-4      	; 0x276 <SL811WriteData+0x9e>
	DELAY;
	*(__sl811_data) = data;
     27a:	e0 91 d6 02 	lds	r30, 0x02D6
     27e:	f0 91 d7 02 	lds	r31, 0x02D7
     282:	20 83       	st	Z, r18
     284:	8a 95       	dec	r24
     286:	f1 f7       	brne	.-4      	; 0x284 <SL811WriteData+0xac>
     288:	78 01       	movw	r14, r16
    milliseconds can be achieved.
 */
void
_delay_loop_2(uint16_t __count)
{
	__asm__ volatile (
     28a:	32 e3       	ldi	r19, 0x32	; 50
     28c:	b3 2e       	mov	r11, r19
     28e:	20 e5       	ldi	r18, 0x50	; 80
     290:	22 2e       	mov	r2, r18
     292:	23 ec       	ldi	r18, 0xC3	; 195
     294:	32 2e       	mov	r3, r18
    can be achieved.
*/
void
_delay_loop_1(uint8_t __count)
{
	__asm__ volatile (
     296:	92 e3       	ldi	r25, 0x32	; 50
     298:	a9 2e       	mov	r10, r25
    milliseconds can be achieved.
 */
void
_delay_loop_2(uint16_t __count)
{
	__asm__ volatile (
     29a:	82 ee       	ldi	r24, 0xE2	; 226
     29c:	48 2e       	mov	r4, r24
     29e:	84 e0       	ldi	r24, 0x04	; 4
     2a0:	58 2e       	mov	r5, r24
	// パケット種別(OUT/SETUP)エンドポイント番号の指定
	sl811_write(SL811H_PIDDEVENDPT_A, (flag == SL811WRITE_SETUP) ? PID_SETUP : (PID_OUT | d->ep));

	do{
		// 1つのパケットで送信するデータ数を算出
		wsiz = (remain > d->epsize) ? d->epsize : remain;
     2a2:	8a 81       	ldd	r24, Y+2	; 0x02
     2a4:	90 e0       	ldi	r25, 0x00	; 0
     2a6:	67 01       	movw	r12, r14
     2a8:	8e 15       	cp	r24, r14
     2aa:	9f 05       	cpc	r25, r15
     2ac:	0c f4       	brge	.+2      	; 0x2b0 <SL811WriteData+0xd8>
     2ae:	6c 01       	movw	r12, r24

		// 送信データがある場合は、USB FIFOメモリバッファへ転送する
		if( data != NULL && size > 0 )
     2b0:	81 14       	cp	r8, r1
     2b2:	91 04       	cpc	r9, r1
     2b4:	61 f0       	breq	.+24     	; 0x2ce <SL811WriteData+0xf6>
     2b6:	10 16       	cp	r1, r16
     2b8:	11 06       	cpc	r1, r17
     2ba:	4c f4       	brge	.+18     	; 0x2ce <SL811WriteData+0xf6>
			sl811_buf_write(SL811H_MEMBUF_BGN, &data[size - remain], wsiz);
     2bc:	b8 01       	movw	r22, r16
     2be:	6e 19       	sub	r22, r14
     2c0:	7f 09       	sbc	r23, r15
     2c2:	68 0d       	add	r22, r8
     2c4:	79 1d       	adc	r23, r9
     2c6:	80 e1       	ldi	r24, 0x10	; 16
     2c8:	a6 01       	movw	r20, r12
     2ca:	0e 94 ce 00 	call	0x19c	; 0x19c <sl811_buf_write>
/// <summary>
/// SL811HST専用レジスタへの書き込み
/// </summary>
void sl811_write(const unsigned char offset, const unsigned char data)
{
	*(__sl811_addr) = offset;
     2ce:	e0 91 c4 02 	lds	r30, 0x02C4
     2d2:	f0 91 c5 02 	lds	r31, 0x02C5
     2d6:	82 e0       	ldi	r24, 0x02	; 2
     2d8:	80 83       	st	Z, r24
    can be achieved.
*/
void
_delay_loop_1(uint8_t __count)
{
	__asm__ volatile (
     2da:	8b 2d       	mov	r24, r11
     2dc:	8a 95       	dec	r24
     2de:	f1 f7       	brne	.-4      	; 0x2dc <SL811WriteData+0x104>
	DELAY;
	*(__sl811_data) = data;
     2e0:	e0 91 d6 02 	lds	r30, 0x02D6
     2e4:	f0 91 d7 02 	lds	r31, 0x02D7
     2e8:	c0 82       	st	Z, r12
     2ea:	8b 2d       	mov	r24, r11
     2ec:	8a 95       	dec	r24
     2ee:	f1 f7       	brne	.-4      	; 0x2ec <SL811WriteData+0x114>
     2f0:	20 e0       	ldi	r18, 0x00	; 0
     2f2:	30 e0       	ldi	r19, 0x00	; 0
     2f4:	4a c0       	rjmp	.+148    	; 0x38a <SL811WriteData+0x1b2>
		// USBデバイスがNAKの場合、再度USBデータ送信をする
		for( timeovr=0; timeovr<retry; timeovr++ )
		{

			// USB_AからUSB FIFOメモリバッファの内容を送信する
			sl811_write(SL811H_HOSTCTLREG_A, d->wr_cmd);
     2f6:	8c 81       	ldd	r24, Y+4	; 0x04
/// <summary>
/// SL811HST専用レジスタへの書き込み
/// </summary>
void sl811_write(const unsigned char offset, const unsigned char data)
{
	*(__sl811_addr) = offset;
     2f8:	e0 91 c4 02 	lds	r30, 0x02C4
     2fc:	f0 91 c5 02 	lds	r31, 0x02C5
     300:	10 82       	st	Z, r1
     302:	9b 2d       	mov	r25, r11
     304:	9a 95       	dec	r25
     306:	f1 f7       	brne	.-4      	; 0x304 <SL811WriteData+0x12c>
	DELAY;
	*(__sl811_data) = data;
     308:	e0 91 d6 02 	lds	r30, 0x02D6
     30c:	f0 91 d7 02 	lds	r31, 0x02D7
     310:	80 83       	st	Z, r24
     312:	8b 2d       	mov	r24, r11
     314:	8a 95       	dec	r24
     316:	f1 f7       	brne	.-4      	; 0x314 <SL811WriteData+0x13c>
    milliseconds can be achieved.
 */
void
_delay_loop_2(uint16_t __count)
{
	__asm__ volatile (
     318:	c1 01       	movw	r24, r2
     31a:	01 97       	sbiw	r24, 0x01	; 1
     31c:	f1 f7       	brne	.-4      	; 0x31a <SL811WriteData+0x142>
/// </summary>
unsigned char sl811_read(const unsigned char offset)
{
	unsigned char data;

	*(__sl811_addr) = offset;
     31e:	e0 91 c4 02 	lds	r30, 0x02C4
     322:	f0 91 c5 02 	lds	r31, 0x02C5
     326:	9d e0       	ldi	r25, 0x0D	; 13
     328:	90 83       	st	Z, r25
    can be achieved.
*/
void
_delay_loop_1(uint8_t __count)
{
	__asm__ volatile (
     32a:	8b 2d       	mov	r24, r11
     32c:	8a 95       	dec	r24
     32e:	f1 f7       	brne	.-4      	; 0x32c <SL811WriteData+0x154>
	DELAY;
	data = *(__sl811_data);
     330:	e0 91 d6 02 	lds	r30, 0x02D6
     334:	f0 91 d7 02 	lds	r31, 0x02D7
     338:	80 81       	ld	r24, Z
     33a:	9b 2d       	mov	r25, r11
     33c:	9a 95       	dec	r25
     33e:	f1 f7       	brne	.-4      	; 0x33c <SL811WriteData+0x164>
			sl811_write(SL811H_HOSTCTLREG_A, d->wr_cmd);

			_delay_ms(200);

			// USB_Aの送信が完了するまで待つ
			while( (sl811_read(SL811H_INTSTATUSREG) & SL811H_INTMASK_XFERDONE_A) == 0 );
     340:	80 ff       	sbrs	r24, 0
     342:	ed cf       	rjmp	.-38     	; 0x31e <SL811WriteData+0x146>
/// </summary>
unsigned char sl811_read(const unsigned char offset)
{
	unsigned char data;

	*(__sl811_addr) = offset;
     344:	e0 91 c4 02 	lds	r30, 0x02C4
     348:	f0 91 c5 02 	lds	r31, 0x02C5
     34c:	83 e0       	ldi	r24, 0x03	; 3
     34e:	80 83       	st	Z, r24
     350:	8a 2d       	mov	r24, r10
     352:	8a 95       	dec	r24
     354:	f1 f7       	brne	.-4      	; 0x352 <SL811WriteData+0x17a>
	DELAY;
	data = *(__sl811_data);
     356:	e0 91 d6 02 	lds	r30, 0x02D6
     35a:	f0 91 d7 02 	lds	r31, 0x02D7
     35e:	80 81       	ld	r24, Z
     360:	9a 2d       	mov	r25, r10
     362:	9a 95       	dec	r25
     364:	f1 f7       	brne	.-4      	; 0x362 <SL811WriteData+0x18a>

			// USB_Aの送信が完了するまで待つ
			while( (sl811_read(SL811H_INTSTATUSREG) & SL811H_INTMASK_XFERDONE_A) == 0 );

			// USB_Aのパケット送信状態を読み込む
			pktstatus = sl811_read(SL811H_USBSTATUS_A);
     366:	80 93 39 01 	sts	0x0139, r24

			// USBデバイスがSTALLの場合はエラー終了
			if( pktstatus & SL811H_STATUSMASK_STALL )
     36a:	80 91 39 01 	lds	r24, 0x0139
     36e:	87 ff       	sbrs	r24, 7
     370:	03 c0       	rjmp	.+6      	; 0x378 <SL811WriteData+0x1a0>
     372:	0e ef       	ldi	r16, 0xFE	; 254
     374:	1f ef       	ldi	r17, 0xFF	; 255
     376:	1e c0       	rjmp	.+60     	; 0x3b4 <SL811WriteData+0x1dc>
//**/				DBG("!!! READ STALL !!!\n");

				return SL811_HANDSHAKE_STALL;
			}
			// USBデバイスからACKが返ってくれば、ループを抜ける
			if( pktstatus & SL811H_STATUSMASK_ACK )	break;
     378:	80 91 39 01 	lds	r24, 0x0139
     37c:	80 fd       	sbrc	r24, 0
     37e:	09 c0       	rjmp	.+18     	; 0x392 <SL811WriteData+0x1ba>
    milliseconds can be achieved.
 */
void
_delay_loop_2(uint16_t __count)
{
	__asm__ volatile (
     380:	c2 01       	movw	r24, r4
     382:	01 97       	sbiw	r24, 0x01	; 1
     384:	f1 f7       	brne	.-4      	; 0x382 <SL811WriteData+0x1aa>
		
		// 送信データの大きさをセット
		sl811_write(SL811H_HOSTBASELNG_A, wsiz);

		// USBデバイスがNAKの場合、再度USBデータ送信をする
		for( timeovr=0; timeovr<retry; timeovr++ )
     386:	2f 5f       	subi	r18, 0xFF	; 255
     388:	3f 4f       	sbci	r19, 0xFF	; 255
     38a:	26 15       	cp	r18, r6
     38c:	37 05       	cpc	r19, r7
     38e:	0c f4       	brge	.+2      	; 0x392 <SL811WriteData+0x1ba>
     390:	b2 cf       	rjmp	.-156    	; 0x2f6 <SL811WriteData+0x11e>
			// リトライの場合は5ms待つ
			_delay_ms(5);			
		}

		// USBデータ送信の結果がリトライをしてもACKでない場合は、エラー終了
		if( !(pktstatus & SL811H_STATUSMASK_ACK) )
     392:	80 91 39 01 	lds	r24, 0x0139
     396:	80 fd       	sbrc	r24, 0
     398:	03 c0       	rjmp	.+6      	; 0x3a0 <SL811WriteData+0x1c8>
     39a:	0f ef       	ldi	r16, 0xFF	; 255
     39c:	1f ef       	ldi	r17, 0xFF	; 255
     39e:	0a c0       	rjmp	.+20     	; 0x3b4 <SL811WriteData+0x1dc>

			return SL811_HANDSHAKE_NAK;
		}
		
		// 処理済みのデータ数を差し引く
		remain -= wsiz;
     3a0:	ec 18       	sub	r14, r12
     3a2:	fd 08       	sbc	r15, r13

		// データパケットのトグルを行う
		d->wr_cmd ^= TOGGLE;
     3a4:	8c 81       	ldd	r24, Y+4	; 0x04
     3a6:	90 e4       	ldi	r25, 0x40	; 64
     3a8:	89 27       	eor	r24, r25
     3aa:	8c 83       	std	Y+4, r24	; 0x04
	}while( remain>0 );	// 残りデータがある間、繰り返す
     3ac:	1e 14       	cp	r1, r14
     3ae:	1f 04       	cpc	r1, r15
     3b0:	0c f4       	brge	.+2      	; 0x3b4 <SL811WriteData+0x1dc>
     3b2:	77 cf       	rjmp	.-274    	; 0x2a2 <SL811WriteData+0xca>

	return size;	// USBデータ送信したサイズを返す
}
     3b4:	c8 01       	movw	r24, r16
     3b6:	df 91       	pop	r29
     3b8:	cf 91       	pop	r28
     3ba:	1f 91       	pop	r17
     3bc:	0f 91       	pop	r16
     3be:	ff 90       	pop	r15
     3c0:	ef 90       	pop	r14
     3c2:	df 90       	pop	r13
     3c4:	cf 90       	pop	r12
     3c6:	bf 90       	pop	r11
     3c8:	af 90       	pop	r10
     3ca:	9f 90       	pop	r9
     3cc:	8f 90       	pop	r8
     3ce:	7f 90       	pop	r7
     3d0:	6f 90       	pop	r6
     3d2:	5f 90       	pop	r5
     3d4:	4f 90       	pop	r4
     3d6:	3f 90       	pop	r3
     3d8:	2f 90       	pop	r2
     3da:	08 95       	ret

000003dc <SL811ReadData>:
/// <returns>
/// 正常終了時 : 受信したデータのサイズ
/// 不正終了時 : SL811_HANDSHAKE_NAK [-1] もしくは SL811_HANDSHAKE_STALL [-2]
/// </returns>
int SL811ReadData(SL811USBDevInfo *d, unsigned char *data, int size)
{
     3dc:	2f 92       	push	r2
     3de:	3f 92       	push	r3
     3e0:	4f 92       	push	r4
     3e2:	5f 92       	push	r5
     3e4:	6f 92       	push	r6
     3e6:	7f 92       	push	r7
     3e8:	8f 92       	push	r8
     3ea:	9f 92       	push	r9
     3ec:	af 92       	push	r10
     3ee:	bf 92       	push	r11
     3f0:	cf 92       	push	r12
     3f2:	df 92       	push	r13
     3f4:	ef 92       	push	r14
     3f6:	ff 92       	push	r15
     3f8:	0f 93       	push	r16
     3fa:	1f 93       	push	r17
     3fc:	cf 93       	push	r28
     3fe:	df 93       	push	r29
     400:	8c 01       	movw	r16, r24
     402:	2b 01       	movw	r4, r22
     404:	4a 01       	movw	r8, r20
	
	// 未処理のデータ数
	remain = size;

	// USBデバイスがNAKのときのリトライ回数
	maxretry = d->retry;
     406:	fc 01       	movw	r30, r24
     408:	83 81       	ldd	r24, Z+3	; 0x03
     40a:	28 2e       	mov	r2, r24
     40c:	33 24       	eor	r3, r3

	// 短い待ち時間でのリトライ回数
	minretry = (maxretry <= 7) ? maxretry : maxretry / 3;

	d->rd_cmd |= d->pre;
     40e:	85 81       	ldd	r24, Z+5	; 0x05
     410:	96 81       	ldd	r25, Z+6	; 0x06
     412:	89 2b       	or	r24, r25
     414:	85 83       	std	Z+5, r24	; 0x05

	// 対象となるUSBデバイスアドレスの指定
	sl811_write(SL811H_HOSTDEVADDR_B, d->addr);
     416:	90 81       	ld	r25, Z
/// <summary>
/// SL811HST専用レジスタへの書き込み
/// </summary>
void sl811_write(const unsigned char offset, const unsigned char data)
{
	*(__sl811_addr) = offset;
     418:	e0 91 c4 02 	lds	r30, 0x02C4
     41c:	f0 91 c5 02 	lds	r31, 0x02C5
     420:	8c e0       	ldi	r24, 0x0C	; 12
     422:	80 83       	st	Z, r24
    can be achieved.
*/
void
_delay_loop_1(uint8_t __count)
{
	__asm__ volatile (
     424:	22 e3       	ldi	r18, 0x32	; 50
     426:	82 2f       	mov	r24, r18
     428:	8a 95       	dec	r24
     42a:	f1 f7       	brne	.-4      	; 0x428 <SL811ReadData+0x4c>
	DELAY;
	*(__sl811_data) = data;
     42c:	e0 91 d6 02 	lds	r30, 0x02D6
     430:	f0 91 d7 02 	lds	r31, 0x02D7
     434:	90 83       	st	Z, r25
     436:	82 2f       	mov	r24, r18
     438:	8a 95       	dec	r24
     43a:	f1 f7       	brne	.-4      	; 0x438 <SL811ReadData+0x5c>

	// 対象となるUSBデバイスアドレスの指定
	sl811_write(SL811H_HOSTDEVADDR_B, d->addr);

	// パケット種別(IN)とエンドポイント番号の指定
	sl811_write(SL811H_PIDDEVENDPT_B, PID_IN | d->ep);
     43c:	f8 01       	movw	r30, r16
     43e:	91 81       	ldd	r25, Z+1	; 0x01
     440:	90 69       	ori	r25, 0x90	; 144
/// <summary>
/// SL811HST専用レジスタへの書き込み
/// </summary>
void sl811_write(const unsigned char offset, const unsigned char data)
{
	*(__sl811_addr) = offset;
     442:	e0 91 c4 02 	lds	r30, 0x02C4
     446:	f0 91 c5 02 	lds	r31, 0x02C5
     44a:	8b e0       	ldi	r24, 0x0B	; 11
     44c:	80 83       	st	Z, r24
     44e:	82 2f       	mov	r24, r18
     450:	8a 95       	dec	r24
     452:	f1 f7       	brne	.-4      	; 0x450 <SL811ReadData+0x74>
	DELAY;
	*(__sl811_data) = data;
     454:	e0 91 d6 02 	lds	r30, 0x02D6
     458:	f0 91 d7 02 	lds	r31, 0x02D7
     45c:	90 83       	st	Z, r25
     45e:	2a 95       	dec	r18
     460:	f1 f7       	brne	.-4      	; 0x45e <SL811ReadData+0x82>
     462:	7a 01       	movw	r14, r20
     464:	70 e1       	ldi	r23, 0x10	; 16
     466:	a7 2e       	mov	r10, r23
     468:	b1 2c       	mov	r11, r1
	// パケット種別(IN)とエンドポイント番号の指定
	sl811_write(SL811H_PIDDEVENDPT_B, PID_IN | d->ep);

	do{
		// 1つのパケットで送信するデータ数を算出
		rsiz = (remain > d->epsize) ? d->epsize : remain;
     46a:	62 e3       	ldi	r22, 0x32	; 50
     46c:	76 2e       	mov	r7, r22
     46e:	52 e3       	ldi	r21, 0x32	; 50
     470:	65 2e       	mov	r6, r21
     472:	f8 01       	movw	r30, r16
     474:	82 81       	ldd	r24, Z+2	; 0x02
     476:	90 e0       	ldi	r25, 0x00	; 0
     478:	67 01       	movw	r12, r14
     47a:	8e 15       	cp	r24, r14
     47c:	9f 05       	cpc	r25, r15
     47e:	0c f4       	brge	.+2      	; 0x482 <SL811ReadData+0xa6>
     480:	6c 01       	movw	r12, r24

		// 現在のUSB FIFOメモリバッファがSL811H_MEMBUF_END(FFH)を超える場合、初期値設定
		if( (fifo + rsiz) > SL811H_MEMBUF_END )
     482:	c6 01       	movw	r24, r12
     484:	8a 0d       	add	r24, r10
     486:	9b 1d       	adc	r25, r11
     488:	8f 3f       	cpi	r24, 0xFF	; 255
     48a:	91 05       	cpc	r25, r1
     48c:	21 f0       	breq	.+8      	; 0x496 <SL811ReadData+0xba>
     48e:	1c f0       	brlt	.+6      	; 0x496 <SL811ReadData+0xba>
     490:	40 e1       	ldi	r20, 0x10	; 16
     492:	a4 2e       	mov	r10, r20
     494:	b1 2c       	mov	r11, r1
			fifo = SL811H_MEMBUF_BGN;	

		// 現在のUSB FIFOメモリバッファの先頭アドレスの指定
		sl811_write(SL811H_HOSTBASEADDR_B, fifo);
     496:	4a 2d       	mov	r20, r10
/// <summary>
/// SL811HST専用レジスタへの書き込み
/// </summary>
void sl811_write(const unsigned char offset, const unsigned char data)
{
	*(__sl811_addr) = offset;
     498:	e0 91 c4 02 	lds	r30, 0x02C4
     49c:	f0 91 c5 02 	lds	r31, 0x02C5
     4a0:	89 e0       	ldi	r24, 0x09	; 9
     4a2:	80 83       	st	Z, r24
     4a4:	87 2d       	mov	r24, r7
     4a6:	8a 95       	dec	r24
     4a8:	f1 f7       	brne	.-4      	; 0x4a6 <SL811ReadData+0xca>
	DELAY;
	*(__sl811_data) = data;
     4aa:	e0 91 d6 02 	lds	r30, 0x02D6
     4ae:	f0 91 d7 02 	lds	r31, 0x02D7
     4b2:	a0 82       	st	Z, r10
     4b4:	87 2d       	mov	r24, r7
     4b6:	8a 95       	dec	r24
     4b8:	f1 f7       	brne	.-4      	; 0x4b6 <SL811ReadData+0xda>
/// <summary>
/// SL811HST専用レジスタへの書き込み
/// </summary>
void sl811_write(const unsigned char offset, const unsigned char data)
{
	*(__sl811_addr) = offset;
     4ba:	e0 91 c4 02 	lds	r30, 0x02C4
     4be:	f0 91 c5 02 	lds	r31, 0x02C5
     4c2:	9a e0       	ldi	r25, 0x0A	; 10
     4c4:	90 83       	st	Z, r25
     4c6:	87 2d       	mov	r24, r7
     4c8:	8a 95       	dec	r24
     4ca:	f1 f7       	brne	.-4      	; 0x4c8 <SL811ReadData+0xec>
	DELAY;
	*(__sl811_data) = data;
     4cc:	e0 91 d6 02 	lds	r30, 0x02D6
     4d0:	f0 91 d7 02 	lds	r31, 0x02D7
     4d4:	c0 82       	st	Z, r12
     4d6:	87 2d       	mov	r24, r7
     4d8:	8a 95       	dec	r24
     4da:	f1 f7       	brne	.-4      	; 0x4d8 <SL811ReadData+0xfc>
     4dc:	20 e0       	ldi	r18, 0x00	; 0
     4de:	30 e0       	ldi	r19, 0x00	; 0
     4e0:	44 c0       	rjmp	.+136    	; 0x56a <SL811ReadData+0x18e>
		// USBデバイスがNAKの場合、再度USBデータ受信をする
		for( timeovr=0; timeovr<maxretry; timeovr++ )
		{

			// USB_BよりUSB FIFOメモリバッファへ内容を受信する
			sl811_write(SL811H_HOSTCTLREG_B, d->rd_cmd);
     4e2:	f8 01       	movw	r30, r16
     4e4:	85 81       	ldd	r24, Z+5	; 0x05
/// <summary>
/// SL811HST専用レジスタへの書き込み
/// </summary>
void sl811_write(const unsigned char offset, const unsigned char data)
{
	*(__sl811_addr) = offset;
     4e6:	e0 91 c4 02 	lds	r30, 0x02C4
     4ea:	f0 91 c5 02 	lds	r31, 0x02C5
     4ee:	98 e0       	ldi	r25, 0x08	; 8
     4f0:	90 83       	st	Z, r25
     4f2:	97 2d       	mov	r25, r7
     4f4:	9a 95       	dec	r25
     4f6:	f1 f7       	brne	.-4      	; 0x4f4 <SL811ReadData+0x118>
	DELAY;
	*(__sl811_data) = data;
     4f8:	e0 91 d6 02 	lds	r30, 0x02D6
     4fc:	f0 91 d7 02 	lds	r31, 0x02D7
     500:	80 83       	st	Z, r24
     502:	87 2d       	mov	r24, r7
     504:	8a 95       	dec	r24
     506:	f1 f7       	brne	.-4      	; 0x504 <SL811ReadData+0x128>
    milliseconds can be achieved.
 */
void
_delay_loop_2(uint16_t __count)
{
	__asm__ volatile (
     508:	84 ef       	ldi	r24, 0xF4	; 244
     50a:	91 e0       	ldi	r25, 0x01	; 1
     50c:	01 97       	sbiw	r24, 0x01	; 1
     50e:	f1 f7       	brne	.-4      	; 0x50c <SL811ReadData+0x130>
/// </summary>
unsigned char sl811_read(const unsigned char offset)
{
	unsigned char data;

	*(__sl811_addr) = offset;
     510:	e0 91 c4 02 	lds	r30, 0x02C4
     514:	f0 91 c5 02 	lds	r31, 0x02C5
     518:	8d e0       	ldi	r24, 0x0D	; 13
     51a:	80 83       	st	Z, r24
    can be achieved.
*/
void
_delay_loop_1(uint8_t __count)
{
	__asm__ volatile (
     51c:	87 2d       	mov	r24, r7
     51e:	8a 95       	dec	r24
     520:	f1 f7       	brne	.-4      	; 0x51e <SL811ReadData+0x142>
	DELAY;
	data = *(__sl811_data);
     522:	e0 91 d6 02 	lds	r30, 0x02D6
     526:	f0 91 d7 02 	lds	r31, 0x02D7
     52a:	80 81       	ld	r24, Z
     52c:	97 2d       	mov	r25, r7
     52e:	9a 95       	dec	r25
     530:	f1 f7       	brne	.-4      	; 0x52e <SL811ReadData+0x152>

			// 200us または 2ms の時間待ち
			_delay_ms(2);

			// USB_Bの受信が完了するまで待つ
			while( (sl811_read(SL811H_INTSTATUSREG) & SL811H_INTMASK_XFERDONE_B) == 0 );
     532:	81 ff       	sbrs	r24, 1
     534:	ed cf       	rjmp	.-38     	; 0x510 <SL811ReadData+0x134>
/// </summary>
unsigned char sl811_read(const unsigned char offset)
{
	unsigned char data;

	*(__sl811_addr) = offset;
     536:	e0 91 c4 02 	lds	r30, 0x02C4
     53a:	f0 91 c5 02 	lds	r31, 0x02C5
     53e:	9b e0       	ldi	r25, 0x0B	; 11
     540:	90 83       	st	Z, r25
     542:	82 e3       	ldi	r24, 0x32	; 50
     544:	8a 95       	dec	r24
     546:	f1 f7       	brne	.-4      	; 0x544 <SL811ReadData+0x168>
	DELAY;
	data = *(__sl811_data);
     548:	e0 91 d6 02 	lds	r30, 0x02D6
     54c:	f0 91 d7 02 	lds	r31, 0x02D7
     550:	e0 81       	ld	r30, Z
     552:	82 e3       	ldi	r24, 0x32	; 50
     554:	8a 95       	dec	r24
     556:	f1 f7       	brne	.-4      	; 0x554 <SL811ReadData+0x178>
			
			// USB_Bのパケット受信状態を読み込む
			pktstatus = sl811_read(SL811H_USBSTATUS_B);

			// USBデバイスがSTALLの場合はエラー終了
			if( pktstatus & SL811H_STATUSMASK_STALL )
     558:	e7 ff       	sbrs	r30, 7
     55a:	03 c0       	rjmp	.+6      	; 0x562 <SL811ReadData+0x186>
     55c:	4e ef       	ldi	r20, 0xFE	; 254
     55e:	5f ef       	ldi	r21, 0xFF	; 255
     560:	42 c0       	rjmp	.+132    	; 0x5e6 <SL811ReadData+0x20a>
//**/				DBG("!!! READ STALL !!!\n");

				return SL811_HANDSHAKE_STALL;
			}
			// USBデバイスからACKが返ってくれば、ループを抜ける
			if( pktstatus & SL811H_STATUSMASK_ACK )	break;
     562:	e0 fd       	sbrc	r30, 0
     564:	09 c0       	rjmp	.+18     	; 0x578 <SL811ReadData+0x19c>
		
		// 受信データの大きさをセット
		sl811_write(SL811H_HOSTBASELNG_B, rsiz);

		// USBデバイスがNAKの場合、再度USBデータ受信をする
		for( timeovr=0; timeovr<maxretry; timeovr++ )
     566:	2f 5f       	subi	r18, 0xFF	; 255
     568:	3f 4f       	sbci	r19, 0xFF	; 255
     56a:	22 15       	cp	r18, r2
     56c:	33 05       	cpc	r19, r3
     56e:	0c f4       	brge	.+2      	; 0x572 <SL811ReadData+0x196>
     570:	b8 cf       	rjmp	.-144    	; 0x4e2 <SL811ReadData+0x106>
     572:	4f ef       	ldi	r20, 0xFF	; 255
     574:	5f ef       	ldi	r21, 0xFF	; 255
     576:	37 c0       	rjmp	.+110    	; 0x5e6 <SL811ReadData+0x20a>
/// </summary>
unsigned char sl811_read(const unsigned char offset)
{
	unsigned char data;

	*(__sl811_addr) = offset;
     578:	e0 91 c4 02 	lds	r30, 0x02C4
     57c:	f0 91 c5 02 	lds	r31, 0x02C5
     580:	8c e0       	ldi	r24, 0x0C	; 12
     582:	80 83       	st	Z, r24
     584:	86 2d       	mov	r24, r6
     586:	8a 95       	dec	r24
     588:	f1 f7       	brne	.-4      	; 0x586 <SL811ReadData+0x1aa>
	DELAY;
	data = *(__sl811_data);
     58a:	e0 91 d6 02 	lds	r30, 0x02D6
     58e:	f0 91 d7 02 	lds	r31, 0x02D7
     592:	80 81       	ld	r24, Z
     594:	96 2d       	mov	r25, r6
     596:	9a 95       	dec	r25
     598:	f1 f7       	brne	.-4      	; 0x596 <SL811ReadData+0x1ba>

			return SL811_HANDSHAKE_NAK;
		}

		// 実際に受信をしたデータ数を算出
		rcnt = rsiz - (int)sl811_read(SL811H_TRANSFERCNT);
     59a:	e6 01       	movw	r28, r12
     59c:	c8 1b       	sub	r28, r24
     59e:	d1 09       	sbc	r29, r1

		// 受信データがある場合は、USB FIFOメモリバッファから転送する
		if( (pktstatus & SL811H_STATUSMASK_ACK) && data != 0 && size > 0 )
     5a0:	41 14       	cp	r4, r1
     5a2:	51 04       	cpc	r5, r1
     5a4:	61 f0       	breq	.+24     	; 0x5be <SL811ReadData+0x1e2>
     5a6:	18 14       	cp	r1, r8
     5a8:	19 04       	cpc	r1, r9
     5aa:	4c f4       	brge	.+18     	; 0x5be <SL811ReadData+0x1e2>
			sl811_buf_read(fifo, &data[size - remain], rsiz);
     5ac:	b4 01       	movw	r22, r8
     5ae:	6e 19       	sub	r22, r14
     5b0:	7f 09       	sbc	r23, r15
     5b2:	64 0d       	add	r22, r4
     5b4:	75 1d       	adc	r23, r5
     5b6:	84 2f       	mov	r24, r20
     5b8:	a6 01       	movw	r20, r12
     5ba:	0e 94 b0 00 	call	0x160	; 0x160 <sl811_buf_read>

		// 処理済みのデータ数を差し引く
		remain -= rcnt;
     5be:	ec 1a       	sub	r14, r28
     5c0:	fd 0a       	sbc	r15, r29

		// データパケットのトグルを行う
		d->rd_cmd ^= TOGGLE;
     5c2:	f8 01       	movw	r30, r16
     5c4:	85 81       	ldd	r24, Z+5	; 0x05
     5c6:	f0 e4       	ldi	r31, 0x40	; 64
     5c8:	8f 27       	eor	r24, r31
     5ca:	f8 01       	movw	r30, r16
     5cc:	85 83       	std	Z+5, r24	; 0x05

		// 現在のUSB FIFOメモリバッファの先頭アドレスの更新
		fifo += rcnt;
	}while( remain > 0 && rcnt == rsiz );	// 残りデータがある間、繰り返す
     5ce:	1e 14       	cp	r1, r14
     5d0:	1f 04       	cpc	r1, r15
     5d2:	34 f4       	brge	.+12     	; 0x5e0 <SL811ReadData+0x204>
     5d4:	cc 15       	cp	r28, r12
     5d6:	dd 05       	cpc	r29, r13
     5d8:	19 f4       	brne	.+6      	; 0x5e0 <SL811ReadData+0x204>

		// データパケットのトグルを行う
		d->rd_cmd ^= TOGGLE;

		// 現在のUSB FIFOメモリバッファの先頭アドレスの更新
		fifo += rcnt;
     5da:	ac 0e       	add	r10, r28
     5dc:	bd 1e       	adc	r11, r29
     5de:	49 cf       	rjmp	.-366    	; 0x472 <SL811ReadData+0x96>
	}while( remain > 0 && rcnt == rsiz );	// 残りデータがある間、繰り返す

	return size - remain;	// USBデータ受信したサイズを返す
     5e0:	a4 01       	movw	r20, r8
     5e2:	4e 19       	sub	r20, r14
     5e4:	5f 09       	sbc	r21, r15
}
     5e6:	ca 01       	movw	r24, r20
     5e8:	df 91       	pop	r29
     5ea:	cf 91       	pop	r28
     5ec:	1f 91       	pop	r17
     5ee:	0f 91       	pop	r16
     5f0:	ff 90       	pop	r15
     5f2:	ef 90       	pop	r14
     5f4:	df 90       	pop	r13
     5f6:	cf 90       	pop	r12
     5f8:	bf 90       	pop	r11
     5fa:	af 90       	pop	r10
     5fc:	9f 90       	pop	r9
     5fe:	8f 90       	pop	r8
     600:	7f 90       	pop	r7
     602:	6f 90       	pop	r6
     604:	5f 90       	pop	r5
     606:	4f 90       	pop	r4
     608:	3f 90       	pop	r3
     60a:	2f 90       	pop	r2
     60c:	08 95       	ret

0000060e <SL811USBReset>:
    milliseconds can be achieved.
 */
void
_delay_loop_2(uint16_t __count)
{
	__asm__ volatile (
     60e:	88 ea       	ldi	r24, 0xA8	; 168
     610:	91 e6       	ldi	r25, 0x61	; 97
     612:	01 97       	sbiw	r24, 0x01	; 1
     614:	f1 f7       	brne	.-4      	; 0x612 <SL811USBReset+0x4>
/// <summary>
/// SL811HST専用レジスタへの書き込み
/// </summary>
void sl811_write(const unsigned char offset, const unsigned char data)
{
	*(__sl811_addr) = offset;
     616:	e0 91 c4 02 	lds	r30, 0x02C4
     61a:	f0 91 c5 02 	lds	r31, 0x02C5
     61e:	8f e0       	ldi	r24, 0x0F	; 15
     620:	80 83       	st	Z, r24
    can be achieved.
*/
void
_delay_loop_1(uint8_t __count)
{
	__asm__ volatile (
     622:	92 e3       	ldi	r25, 0x32	; 50
     624:	89 2f       	mov	r24, r25
     626:	8a 95       	dec	r24
     628:	f1 f7       	brne	.-4      	; 0x626 <SL811USBReset+0x18>
	DELAY;
	*(__sl811_data) = data;
     62a:	e0 91 d6 02 	lds	r30, 0x02D6
     62e:	f0 91 d7 02 	lds	r31, 0x02D7
     632:	80 e8       	ldi	r24, 0x80	; 128
     634:	80 83       	st	Z, r24
     636:	89 2f       	mov	r24, r25
     638:	8a 95       	dec	r24
     63a:	f1 f7       	brne	.-4      	; 0x638 <SL811USBReset+0x2a>
/// <summary>
/// SL811HST専用レジスタへの書き込み
/// </summary>
void sl811_write(const unsigned char offset, const unsigned char data)
{
	*(__sl811_addr) = offset;
     63c:	e0 91 c4 02 	lds	r30, 0x02C4
     640:	f0 91 c5 02 	lds	r31, 0x02C5
     644:	25 e0       	ldi	r18, 0x05	; 5
     646:	20 83       	st	Z, r18
     648:	89 2f       	mov	r24, r25
     64a:	8a 95       	dec	r24
     64c:	f1 f7       	brne	.-4      	; 0x64a <SL811USBReset+0x3c>
	DELAY;
	*(__sl811_data) = data;
     64e:	e0 91 d6 02 	lds	r30, 0x02D6
     652:	f0 91 d7 02 	lds	r31, 0x02D7
     656:	88 e0       	ldi	r24, 0x08	; 8
     658:	80 83       	st	Z, r24
     65a:	89 2f       	mov	r24, r25
     65c:	8a 95       	dec	r24
     65e:	f1 f7       	brne	.-4      	; 0x65c <SL811USBReset+0x4e>
    milliseconds can be achieved.
 */
void
_delay_loop_2(uint16_t __count)
{
	__asm__ volatile (
     660:	ec e4       	ldi	r30, 0x4C	; 76
     662:	fd e1       	ldi	r31, 0x1D	; 29
     664:	31 97       	sbiw	r30, 0x01	; 1
     666:	f1 f7       	brne	.-4      	; 0x664 <SL811USBReset+0x56>
/// <summary>
/// SL811HST専用レジスタへの書き込み
/// </summary>
void sl811_write(const unsigned char offset, const unsigned char data)
{
	*(__sl811_addr) = offset;
     668:	e0 91 c4 02 	lds	r30, 0x02C4
     66c:	f0 91 c5 02 	lds	r31, 0x02C5
     670:	20 83       	st	Z, r18
    can be achieved.
*/
void
_delay_loop_1(uint8_t __count)
{
	__asm__ volatile (
     672:	89 2f       	mov	r24, r25
     674:	8a 95       	dec	r24
     676:	f1 f7       	brne	.-4      	; 0x674 <SL811USBReset+0x66>
	DELAY;
	*(__sl811_data) = data;
     678:	e0 91 d6 02 	lds	r30, 0x02D6
     67c:	f0 91 d7 02 	lds	r31, 0x02D7
     680:	10 82       	st	Z, r1
     682:	9a 95       	dec	r25
     684:	f1 f7       	brne	.-4      	; 0x682 <SL811USBReset+0x74>
     686:	90 e0       	ldi	r25, 0x00	; 0
/// <summary>
/// SL811HST専用レジスタへの書き込み
/// </summary>
void sl811_write(const unsigned char offset, const unsigned char data)
{
	*(__sl811_addr) = offset;
     688:	5d e0       	ldi	r21, 0x0D	; 13
     68a:	32 e3       	ldi	r19, 0x32	; 50
	DELAY;
	*(__sl811_data) = data;
     68c:	4f ef       	ldi	r20, 0xFF	; 255
/// <summary>
/// SL811HST専用レジスタへの書き込み
/// </summary>
void sl811_write(const unsigned char offset, const unsigned char data)
{
	*(__sl811_addr) = offset;
     68e:	e0 91 c4 02 	lds	r30, 0x02C4
     692:	f0 91 c5 02 	lds	r31, 0x02C5
     696:	6d e0       	ldi	r22, 0x0D	; 13
     698:	50 83       	st	Z, r21
     69a:	22 e3       	ldi	r18, 0x32	; 50
     69c:	83 2f       	mov	r24, r19
     69e:	8a 95       	dec	r24
     6a0:	f1 f7       	brne	.-4      	; 0x69e <SL811USBReset+0x90>
	DELAY;
	*(__sl811_data) = data;
     6a2:	e0 91 d6 02 	lds	r30, 0x02D6
     6a6:	f0 91 d7 02 	lds	r31, 0x02D7
     6aa:	40 83       	st	Z, r20
     6ac:	83 2f       	mov	r24, r19
     6ae:	8a 95       	dec	r24
     6b0:	f1 f7       	brne	.-4      	; 0x6ae <SL811USBReset+0xa0>

	sl811_write(SL811H_CTLREG1, SL811H_CTLREG1VAL_RESET);	// reset USB
	_delay_ms(30);
	sl811_write(SL811H_CTLREG1, 0x00);						// remove SE0

	for(status=0; status<100; status++)
     6b2:	9f 5f       	subi	r25, 0xFF	; 255
     6b4:	94 36       	cpi	r25, 0x64	; 100
     6b6:	59 f7       	brne	.-42     	; 0x68e <SL811USBReset+0x80>
/// </summary>
unsigned char sl811_read(const unsigned char offset)
{
	unsigned char data;

	*(__sl811_addr) = offset;
     6b8:	e0 91 c4 02 	lds	r30, 0x02C4
     6bc:	f0 91 c5 02 	lds	r31, 0x02C5
     6c0:	60 83       	st	Z, r22
     6c2:	82 2f       	mov	r24, r18
     6c4:	8a 95       	dec	r24
     6c6:	f1 f7       	brne	.-4      	; 0x6c4 <SL811USBReset+0xb6>
	DELAY;
	data = *(__sl811_data);
     6c8:	e0 91 d6 02 	lds	r30, 0x02D6
     6cc:	f0 91 d7 02 	lds	r31, 0x02D7
     6d0:	e0 81       	ld	r30, Z
     6d2:	82 2f       	mov	r24, r18
     6d4:	8a 95       	dec	r24
     6d6:	f1 f7       	brne	.-4      	; 0x6d4 <SL811USBReset+0xc6>
		sl811_write(SL811H_INTSTATUSREG, 0xFF);				// clear all interrupt bits

	// Full/Low Speed Detection
	status = sl811_read(SL811H_INTSTATUSREG);
	
	if( status & SL811H_INTMASK_NODEVICE )
     6d8:	e6 ff       	sbrs	r30, 6
     6da:	15 c0       	rjmp	.+42     	; 0x706 <SL811USBReset+0xf8>
/// <summary>
/// SL811HST専用レジスタへの書き込み
/// </summary>
void sl811_write(const unsigned char offset, const unsigned char data)
{
	*(__sl811_addr) = offset;
     6dc:	e0 91 c4 02 	lds	r30, 0x02C4
     6e0:	f0 91 c5 02 	lds	r31, 0x02C5
     6e4:	86 e0       	ldi	r24, 0x06	; 6
     6e6:	80 83       	st	Z, r24
     6e8:	82 2f       	mov	r24, r18
     6ea:	8a 95       	dec	r24
     6ec:	f1 f7       	brne	.-4      	; 0x6ea <SL811USBReset+0xdc>
	DELAY;
	*(__sl811_data) = data;
     6ee:	e0 91 d6 02 	lds	r30, 0x02D6
     6f2:	f0 91 d7 02 	lds	r31, 0x02D7
     6f6:	80 e1       	ldi	r24, 0x10	; 16
     6f8:	80 83       	st	Z, r24
     6fa:	82 2f       	mov	r24, r18
     6fc:	8a 95       	dec	r24
     6fe:	f1 f7       	brne	.-4      	; 0x6fc <SL811USBReset+0xee>
     700:	20 e0       	ldi	r18, 0x00	; 0
     702:	30 e0       	ldi	r19, 0x00	; 0
     704:	a9 c0       	rjmp	.+338    	; 0x858 <SL811USBReset+0x24a>
     706:	a0 91 c4 02 	lds	r26, 0x02C4
     70a:	b0 91 c5 02 	lds	r27, 0x02C5
			SL811H_INTMASK_SOFINTR 		// Interrupt on SOF Timer
		);
		return SL811_USB_NONE;
	}

	if( status & SL811H_INTMASK_DATAPLUS )
     70e:	e7 ff       	sbrs	r30, 7
     710:	46 c0       	rjmp	.+140    	; 0x79e <SL811USBReset+0x190>
/// <summary>
/// SL811HST専用レジスタへの書き込み
/// </summary>
void sl811_write(const unsigned char offset, const unsigned char data)
{
	*(__sl811_addr) = offset;
     712:	8e e0       	ldi	r24, 0x0E	; 14
     714:	8c 93       	st	X, r24
     716:	82 2f       	mov	r24, r18
     718:	8a 95       	dec	r24
     71a:	f1 f7       	brne	.-4      	; 0x718 <SL811USBReset+0x10a>
	DELAY;
	*(__sl811_data) = data;
     71c:	e0 91 d6 02 	lds	r30, 0x02D6
     720:	f0 91 d7 02 	lds	r31, 0x02D7
     724:	80 ee       	ldi	r24, 0xE0	; 224
     726:	80 83       	st	Z, r24
     728:	82 2f       	mov	r24, r18
     72a:	8a 95       	dec	r24
     72c:	f1 f7       	brne	.-4      	; 0x72a <SL811USBReset+0x11c>
/// <summary>
/// SL811HST専用レジスタへの書き込み
/// </summary>
void sl811_write(const unsigned char offset, const unsigned char data)
{
	*(__sl811_addr) = offset;
     72e:	e0 91 c4 02 	lds	r30, 0x02C4
     732:	f0 91 c5 02 	lds	r31, 0x02C5
     736:	8f e0       	ldi	r24, 0x0F	; 15
     738:	80 83       	st	Z, r24
     73a:	82 2f       	mov	r24, r18
     73c:	8a 95       	dec	r24
     73e:	f1 f7       	brne	.-4      	; 0x73c <SL811USBReset+0x12e>
	DELAY;
	*(__sl811_data) = data;
     740:	e0 91 d6 02 	lds	r30, 0x02D6
     744:	f0 91 d7 02 	lds	r31, 0x02D7
     748:	8e ea       	ldi	r24, 0xAE	; 174
     74a:	80 83       	st	Z, r24
     74c:	82 2f       	mov	r24, r18
     74e:	8a 95       	dec	r24
     750:	f1 f7       	brne	.-4      	; 0x74e <SL811USBReset+0x140>
/// <summary>
/// SL811HST専用レジスタへの書き込み
/// </summary>
void sl811_write(const unsigned char offset, const unsigned char data)
{
	*(__sl811_addr) = offset;
     752:	e0 91 c4 02 	lds	r30, 0x02C4
     756:	f0 91 c5 02 	lds	r31, 0x02C5
     75a:	85 e0       	ldi	r24, 0x05	; 5
     75c:	80 83       	st	Z, r24
     75e:	82 2f       	mov	r24, r18
     760:	8a 95       	dec	r24
     762:	f1 f7       	brne	.-4      	; 0x760 <SL811USBReset+0x152>
	DELAY;
	*(__sl811_data) = data;
     764:	e0 91 d6 02 	lds	r30, 0x02D6
     768:	f0 91 d7 02 	lds	r31, 0x02D7
     76c:	81 e0       	ldi	r24, 0x01	; 1
     76e:	80 83       	st	Z, r24
     770:	82 2f       	mov	r24, r18
     772:	8a 95       	dec	r24
     774:	f1 f7       	brne	.-4      	; 0x772 <SL811USBReset+0x164>
/// <summary>
/// SL811HST専用レジスタへの書き込み
/// </summary>
void sl811_write(const unsigned char offset, const unsigned char data)
{
	*(__sl811_addr) = offset;
     776:	e0 91 c4 02 	lds	r30, 0x02C4
     77a:	f0 91 c5 02 	lds	r31, 0x02C5
     77e:	60 83       	st	Z, r22
     780:	82 2f       	mov	r24, r18
     782:	8a 95       	dec	r24
     784:	f1 f7       	brne	.-4      	; 0x782 <SL811USBReset+0x174>
	DELAY;
	*(__sl811_data) = data;
     786:	e0 91 d6 02 	lds	r30, 0x02D6
     78a:	f0 91 d7 02 	lds	r31, 0x02D7
     78e:	8f ef       	ldi	r24, 0xFF	; 255
     790:	80 83       	st	Z, r24
     792:	82 2f       	mov	r24, r18
     794:	8a 95       	dec	r24
     796:	f1 f7       	brne	.-4      	; 0x794 <SL811USBReset+0x186>
     798:	22 e0       	ldi	r18, 0x02	; 2
     79a:	30 e0       	ldi	r19, 0x00	; 0
     79c:	4b c0       	rjmp	.+150    	; 0x834 <SL811USBReset+0x226>
/// <summary>
/// SL811HST専用レジスタへの書き込み
/// </summary>
void sl811_write(const unsigned char offset, const unsigned char data)
{
	*(__sl811_addr) = offset;
     79e:	8e e0       	ldi	r24, 0x0E	; 14
     7a0:	8c 93       	st	X, r24
     7a2:	82 2f       	mov	r24, r18
     7a4:	8a 95       	dec	r24
     7a6:	f1 f7       	brne	.-4      	; 0x7a4 <SL811USBReset+0x196>
	DELAY;
	*(__sl811_data) = data;
     7a8:	e0 91 d6 02 	lds	r30, 0x02D6
     7ac:	f0 91 d7 02 	lds	r31, 0x02D7
     7b0:	80 ee       	ldi	r24, 0xE0	; 224
     7b2:	80 83       	st	Z, r24
     7b4:	82 2f       	mov	r24, r18
     7b6:	8a 95       	dec	r24
     7b8:	f1 f7       	brne	.-4      	; 0x7b6 <SL811USBReset+0x1a8>
/// <summary>
/// SL811HST専用レジスタへの書き込み
/// </summary>
void sl811_write(const unsigned char offset, const unsigned char data)
{
	*(__sl811_addr) = offset;
     7ba:	e0 91 c4 02 	lds	r30, 0x02C4
     7be:	f0 91 c5 02 	lds	r31, 0x02C5
     7c2:	8f e0       	ldi	r24, 0x0F	; 15
     7c4:	80 83       	st	Z, r24
     7c6:	82 2f       	mov	r24, r18
     7c8:	8a 95       	dec	r24
     7ca:	f1 f7       	brne	.-4      	; 0x7c8 <SL811USBReset+0x1ba>
	DELAY;
	*(__sl811_data) = data;
     7cc:	e0 91 d6 02 	lds	r30, 0x02D6
     7d0:	f0 91 d7 02 	lds	r31, 0x02D7
     7d4:	8e ee       	ldi	r24, 0xEE	; 238
     7d6:	80 83       	st	Z, r24
     7d8:	82 2f       	mov	r24, r18
     7da:	8a 95       	dec	r24
     7dc:	f1 f7       	brne	.-4      	; 0x7da <SL811USBReset+0x1cc>
/// <summary>
/// SL811HST専用レジスタへの書き込み
/// </summary>
void sl811_write(const unsigned char offset, const unsigned char data)
{
	*(__sl811_addr) = offset;
     7de:	e0 91 c4 02 	lds	r30, 0x02C4
     7e2:	f0 91 c5 02 	lds	r31, 0x02C5
     7e6:	85 e0       	ldi	r24, 0x05	; 5
     7e8:	80 83       	st	Z, r24
     7ea:	82 2f       	mov	r24, r18
     7ec:	8a 95       	dec	r24
     7ee:	f1 f7       	brne	.-4      	; 0x7ec <SL811USBReset+0x1de>
	DELAY;
	*(__sl811_data) = data;
     7f0:	e0 91 d6 02 	lds	r30, 0x02D6
     7f4:	f0 91 d7 02 	lds	r31, 0x02D7
     7f8:	81 e2       	ldi	r24, 0x21	; 33
     7fa:	80 83       	st	Z, r24
     7fc:	82 2f       	mov	r24, r18
     7fe:	8a 95       	dec	r24
     800:	f1 f7       	brne	.-4      	; 0x7fe <SL811USBReset+0x1f0>
     802:	90 e0       	ldi	r25, 0x00	; 0
/// <summary>
/// SL811HST専用レジスタへの書き込み
/// </summary>
void sl811_write(const unsigned char offset, const unsigned char data)
{
	*(__sl811_addr) = offset;
     804:	4d e0       	ldi	r20, 0x0D	; 13
     806:	22 e3       	ldi	r18, 0x32	; 50
	DELAY;
	*(__sl811_data) = data;
     808:	3f ef       	ldi	r19, 0xFF	; 255
/// <summary>
/// SL811HST専用レジスタへの書き込み
/// </summary>
void sl811_write(const unsigned char offset, const unsigned char data)
{
	*(__sl811_addr) = offset;
     80a:	e0 91 c4 02 	lds	r30, 0x02C4
     80e:	f0 91 c5 02 	lds	r31, 0x02C5
     812:	40 83       	st	Z, r20
     814:	82 2f       	mov	r24, r18
     816:	8a 95       	dec	r24
     818:	f1 f7       	brne	.-4      	; 0x816 <SL811USBReset+0x208>
	DELAY;
	*(__sl811_data) = data;
     81a:	e0 91 d6 02 	lds	r30, 0x02D6
     81e:	f0 91 d7 02 	lds	r31, 0x02D7
     822:	30 83       	st	Z, r19
     824:	82 2f       	mov	r24, r18
     826:	8a 95       	dec	r24
     828:	f1 f7       	brne	.-4      	; 0x826 <SL811USBReset+0x218>
		sl811_write(SL811H_SOFCNTLOW, 0xE0);	// 下位 E0
		sl811_write(SL811H_SOFCNTHIGH, SL811H_CTLREG2MASK_HOSTMODE | SL811H_CTLREG2MASK_DSWAP | 0x2E);	// SOF High 2E + HOSTMode + Data Priority Swap
		sl811_write(SL811H_CTLREG1, SL811H_CTLREG1MASK_ENABLESOF | SL811H_CTLREG1MASK_LOWSPEED);
		
		// clear all interrupt bits
		for(status=0; status<20; status++)
     82a:	9f 5f       	subi	r25, 0xFF	; 255
     82c:	94 31       	cpi	r25, 0x14	; 20
     82e:	69 f7       	brne	.-38     	; 0x80a <SL811USBReset+0x1fc>
     830:	21 e0       	ldi	r18, 0x01	; 1
     832:	30 e0       	ldi	r19, 0x00	; 0
/// <summary>
/// SL811HST専用レジスタへの書き込み
/// </summary>
void sl811_write(const unsigned char offset, const unsigned char data)
{
	*(__sl811_addr) = offset;
     834:	e0 91 c4 02 	lds	r30, 0x02C4
     838:	f0 91 c5 02 	lds	r31, 0x02C5
     83c:	86 e0       	ldi	r24, 0x06	; 6
     83e:	80 83       	st	Z, r24
     840:	92 e3       	ldi	r25, 0x32	; 50
     842:	89 2f       	mov	r24, r25
     844:	8a 95       	dec	r24
     846:	f1 f7       	brne	.-4      	; 0x844 <SL811USBReset+0x236>
	DELAY;
	*(__sl811_data) = data;
     848:	e0 91 d6 02 	lds	r30, 0x02D6
     84c:	f0 91 d7 02 	lds	r31, 0x02D7
     850:	80 e1       	ldi	r24, 0x10	; 16
     852:	80 83       	st	Z, r24
     854:	9a 95       	dec	r25
     856:	f1 f7       	brne	.-4      	; 0x854 <SL811USBReset+0x246>
	);
	
//**/	DBG("INTENBLREG-->0x%02X\n",sl811_read(SL811H_INTENBLREG));			// Device Insert/Remove Detection
	
	return ret;
}
     858:	c9 01       	movw	r24, r18
     85a:	08 95       	ret

0000085c <sl811_regtest>:
/// <returns>
/// 正常終了: 0
/// 異常終了: -1
/// </returns>
int sl811_regtest(void)
{
     85c:	20 ef       	ldi	r18, 0xF0	; 240
     85e:	30 e0       	ldi	r19, 0x00	; 0
     860:	42 e3       	ldi	r20, 0x32	; 50
     862:	82 2f       	mov	r24, r18
     864:	81 95       	neg	r24
/// <summary>
/// SL811HST専用レジスタへの書き込み
/// </summary>
void sl811_write(const unsigned char offset, const unsigned char data)
{
	*(__sl811_addr) = offset;
     866:	e0 91 c4 02 	lds	r30, 0x02C4
     86a:	f0 91 c5 02 	lds	r31, 0x02C5
     86e:	80 83       	st	Z, r24
     870:	94 2f       	mov	r25, r20
     872:	9a 95       	dec	r25
     874:	f1 f7       	brne	.-4      	; 0x872 <sl811_regtest+0x16>
	DELAY;
	*(__sl811_data) = data;
     876:	e0 91 d6 02 	lds	r30, 0x02D6
     87a:	f0 91 d7 02 	lds	r31, 0x02D7
     87e:	20 83       	st	Z, r18
     880:	94 2f       	mov	r25, r20
     882:	9a 95       	dec	r25
     884:	f1 f7       	brne	.-4      	; 0x882 <sl811_regtest+0x26>
/// </summary>
unsigned char sl811_read(const unsigned char offset)
{
	unsigned char data;

	*(__sl811_addr) = offset;
     886:	e0 91 c4 02 	lds	r30, 0x02C4
     88a:	f0 91 c5 02 	lds	r31, 0x02C5
     88e:	80 83       	st	Z, r24
     890:	84 2f       	mov	r24, r20
     892:	8a 95       	dec	r24
     894:	f1 f7       	brne	.-4      	; 0x892 <sl811_regtest+0x36>
	DELAY;
	data = *(__sl811_data);
     896:	e0 91 d6 02 	lds	r30, 0x02D6
     89a:	f0 91 d7 02 	lds	r31, 0x02D7
     89e:	80 81       	ld	r24, Z
     8a0:	94 2f       	mov	r25, r20
     8a2:	9a 95       	dec	r25
     8a4:	f1 f7       	brne	.-4      	; 0x8a2 <sl811_regtest+0x46>
	{
		sl811_write(i, 256-i);
//**/		DBG("%x\n",i);
		data = sl811_read(i);
//**/		DBG("%x\n",data);
		if( data != (256-i) )
     8a6:	90 e0       	ldi	r25, 0x00	; 0
     8a8:	82 17       	cp	r24, r18
     8aa:	93 07       	cpc	r25, r19
     8ac:	19 f0       	breq	.+6      	; 0x8b4 <sl811_regtest+0x58>
     8ae:	2f ef       	ldi	r18, 0xFF	; 255
     8b0:	3f ef       	ldi	r19, 0xFF	; 255
     8b2:	07 c0       	rjmp	.+14     	; 0x8c2 <sl811_regtest+0x66>
     8b4:	21 50       	subi	r18, 0x01	; 1
     8b6:	30 40       	sbci	r19, 0x00	; 0
/// </returns>
int sl811_regtest(void)
{
	int	i, data;

	for( i=SL811H_MEMBUF_BGN; i<SL811H_MEMBUF_END; i++ )
     8b8:	21 30       	cpi	r18, 0x01	; 1
     8ba:	31 05       	cpc	r19, r1
     8bc:	91 f6       	brne	.-92     	; 0x862 <sl811_regtest+0x6>
     8be:	20 e0       	ldi	r18, 0x00	; 0
     8c0:	30 e0       	ldi	r19, 0x00	; 0
			return -1;
		}
	}*/
	
	return 0;
}
     8c2:	c9 01       	movw	r24, r18
     8c4:	08 95       	ret

000008c6 <SL811USBInit>:
/// <summary>
/// SL811HSTの初期化
/// </summary>
void sl811_init(void)
{
	__sl811_addr = (volatile unsigned char *)0x8000;
     8c6:	80 e0       	ldi	r24, 0x00	; 0
     8c8:	90 e8       	ldi	r25, 0x80	; 128
     8ca:	90 93 c5 02 	sts	0x02C5, r25
     8ce:	80 93 c4 02 	sts	0x02C4, r24
	__sl811_data = (volatile unsigned char *)0xC000;
     8d2:	80 e0       	ldi	r24, 0x00	; 0
     8d4:	90 ec       	ldi	r25, 0xC0	; 192
     8d6:	90 93 d7 02 	sts	0x02D7, r25
     8da:	80 93 d6 02 	sts	0x02D6, r24
/// </returns>
int SL811USBInit(void)
{
	sl811_init();
	
	ms_tmr_cnt=0;
     8de:	10 92 3b 01 	sts	0x013B, r1
     8e2:	10 92 3a 01 	sts	0x013A, r1
	
	return sl811_regtest();
     8e6:	0e 94 2e 04 	call	0x85c	; 0x85c <sl811_regtest>
}
     8ea:	08 95       	ret

000008ec <USBInit>:
/// <summary>
/// USB Interrupt Transfer Manager Initialize
/// </summary>
void USBIntTxManagerInit(void)
{
	usbqueue = NULL;
     8ec:	10 92 bf 01 	sts	0x01BF, r1
     8f0:	10 92 be 01 	sts	0x01BE, r1
	usb_int_tx_enable = 1;
     8f4:	81 e0       	ldi	r24, 0x01	; 1
     8f6:	90 e0       	ldi	r25, 0x00	; 0
     8f8:	90 93 c1 01 	sts	0x01C1, r25
     8fc:	80 93 c0 01 	sts	0x01C0, r24
{
	int x;
	
	USBIntTxManagerInit();
	
	__usb_dev_mode = USB_NONE;
     900:	10 92 3d 01 	sts	0x013D, r1
     904:	10 92 3c 01 	sts	0x013C, r1
	
	x = SL811USBInit();
     908:	0e 94 63 04 	call	0x8c6	; 0x8c6 <SL811USBInit>
	
	return x;
}
     90c:	08 95       	ret

0000090e <USBIntTxManagerInit>:
/// <summary>
/// USB Interrupt Transfer Manager Initialize
/// </summary>
void USBIntTxManagerInit(void)
{
	usbqueue = NULL;
     90e:	10 92 bf 01 	sts	0x01BF, r1
     912:	10 92 be 01 	sts	0x01BE, r1
	usb_int_tx_enable = 1;
     916:	81 e0       	ldi	r24, 0x01	; 1
     918:	90 e0       	ldi	r25, 0x00	; 0
     91a:	90 93 c1 01 	sts	0x01C1, r25
     91e:	80 93 c0 01 	sts	0x01C0, r24
}
     922:	08 95       	ret

00000924 <SL811DeviceInit>:
/// <param name="epsize">エンドポイントのサイズ</param>
/// <param name="retry">リトライ回数</param>
/// <param name="pre">プリアンブルパケットの有無</param>
/// <param name="addr">デバイスのアドレス</param>
void SL811DeviceInit(SL811USBDevInfo *d, int ep, int epsize, int retry, int pre, int addr)
{
     924:	ef 92       	push	r14
     926:	0f 93       	push	r16
     928:	1f 93       	push	r17
     92a:	fc 01       	movw	r30, r24
	d->ep = ep;
     92c:	61 83       	std	Z+1, r22	; 0x01
	d->epsize = epsize;
     92e:	42 83       	std	Z+2, r20	; 0x02
	d->retry = retry;
     930:	23 83       	std	Z+3, r18	; 0x03
	d->pre = (pre) ? (PREAMBLE) : (0x00);
     932:	01 2b       	or	r16, r17
     934:	11 f4       	brne	.+4      	; 0x93a <SL811DeviceInit+0x16>
     936:	80 e0       	ldi	r24, 0x00	; 0
     938:	01 c0       	rjmp	.+2      	; 0x93c <SL811DeviceInit+0x18>
     93a:	80 e8       	ldi	r24, 0x80	; 128
     93c:	86 83       	std	Z+6, r24	; 0x06
	d->addr = addr;
     93e:	e0 82       	st	Z, r14
}
     940:	1f 91       	pop	r17
     942:	0f 91       	pop	r16
     944:	ef 90       	pop	r14
     946:	08 95       	ret

00000948 <SL811CtrlTransfer>:
/// <returns>
/// 正常終了時 : 送信／受信したデータのサイズ
/// 不正終了時 : SL811_HANDSHAKE_NAK [-1] もしくは SL811_HANDSHAKE_STALL [-2]
/// </returns>
int SL811CtrlTransfer(SL811USBDevInfo *d, CtrlReq *command, unsigned char *data)
{
     948:	cf 92       	push	r12
     94a:	df 92       	push	r13
     94c:	ef 92       	push	r14
     94e:	ff 92       	push	r15
     950:	0f 93       	push	r16
     952:	1f 93       	push	r17
     954:	cf 93       	push	r28
     956:	df 93       	push	r29
     958:	8c 01       	movw	r16, r24
     95a:	7b 01       	movw	r14, r22
     95c:	6a 01       	movw	r12, r20
	int size, ret, length;

	d->wr_cmd = DATA0_WR;
     95e:	87 e0       	ldi	r24, 0x07	; 7
     960:	f8 01       	movw	r30, r16
     962:	84 83       	std	Z+4, r24	; 0x04
	size = SL811WriteData(d, (unsigned char*)command, sizeof(CtrlReq), SL811WRITE_SETUP);	// SETUP
     964:	c8 01       	movw	r24, r16
     966:	48 e0       	ldi	r20, 0x08	; 8
     968:	50 e0       	ldi	r21, 0x00	; 0
     96a:	21 e0       	ldi	r18, 0x01	; 1
     96c:	30 e0       	ldi	r19, 0x00	; 0
     96e:	0e 94 ec 00 	call	0x1d8	; 0x1d8 <SL811WriteData>
     972:	ec 01       	movw	r28, r24

	if (size < 0)	return size;
     974:	97 fd       	sbrc	r25, 7
     976:	4b c0       	rjmp	.+150    	; 0xa0e <SL811CtrlTransfer+0xc6>
	
	length = command->wLength;
     978:	f7 01       	movw	r30, r14
     97a:	46 81       	ldd	r20, Z+6	; 0x06
     97c:	57 81       	ldd	r21, Z+7	; 0x07

	if( length != 0 && data != NULL ){
     97e:	41 15       	cp	r20, r1
     980:	51 05       	cpc	r21, r1
     982:	b1 f1       	breq	.+108    	; 0x9f0 <SL811CtrlTransfer+0xa8>
     984:	c1 14       	cp	r12, r1
     986:	d1 04       	cpc	r13, r1
     988:	99 f1       	breq	.+102    	; 0x9f0 <SL811CtrlTransfer+0xa8>
		if( command->bmRequestType & TRANS_TO_HOST ){
     98a:	80 81       	ld	r24, Z
     98c:	87 ff       	sbrs	r24, 7
     98e:	17 c0       	rjmp	.+46     	; 0x9be <SL811CtrlTransfer+0x76>
			// Read Control
			d->rd_cmd = DATA1_RD;
     990:	83 e4       	ldi	r24, 0x43	; 67
     992:	f8 01       	movw	r30, r16
     994:	85 83       	std	Z+5, r24	; 0x05
			size = SL811ReadData(d, data, length);			// IN(DATA)
     996:	c8 01       	movw	r24, r16
     998:	b6 01       	movw	r22, r12
     99a:	0e 94 ee 01 	call	0x3dc	; 0x3dc <SL811ReadData>
     99e:	ec 01       	movw	r28, r24
			if (size < 0)	return size;
     9a0:	97 fd       	sbrc	r25, 7
     9a2:	35 c0       	rjmp	.+106    	; 0xa0e <SL811CtrlTransfer+0xc6>
			ret = size;

			d->wr_cmd = DATA1_WR;
     9a4:	87 e4       	ldi	r24, 0x47	; 71
     9a6:	f8 01       	movw	r30, r16
     9a8:	84 83       	std	Z+4, r24	; 0x04
			size = SL811WriteData(d, NULL, 0, SL811WRITE_OUT);			// OUT(STATUS)
     9aa:	c8 01       	movw	r24, r16
     9ac:	60 e0       	ldi	r22, 0x00	; 0
     9ae:	70 e0       	ldi	r23, 0x00	; 0
     9b0:	40 e0       	ldi	r20, 0x00	; 0
     9b2:	50 e0       	ldi	r21, 0x00	; 0
     9b4:	20 e0       	ldi	r18, 0x00	; 0
     9b6:	30 e0       	ldi	r19, 0x00	; 0
     9b8:	0e 94 ec 00 	call	0x1d8	; 0x1d8 <SL811WriteData>
     9bc:	16 c0       	rjmp	.+44     	; 0x9ea <SL811CtrlTransfer+0xa2>
		}else{
			// Write Control
			d->wr_cmd = DATA1_WR;
     9be:	87 e4       	ldi	r24, 0x47	; 71
     9c0:	f8 01       	movw	r30, r16
     9c2:	84 83       	std	Z+4, r24	; 0x04
			size = SL811WriteData(d, data, length, SL811WRITE_OUT);		// OUT(DATA)
     9c4:	c8 01       	movw	r24, r16
     9c6:	b6 01       	movw	r22, r12
     9c8:	20 e0       	ldi	r18, 0x00	; 0
     9ca:	30 e0       	ldi	r19, 0x00	; 0
     9cc:	0e 94 ec 00 	call	0x1d8	; 0x1d8 <SL811WriteData>
     9d0:	ec 01       	movw	r28, r24
			if (size < 0)	return size;
     9d2:	97 fd       	sbrc	r25, 7
     9d4:	1c c0       	rjmp	.+56     	; 0xa0e <SL811CtrlTransfer+0xc6>
			ret = size;

			d->rd_cmd = DATA1_RD;
     9d6:	83 e4       	ldi	r24, 0x43	; 67
     9d8:	f8 01       	movw	r30, r16
     9da:	85 83       	std	Z+5, r24	; 0x05
			size = SL811ReadData(d, NULL, 0);				// IN(STATUS)
     9dc:	c8 01       	movw	r24, r16
     9de:	60 e0       	ldi	r22, 0x00	; 0
     9e0:	70 e0       	ldi	r23, 0x00	; 0
     9e2:	40 e0       	ldi	r20, 0x00	; 0
     9e4:	50 e0       	ldi	r21, 0x00	; 0
     9e6:	0e 94 ee 01 	call	0x3dc	; 0x3dc <SL811ReadData>
     9ea:	ae 01       	movw	r20, r28
     9ec:	ec 01       	movw	r28, r24
     9ee:	0d c0       	rjmp	.+26     	; 0xa0a <SL811CtrlTransfer+0xc2>
		}
	}else{
		// No-data Control
		d->rd_cmd = DATA1_RD;
     9f0:	83 e4       	ldi	r24, 0x43	; 67
     9f2:	f8 01       	movw	r30, r16
     9f4:	85 83       	std	Z+5, r24	; 0x05
		size = SL811ReadData(d, NULL, 0);					// IN(STATUS)
     9f6:	c8 01       	movw	r24, r16
     9f8:	60 e0       	ldi	r22, 0x00	; 0
     9fa:	70 e0       	ldi	r23, 0x00	; 0
     9fc:	40 e0       	ldi	r20, 0x00	; 0
     9fe:	50 e0       	ldi	r21, 0x00	; 0
     a00:	0e 94 ee 01 	call	0x3dc	; 0x3dc <SL811ReadData>
     a04:	ec 01       	movw	r28, r24
     a06:	40 e0       	ldi	r20, 0x00	; 0
     a08:	50 e0       	ldi	r21, 0x00	; 0
		ret = 0;
	}
	if (size < 0)	return size;
     a0a:	d7 ff       	sbrs	r29, 7
     a0c:	ea 01       	movw	r28, r20
	return ret;
}
     a0e:	ce 01       	movw	r24, r28
     a10:	df 91       	pop	r29
     a12:	cf 91       	pop	r28
     a14:	1f 91       	pop	r17
     a16:	0f 91       	pop	r16
     a18:	ff 90       	pop	r15
     a1a:	ef 90       	pop	r14
     a1c:	df 90       	pop	r13
     a1e:	cf 90       	pop	r12
     a20:	08 95       	ret

00000a22 <CtrlTransfer>:
/// <returns>
/// 正常終了時 : 送信／受信したデータのサイズ
/// 不正終了時 : HANDSHAKE_NAK [-1] もしくは HANDSHAKE_STALL [-2]
/// </returns>
int CtrlTransfer(USBDevice *d, CtrlReq *command, byte *data)
{
     a22:	fc 01       	movw	r30, r24
	d->devinfo.ep = 0;
     a24:	11 82       	std	Z+1, r1	; 0x01
	return SL811CtrlTransfer(&(d->devinfo), command, data);
     a26:	0e 94 a4 04 	call	0x948	; 0x948 <SL811CtrlTransfer>
}
     a2a:	08 95       	ret

00000a2c <Get_Descriptor>:
/// <returns>
/// 正常終了時 : 受信したデータのサイズ
/// 不正終了時 : HANDSHAKE_NAK [-1] もしくは HANDSHAKE_STALL [-2]
/// </returns>
int Get_Descriptor(USBDevice *d, byte type, void *data, int length, byte index, word lang)
{
     a2c:	ef 92       	push	r14
     a2e:	ff 92       	push	r15
     a30:	0f 93       	push	r16
     a32:	df 93       	push	r29
     a34:	cf 93       	push	r28
     a36:	cd b7       	in	r28, 0x3d	; 61
     a38:	de b7       	in	r29, 0x3e	; 62
     a3a:	28 97       	sbiw	r28, 0x08	; 8
     a3c:	0f b6       	in	r0, 0x3f	; 63
     a3e:	f8 94       	cli
     a40:	de bf       	out	0x3e, r29	; 62
     a42:	0f be       	out	0x3f, r0	; 63
     a44:	cd bf       	out	0x3d, r28	; 61
     a46:	dc 01       	movw	r26, r24
     a48:	f9 01       	movw	r30, r18
	CtrlReq command;
	
	command.bmRequestType = TRANS_TO_HOST;
     a4a:	80 e8       	ldi	r24, 0x80	; 128
     a4c:	89 83       	std	Y+1, r24	; 0x01
	
	if( type == HID_TYPE || type == REPORT_TYPE )	command.bmRequestType |= TRANS_TO_IF;
     a4e:	86 2f       	mov	r24, r22
     a50:	81 52       	subi	r24, 0x21	; 33
     a52:	82 30       	cpi	r24, 0x02	; 2
     a54:	10 f4       	brcc	.+4      	; 0xa5a <Get_Descriptor+0x2e>
     a56:	81 e8       	ldi	r24, 0x81	; 129
     a58:	89 83       	std	Y+1, r24	; 0x01

	command.bRequest = GET_DESCRIPTOR;
     a5a:	86 e0       	ldi	r24, 0x06	; 6
     a5c:	8a 83       	std	Y+2, r24	; 0x02
	command.wValue = (type << 8) | index;
     a5e:	20 2f       	mov	r18, r16
     a60:	30 e0       	ldi	r19, 0x00	; 0
     a62:	96 2f       	mov	r25, r22
     a64:	80 e0       	ldi	r24, 0x00	; 0
     a66:	28 2b       	or	r18, r24
     a68:	39 2b       	or	r19, r25
     a6a:	3c 83       	std	Y+4, r19	; 0x04
     a6c:	2b 83       	std	Y+3, r18	; 0x03
	command.wIndex = lang;
     a6e:	fe 82       	std	Y+6, r15	; 0x06
     a70:	ed 82       	std	Y+5, r14	; 0x05
	command.wLength = length;
     a72:	f8 87       	std	Y+8, r31	; 0x08
     a74:	ef 83       	std	Y+7, r30	; 0x07
	
	return CtrlTransfer(d, &command, (byte*)data);
     a76:	cd 01       	movw	r24, r26
     a78:	be 01       	movw	r22, r28
     a7a:	6f 5f       	subi	r22, 0xFF	; 255
     a7c:	7f 4f       	sbci	r23, 0xFF	; 255
     a7e:	0e 94 11 05 	call	0xa22	; 0xa22 <CtrlTransfer>
}
     a82:	28 96       	adiw	r28, 0x08	; 8
     a84:	0f b6       	in	r0, 0x3f	; 63
     a86:	f8 94       	cli
     a88:	de bf       	out	0x3e, r29	; 62
     a8a:	0f be       	out	0x3f, r0	; 63
     a8c:	cd bf       	out	0x3d, r28	; 61
     a8e:	cf 91       	pop	r28
     a90:	df 91       	pop	r29
     a92:	0f 91       	pop	r16
     a94:	ff 90       	pop	r15
     a96:	ef 90       	pop	r14
     a98:	08 95       	ret

00000a9a <Set_Address>:
/// <returns>
/// 正常終了時 : 受信したデータのサイズ
/// 不正終了時 : HANDSHAKE_NAK [-1] もしくは HANDSHAKE_STALL [-2]
/// </returns>
int Set_Address(USBDevice *d, int addr)
{
     a9a:	ef 92       	push	r14
     a9c:	ff 92       	push	r15
     a9e:	0f 93       	push	r16
     aa0:	1f 93       	push	r17
     aa2:	df 93       	push	r29
     aa4:	cf 93       	push	r28
     aa6:	cd b7       	in	r28, 0x3d	; 61
     aa8:	de b7       	in	r29, 0x3e	; 62
     aaa:	28 97       	sbiw	r28, 0x08	; 8
     aac:	0f b6       	in	r0, 0x3f	; 63
     aae:	f8 94       	cli
     ab0:	de bf       	out	0x3e, r29	; 62
     ab2:	0f be       	out	0x3f, r0	; 63
     ab4:	cd bf       	out	0x3d, r28	; 61
     ab6:	7c 01       	movw	r14, r24
     ab8:	8b 01       	movw	r16, r22
	CtrlReq command;
	int ret;

	command.bmRequestType = TRANS_TO_DEV;
     aba:	19 82       	std	Y+1, r1	; 0x01
	command.bRequest = SET_ADDRESS;
     abc:	85 e0       	ldi	r24, 0x05	; 5
     abe:	8a 83       	std	Y+2, r24	; 0x02
	command.wValue = addr;
     ac0:	7c 83       	std	Y+4, r23	; 0x04
     ac2:	6b 83       	std	Y+3, r22	; 0x03
	command.wIndex = 0;
     ac4:	1e 82       	std	Y+6, r1	; 0x06
     ac6:	1d 82       	std	Y+5, r1	; 0x05
	command.wLength = 0;
     ac8:	18 86       	std	Y+8, r1	; 0x08
     aca:	1f 82       	std	Y+7, r1	; 0x07
	
	
	ret = CtrlTransfer(d, &command, NULL);
     acc:	c7 01       	movw	r24, r14
     ace:	be 01       	movw	r22, r28
     ad0:	6f 5f       	subi	r22, 0xFF	; 255
     ad2:	7f 4f       	sbci	r23, 0xFF	; 255
     ad4:	40 e0       	ldi	r20, 0x00	; 0
     ad6:	50 e0       	ldi	r21, 0x00	; 0
     ad8:	0e 94 11 05 	call	0xa22	; 0xa22 <CtrlTransfer>
     adc:	9c 01       	movw	r18, r24
	if( ret<0 )	return ret;
     ade:	97 fd       	sbrc	r25, 7
     ae0:	09 c0       	rjmp	.+18     	; 0xaf4 <Set_Address+0x5a>
	
	__device_addr[addr] = 1;
     ae2:	f8 01       	movw	r30, r16
     ae4:	e2 5c       	subi	r30, 0xC2	; 194
     ae6:	fe 4f       	sbci	r31, 0xFE	; 254
     ae8:	81 e0       	ldi	r24, 0x01	; 1
     aea:	80 83       	st	Z, r24
	d->address = addr;
     aec:	f7 01       	movw	r30, r14
     aee:	10 87       	std	Z+8, r17	; 0x08
     af0:	07 83       	std	Z+7, r16	; 0x07
/// </summary>
/// <param name="d">対象デバイス</param>
/// <param name="addr">デバイスのアドレス</param>
void SL811SetAddress(SL811USBDevInfo *d, int addr)
{
	d->addr = addr;
     af2:	00 83       	st	Z, r16
	__device_addr[addr] = 1;
	d->address = addr;
	SL811SetAddress(&(d->devinfo), addr);

	return ret;
}
     af4:	c9 01       	movw	r24, r18
     af6:	28 96       	adiw	r28, 0x08	; 8
     af8:	0f b6       	in	r0, 0x3f	; 63
     afa:	f8 94       	cli
     afc:	de bf       	out	0x3e, r29	; 62
     afe:	0f be       	out	0x3f, r0	; 63
     b00:	cd bf       	out	0x3d, r28	; 61
     b02:	cf 91       	pop	r28
     b04:	df 91       	pop	r29
     b06:	1f 91       	pop	r17
     b08:	0f 91       	pop	r16
     b0a:	ff 90       	pop	r15
     b0c:	ef 90       	pop	r14
     b0e:	08 95       	ret

00000b10 <SL811SetAddress>:
/// SL811 Set Address
/// </summary>
/// <param name="d">対象デバイス</param>
/// <param name="addr">デバイスのアドレス</param>
void SL811SetAddress(SL811USBDevInfo *d, int addr)
{
     b10:	fc 01       	movw	r30, r24
	d->addr = addr;
     b12:	60 83       	st	Z, r22
}
     b14:	08 95       	ret

00000b16 <Set_Configuration>:
/// <returns>
/// 正常終了時 : 送信したデータのサイズ
/// 不正終了時 : HANDSHAKE_NAK [-1] もしくは HANDSHAKE_STALL [-2]
/// </returns>
int Set_Configuration(USBDevice *d, int config)
{
     b16:	df 93       	push	r29
     b18:	cf 93       	push	r28
     b1a:	cd b7       	in	r28, 0x3d	; 61
     b1c:	de b7       	in	r29, 0x3e	; 62
     b1e:	28 97       	sbiw	r28, 0x08	; 8
     b20:	0f b6       	in	r0, 0x3f	; 63
     b22:	f8 94       	cli
     b24:	de bf       	out	0x3e, r29	; 62
     b26:	0f be       	out	0x3f, r0	; 63
     b28:	cd bf       	out	0x3d, r28	; 61
	CtrlReq command;
	
	command.bmRequestType = TRANS_TO_DEV;
     b2a:	19 82       	std	Y+1, r1	; 0x01
	command.bRequest = SET_CONFIG;
     b2c:	29 e0       	ldi	r18, 0x09	; 9
     b2e:	2a 83       	std	Y+2, r18	; 0x02
	command.wValue = config;
     b30:	7c 83       	std	Y+4, r23	; 0x04
     b32:	6b 83       	std	Y+3, r22	; 0x03
	command.wIndex = 0;
     b34:	1e 82       	std	Y+6, r1	; 0x06
     b36:	1d 82       	std	Y+5, r1	; 0x05
	command.wLength = 0;
     b38:	18 86       	std	Y+8, r1	; 0x08
     b3a:	1f 82       	std	Y+7, r1	; 0x07

	return CtrlTransfer(d, &command, NULL);
     b3c:	be 01       	movw	r22, r28
     b3e:	6f 5f       	subi	r22, 0xFF	; 255
     b40:	7f 4f       	sbci	r23, 0xFF	; 255
     b42:	40 e0       	ldi	r20, 0x00	; 0
     b44:	50 e0       	ldi	r21, 0x00	; 0
     b46:	0e 94 11 05 	call	0xa22	; 0xa22 <CtrlTransfer>
}
     b4a:	28 96       	adiw	r28, 0x08	; 8
     b4c:	0f b6       	in	r0, 0x3f	; 63
     b4e:	f8 94       	cli
     b50:	de bf       	out	0x3e, r29	; 62
     b52:	0f be       	out	0x3f, r0	; 63
     b54:	cd bf       	out	0x3d, r28	; 61
     b56:	cf 91       	pop	r28
     b58:	df 91       	pop	r29
     b5a:	08 95       	ret

00000b5c <Get_Configuration>:
/// <returns>
/// 正常終了時 : 受信したデータのサイズ
/// 不正終了時 : HANDSHAKE_NAK [-1] もしくは HANDSHAKE_STALL [-2]
/// </returns>
int Get_Configuration(USBDevice *d, byte *config)
{
     b5c:	df 93       	push	r29
     b5e:	cf 93       	push	r28
     b60:	cd b7       	in	r28, 0x3d	; 61
     b62:	de b7       	in	r29, 0x3e	; 62
     b64:	28 97       	sbiw	r28, 0x08	; 8
     b66:	0f b6       	in	r0, 0x3f	; 63
     b68:	f8 94       	cli
     b6a:	de bf       	out	0x3e, r29	; 62
     b6c:	0f be       	out	0x3f, r0	; 63
     b6e:	cd bf       	out	0x3d, r28	; 61
     b70:	ab 01       	movw	r20, r22
	CtrlReq command;
	
	command.bmRequestType = TRANS_TO_HOST;
     b72:	20 e8       	ldi	r18, 0x80	; 128
     b74:	29 83       	std	Y+1, r18	; 0x01
	command.bRequest = GET_CONFIG;
     b76:	28 e0       	ldi	r18, 0x08	; 8
     b78:	2a 83       	std	Y+2, r18	; 0x02
	command.wValue = 0;
     b7a:	1c 82       	std	Y+4, r1	; 0x04
     b7c:	1b 82       	std	Y+3, r1	; 0x03
	command.wIndex = 0;
     b7e:	1e 82       	std	Y+6, r1	; 0x06
     b80:	1d 82       	std	Y+5, r1	; 0x05
	command.wLength = 1;
     b82:	21 e0       	ldi	r18, 0x01	; 1
     b84:	30 e0       	ldi	r19, 0x00	; 0
     b86:	38 87       	std	Y+8, r19	; 0x08
     b88:	2f 83       	std	Y+7, r18	; 0x07

	return CtrlTransfer(d, &command, config);
     b8a:	be 01       	movw	r22, r28
     b8c:	6f 5f       	subi	r22, 0xFF	; 255
     b8e:	7f 4f       	sbci	r23, 0xFF	; 255
     b90:	0e 94 11 05 	call	0xa22	; 0xa22 <CtrlTransfer>
}
     b94:	28 96       	adiw	r28, 0x08	; 8
     b96:	0f b6       	in	r0, 0x3f	; 63
     b98:	f8 94       	cli
     b9a:	de bf       	out	0x3e, r29	; 62
     b9c:	0f be       	out	0x3f, r0	; 63
     b9e:	cd bf       	out	0x3d, r28	; 61
     ba0:	cf 91       	pop	r28
     ba2:	df 91       	pop	r29
     ba4:	08 95       	ret

00000ba6 <USBDeviceInit_in3>:
/// <returns>
/// 正常終了時 : 0
/// 不正終了時 : -1
/// </returns>
int USBDeviceInit_in3(USBDevice *d, USBDevice *parent, int speed)
{
     ba6:	af 92       	push	r10
     ba8:	bf 92       	push	r11
     baa:	cf 92       	push	r12
     bac:	df 92       	push	r13
     bae:	ef 92       	push	r14
     bb0:	ff 92       	push	r15
     bb2:	0f 93       	push	r16
     bb4:	df 93       	push	r29
     bb6:	cf 93       	push	r28
     bb8:	0f 92       	push	r0
     bba:	cd b7       	in	r28, 0x3d	; 61
     bbc:	de b7       	in	r29, 0x3e	; 62
     bbe:	6c 01       	movw	r12, r24
	
//**/	int	i, epnum;
	byte tmp;
	
	// EndPoint No. - 0, EndPointSize - 8, Retry - 12, PRE - Preamble, Address - 0
	SL811DeviceInit(&(d->devinfo), 0, 8, 12 + ((parent != NULL && speed == USB_LOW) ? 8 : 0), ((parent != NULL && speed == USB_LOW) ? 1 : 0), 0);
     bc0:	67 2b       	or	r22, r23
     bc2:	41 f0       	breq	.+16     	; 0xbd4 <USBDeviceInit_in3+0x2e>
     bc4:	41 30       	cpi	r20, 0x01	; 1
     bc6:	51 05       	cpc	r21, r1
     bc8:	29 f4       	brne	.+10     	; 0xbd4 <USBDeviceInit_in3+0x2e>
     bca:	61 e0       	ldi	r22, 0x01	; 1
     bcc:	70 e0       	ldi	r23, 0x00	; 0
     bce:	24 e1       	ldi	r18, 0x14	; 20
     bd0:	30 e0       	ldi	r19, 0x00	; 0
     bd2:	04 c0       	rjmp	.+8      	; 0xbdc <USBDeviceInit_in3+0x36>
     bd4:	60 e0       	ldi	r22, 0x00	; 0
     bd6:	70 e0       	ldi	r23, 0x00	; 0
     bd8:	2c e0       	ldi	r18, 0x0C	; 12
     bda:	30 e0       	ldi	r19, 0x00	; 0
/// <param name="retry">リトライ回数</param>
/// <param name="pre">プリアンブルパケットの有無</param>
/// <param name="addr">デバイスのアドレス</param>
void SL811DeviceInit(SL811USBDevInfo *d, int ep, int epsize, int retry, int pre, int addr)
{
	d->ep = ep;
     bdc:	d6 01       	movw	r26, r12
     bde:	11 96       	adiw	r26, 0x01	; 1
     be0:	1c 92       	st	X, r1
     be2:	11 97       	sbiw	r26, 0x01	; 1
	d->epsize = epsize;
     be4:	88 e0       	ldi	r24, 0x08	; 8
     be6:	12 96       	adiw	r26, 0x02	; 2
     be8:	8c 93       	st	X, r24
     bea:	12 97       	sbiw	r26, 0x02	; 2
	d->retry = retry;
     bec:	13 96       	adiw	r26, 0x03	; 3
     bee:	2c 93       	st	X, r18
	d->pre = (pre) ? (PREAMBLE) : (0x00);
     bf0:	67 2b       	or	r22, r23
     bf2:	11 f4       	brne	.+4      	; 0xbf8 <USBDeviceInit_in3+0x52>
     bf4:	80 e0       	ldi	r24, 0x00	; 0
     bf6:	01 c0       	rjmp	.+2      	; 0xbfa <USBDeviceInit_in3+0x54>
     bf8:	80 e8       	ldi	r24, 0x80	; 128
     bfa:	f6 01       	movw	r30, r12
     bfc:	86 83       	std	Z+6, r24	; 0x06
	d->addr = addr;
     bfe:	10 82       	st	Z, r1
//**/	int	i, epnum;
	byte tmp;
	
	// EndPoint No. - 0, EndPointSize - 8, Retry - 12, PRE - Preamble, Address - 0
	SL811DeviceInit(&(d->devinfo), 0, 8, 12 + ((parent != NULL && speed == USB_LOW) ? 8 : 0), ((parent != NULL && speed == USB_LOW) ? 1 : 0), 0);
	d->speed = speed;
     c00:	52 87       	std	Z+10, r21	; 0x0a
     c02:	41 87       	std	Z+9, r20	; 0x09
	
	// デバイスディスクプリタの仮取得
//**/	DBG("GET Device Descriptor\n");
	if( Get_Descriptor(d, DEVICE_TYPE, &(d->devdesc), 8, 0, 0) < 0 )	return -1;
     c04:	fb e0       	ldi	r31, 0x0B	; 11
     c06:	af 2e       	mov	r10, r31
     c08:	b1 2c       	mov	r11, r1
     c0a:	ac 0c       	add	r10, r12
     c0c:	bd 1c       	adc	r11, r13
     c0e:	c6 01       	movw	r24, r12
     c10:	61 e0       	ldi	r22, 0x01	; 1
     c12:	a5 01       	movw	r20, r10
     c14:	28 e0       	ldi	r18, 0x08	; 8
     c16:	30 e0       	ldi	r19, 0x00	; 0
     c18:	00 e0       	ldi	r16, 0x00	; 0
     c1a:	ee 24       	eor	r14, r14
     c1c:	ff 24       	eor	r15, r15
     c1e:	0e 94 16 05 	call	0xa2c	; 0xa2c <Get_Descriptor>
     c22:	97 fd       	sbrc	r25, 7
     c24:	81 c0       	rjmp	.+258    	; 0xd28 <USBDeviceInit_in3+0x182>

	// エンドポイントサイズの設定
	SL811DeviceInit(&(d->devinfo), 0, d->devdesc.bMaxPacketSize0, 20, 0, 0);
     c26:	d6 01       	movw	r26, r12
     c28:	52 96       	adiw	r26, 0x12	; 18
     c2a:	8c 91       	ld	r24, X
     c2c:	52 97       	sbiw	r26, 0x12	; 18
/// <param name="retry">リトライ回数</param>
/// <param name="pre">プリアンブルパケットの有無</param>
/// <param name="addr">デバイスのアドレス</param>
void SL811DeviceInit(SL811USBDevInfo *d, int ep, int epsize, int retry, int pre, int addr)
{
	d->ep = ep;
     c2e:	11 96       	adiw	r26, 0x01	; 1
     c30:	1c 92       	st	X, r1
     c32:	11 97       	sbiw	r26, 0x01	; 1
	d->epsize = epsize;
     c34:	12 96       	adiw	r26, 0x02	; 2
     c36:	8c 93       	st	X, r24
     c38:	12 97       	sbiw	r26, 0x02	; 2
	d->retry = retry;
     c3a:	84 e1       	ldi	r24, 0x14	; 20
     c3c:	13 96       	adiw	r26, 0x03	; 3
     c3e:	8c 93       	st	X, r24
     c40:	13 97       	sbiw	r26, 0x03	; 3
	d->pre = (pre) ? (PREAMBLE) : (0x00);
     c42:	16 96       	adiw	r26, 0x06	; 6
     c44:	1c 92       	st	X, r1
     c46:	16 97       	sbiw	r26, 0x06	; 6
	d->addr = addr;
     c48:	1c 92       	st	X, r1
	SL811DeviceInit(&(d->devinfo), 0, d->devdesc.bMaxPacketSize0, 20, 0, 0);
	
	// デバイスアドレスをセット
//**/	DBG("SET Device Address\n");
	devaddr = 1;
	if( Set_Address(d, devaddr) == -1 )	return -1;
     c4a:	c6 01       	movw	r24, r12
     c4c:	61 e0       	ldi	r22, 0x01	; 1
     c4e:	70 e0       	ldi	r23, 0x00	; 0
     c50:	0e 94 4d 05 	call	0xa9a	; 0xa9a <Set_Address>
     c54:	8f 5f       	subi	r24, 0xFF	; 255
     c56:	9f 4f       	sbci	r25, 0xFF	; 255
     c58:	09 f4       	brne	.+2      	; 0xc5c <USBDeviceInit_in3+0xb6>
     c5a:	66 c0       	rjmp	.+204    	; 0xd28 <USBDeviceInit_in3+0x182>
	
	// デバイスディスクプリタの取得
//**/	DBG("GET Device Descriptor\n");
	if( Get_Descriptor(d, DEVICE_TYPE, &(d->devdesc), sizeof(DevDesc), 0, 0) < 0 )	return -1;
     c5c:	c6 01       	movw	r24, r12
     c5e:	61 e0       	ldi	r22, 0x01	; 1
     c60:	a5 01       	movw	r20, r10
     c62:	22 e1       	ldi	r18, 0x12	; 18
     c64:	30 e0       	ldi	r19, 0x00	; 0
     c66:	0e 94 16 05 	call	0xa2c	; 0xa2c <Get_Descriptor>
     c6a:	97 fd       	sbrc	r25, 7
     c6c:	5d c0       	rjmp	.+186    	; 0xd28 <USBDeviceInit_in3+0x182>

	// コンフィグレーションディスクプリタの仮取得
//**/	DBG("GET Configuration Descriptor\n");
	if( Get_Descriptor(d, CONFIG_TYPE, &config, sizeof(CfgDesc), 0, 0) < 0 )	return -1;
     c6e:	e8 ed       	ldi	r30, 0xD8	; 216
     c70:	ae 2e       	mov	r10, r30
     c72:	e2 e0       	ldi	r30, 0x02	; 2
     c74:	be 2e       	mov	r11, r30
     c76:	c6 01       	movw	r24, r12
     c78:	62 e0       	ldi	r22, 0x02	; 2
     c7a:	a5 01       	movw	r20, r10
     c7c:	29 e0       	ldi	r18, 0x09	; 9
     c7e:	30 e0       	ldi	r19, 0x00	; 0
     c80:	0e 94 16 05 	call	0xa2c	; 0xa2c <Get_Descriptor>
     c84:	97 fd       	sbrc	r25, 7
     c86:	50 c0       	rjmp	.+160    	; 0xd28 <USBDeviceInit_in3+0x182>

	// コンフィグレーションディスクプリタの取得
//**/	DBG("GET Configuration Descriptor\n");
	d->cfgdesc = &config;
     c88:	f6 01       	movw	r30, r12
     c8a:	b6 8e       	std	Z+30, r11	; 0x1e
     c8c:	a5 8e       	std	Z+29, r10	; 0x1d
	if( Get_Descriptor(d, CONFIG_TYPE, d->cfgdesc, config.wTotalLength, 0, 0) < 0 )	return -1;
     c8e:	20 91 da 02 	lds	r18, 0x02DA
     c92:	30 91 db 02 	lds	r19, 0x02DB
     c96:	c6 01       	movw	r24, r12
     c98:	62 e0       	ldi	r22, 0x02	; 2
     c9a:	a5 01       	movw	r20, r10
     c9c:	0e 94 16 05 	call	0xa2c	; 0xa2c <Get_Descriptor>
     ca0:	97 fd       	sbrc	r25, 7
     ca2:	42 c0       	rjmp	.+132    	; 0xd28 <USBDeviceInit_in3+0x182>
	
	// ポインタのセット
	d->intfdesc = (IntfDesc*)((byte*)d->cfgdesc + d->cfgdesc->bLength);
     ca4:	d6 01       	movw	r26, r12
     ca6:	5d 96       	adiw	r26, 0x1d	; 29
     ca8:	ed 91       	ld	r30, X+
     caa:	fc 91       	ld	r31, X
     cac:	5e 97       	sbiw	r26, 0x1e	; 30
     cae:	80 81       	ld	r24, Z
     cb0:	e8 0f       	add	r30, r24
     cb2:	f1 1d       	adc	r31, r1
     cb4:	90 96       	adiw	r26, 0x20	; 32
     cb6:	fc 93       	st	X, r31
     cb8:	ee 93       	st	-X, r30
     cba:	5f 97       	sbiw	r26, 0x1f	; 31

	if( d->devdesc.bDeviceClass == 0x00 &&
     cbc:	1f 96       	adiw	r26, 0x0f	; 15
     cbe:	8c 91       	ld	r24, X
     cc0:	1f 97       	sbiw	r26, 0x0f	; 15
     cc2:	88 23       	and	r24, r24
     cc4:	71 f4       	brne	.+28     	; 0xce2 <USBDeviceInit_in3+0x13c>
     cc6:	85 81       	ldd	r24, Z+5	; 0x05
     cc8:	83 30       	cpi	r24, 0x03	; 3
     cca:	59 f4       	brne	.+22     	; 0xce2 <USBDeviceInit_in3+0x13c>
		d->intfdesc->bInterfaceClass == HID_CLASS ){
		
		d->hiddesc = (HIDDesc*)((byte*)d->intfdesc + d->intfdesc->bLength);
     ccc:	80 81       	ld	r24, Z
     cce:	e8 0f       	add	r30, r24
     cd0:	f1 1d       	adc	r31, r1
     cd2:	92 96       	adiw	r26, 0x22	; 34
     cd4:	fc 93       	st	X, r31
     cd6:	ee 93       	st	-X, r30
     cd8:	91 97       	sbiw	r26, 0x21	; 33
		d->epdesc = (EPDesc*)((byte*)d->hiddesc + d->hiddesc->bLength);
     cda:	80 81       	ld	r24, Z
     cdc:	e8 0f       	add	r30, r24
     cde:	f1 1d       	adc	r31, r1
     ce0:	0c c0       	rjmp	.+24     	; 0xcfa <USBDeviceInit_in3+0x154>
//			d->repdesc = &reprt;//&_repdesc;//(RptDesc*)malloc( (d->hiddesc->Report[0].wDescriptorLength) );
//			Get_Descriptor(d, REPORT_TYPE, d->repdesc, d->hiddesc->Report[0].wDescriptorLength, 0, 0);
//			DBG("GET Report Descriptor END\n");
		}
	}else{
		d->hiddesc = NULL;
     ce2:	f6 01       	movw	r30, r12
     ce4:	12 a2       	std	Z+34, r1	; 0x22
     ce6:	11 a2       	std	Z+33, r1	; 0x21
		d->repdesc = NULL;
     ce8:	14 a2       	std	Z+36, r1	; 0x24
     cea:	13 a2       	std	Z+35, r1	; 0x23
		d->epdesc = (EPDesc*)((byte*)d->intfdesc + d->intfdesc->bLength);
     cec:	07 8c       	ldd	r0, Z+31	; 0x1f
     cee:	f0 a1       	ldd	r31, Z+32	; 0x20
     cf0:	e0 2d       	mov	r30, r0
     cf2:	80 81       	ld	r24, Z
     cf4:	e8 0f       	add	r30, r24
     cf6:	f1 1d       	adc	r31, r1
     cf8:	d6 01       	movw	r26, r12
     cfa:	96 96       	adiw	r26, 0x26	; 38
     cfc:	fc 93       	st	X, r31
     cfe:	ee 93       	st	-X, r30
     d00:	95 97       	sbiw	r26, 0x25	; 37
	}
	
	// コンフィギュレーションの設定
//**/	DBG("SET Configuration\n");
	Set_Configuration(d, d->cfgdesc->bConfigurationValue);
     d02:	d6 01       	movw	r26, r12
     d04:	5d 96       	adiw	r26, 0x1d	; 29
     d06:	ed 91       	ld	r30, X+
     d08:	fc 91       	ld	r31, X
     d0a:	5e 97       	sbiw	r26, 0x1e	; 30
     d0c:	65 81       	ldd	r22, Z+5	; 0x05
     d0e:	c6 01       	movw	r24, r12
     d10:	70 e0       	ldi	r23, 0x00	; 0
     d12:	0e 94 8b 05 	call	0xb16	; 0xb16 <Set_Configuration>
	
	// 情報の表示
	
	Get_Configuration(d, &tmp);
     d16:	c6 01       	movw	r24, r12
     d18:	be 01       	movw	r22, r28
     d1a:	6f 5f       	subi	r22, 0xFF	; 255
     d1c:	7f 4f       	sbci	r23, 0xFF	; 255
     d1e:	0e 94 ae 05 	call	0xb5c	; 0xb5c <Get_Configuration>
     d22:	20 e0       	ldi	r18, 0x00	; 0
     d24:	30 e0       	ldi	r19, 0x00	; 0
     d26:	02 c0       	rjmp	.+4      	; 0xd2c <USBDeviceInit_in3+0x186>

	for( i=0; i<epnum; i++){
		print_desc(&d->epdesc[i], ENDPOINT_TYPE);
	}	
*/
	return 0;
     d28:	2f ef       	ldi	r18, 0xFF	; 255
     d2a:	3f ef       	ldi	r19, 0xFF	; 255
}
     d2c:	c9 01       	movw	r24, r18
     d2e:	0f 90       	pop	r0
     d30:	cf 91       	pop	r28
     d32:	df 91       	pop	r29
     d34:	0f 91       	pop	r16
     d36:	ff 90       	pop	r15
     d38:	ef 90       	pop	r14
     d3a:	df 90       	pop	r13
     d3c:	cf 90       	pop	r12
     d3e:	bf 90       	pop	r11
     d40:	af 90       	pop	r10
     d42:	08 95       	ret

00000d44 <Get_Report>:
/// <returns>
/// 正常終了時 : 受信したデータのサイズ
/// 不正終了時 : HANDSHAKE_NAK [-1] もしくは HANDSHAKE_STALL [-2]
/// </returns>
int Get_Report(USBDevice *d, word type, byte *data, size_t length, byte report_id, word intf)
{
     d44:	ef 92       	push	r14
     d46:	ff 92       	push	r15
     d48:	0f 93       	push	r16
     d4a:	1f 93       	push	r17
     d4c:	df 93       	push	r29
     d4e:	cf 93       	push	r28
     d50:	cd b7       	in	r28, 0x3d	; 61
     d52:	de b7       	in	r29, 0x3e	; 62
     d54:	28 97       	sbiw	r28, 0x08	; 8
     d56:	0f b6       	in	r0, 0x3f	; 63
     d58:	f8 94       	cli
     d5a:	de bf       	out	0x3e, r29	; 62
     d5c:	0f be       	out	0x3f, r0	; 63
     d5e:	cd bf       	out	0x3d, r28	; 61
	CtrlReq command;
	
	command.bmRequestType = TRANS_TO_HOST | TRANS_TO_IF | TYPE_CLASS;
     d60:	71 ea       	ldi	r23, 0xA1	; 161
     d62:	79 83       	std	Y+1, r23	; 0x01
	command.bRequest = GET_REPORT;
     d64:	71 e0       	ldi	r23, 0x01	; 1
     d66:	7a 83       	std	Y+2, r23	; 0x02
	command.wValue = ((type << 8) | report_id);
     d68:	10 e0       	ldi	r17, 0x00	; 0
     d6a:	f6 2f       	mov	r31, r22
     d6c:	e0 e0       	ldi	r30, 0x00	; 0
     d6e:	0e 2b       	or	r16, r30
     d70:	1f 2b       	or	r17, r31
     d72:	1c 83       	std	Y+4, r17	; 0x04
     d74:	0b 83       	std	Y+3, r16	; 0x03
	command.wIndex = intf;
     d76:	fe 82       	std	Y+6, r15	; 0x06
     d78:	ed 82       	std	Y+5, r14	; 0x05
	command.wLength = length;
     d7a:	38 87       	std	Y+8, r19	; 0x08
     d7c:	2f 83       	std	Y+7, r18	; 0x07

	return CtrlTransfer(d, &command, data);
     d7e:	be 01       	movw	r22, r28
     d80:	6f 5f       	subi	r22, 0xFF	; 255
     d82:	7f 4f       	sbci	r23, 0xFF	; 255
     d84:	0e 94 11 05 	call	0xa22	; 0xa22 <CtrlTransfer>
}
     d88:	28 96       	adiw	r28, 0x08	; 8
     d8a:	0f b6       	in	r0, 0x3f	; 63
     d8c:	f8 94       	cli
     d8e:	de bf       	out	0x3e, r29	; 62
     d90:	0f be       	out	0x3f, r0	; 63
     d92:	cd bf       	out	0x3d, r28	; 61
     d94:	cf 91       	pop	r28
     d96:	df 91       	pop	r29
     d98:	1f 91       	pop	r17
     d9a:	0f 91       	pop	r16
     d9c:	ff 90       	pop	r15
     d9e:	ef 90       	pop	r14
     da0:	08 95       	ret

00000da2 <USBAddIntTxTask>:
/// <returns>
/// 正常終了時 : 0
/// 不正終了時 : -1
/// </returns>
int USBAddIntTxTask(USBDevice *d, int ep, int interval, void (*fp)(USBDevice*))
{
     da2:	cf 92       	push	r12
     da4:	df 92       	push	r13
     da6:	ef 92       	push	r14
     da8:	ff 92       	push	r15
     daa:	0f 93       	push	r16
     dac:	1f 93       	push	r17
     dae:	cf 93       	push	r28
     db0:	df 93       	push	r29
     db2:	ec 01       	movw	r28, r24
     db4:	7a 01       	movw	r14, r20
     db6:	69 01       	movw	r12, r18
	
	USBIntQueueItem	*newitem;
	int i;
	char flag;
	
	if( ep < 1 || ep > 15 )	return -1;
     db8:	cb 01       	movw	r24, r22
     dba:	01 97       	sbiw	r24, 0x01	; 1
     dbc:	0f 97       	sbiw	r24, 0x0f	; 15
     dbe:	08 f0       	brcs	.+2      	; 0xdc2 <USBAddIntTxTask+0x20>
     dc0:	51 c0       	rjmp	.+162    	; 0xe64 <USBAddIntTxTask+0xc2>
	
	flag = 0;
	for( i=0; i < d->intfdesc->bNumEndpoints; i++ ){
     dc2:	ef 8d       	ldd	r30, Y+31	; 0x1f
     dc4:	f8 a1       	ldd	r31, Y+32	; 0x20
     dc6:	84 81       	ldd	r24, Z+4	; 0x04
     dc8:	08 2f       	mov	r16, r24
     dca:	10 e0       	ldi	r17, 0x00	; 0
     dcc:	20 e0       	ldi	r18, 0x00	; 0
     dce:	30 e0       	ldi	r19, 0x00	; 0
     dd0:	40 e0       	ldi	r20, 0x00	; 0
     dd2:	50 e0       	ldi	r21, 0x00	; 0
     dd4:	10 c0       	rjmp	.+32     	; 0xdf6 <USBAddIntTxTask+0x54>
		if( (d->epdesc[i].bEndpointAddress & EPADDR_MASK_ADDRESS) == ep ){
     dd6:	ad a1       	ldd	r26, Y+37	; 0x25
     dd8:	be a1       	ldd	r27, Y+38	; 0x26
     dda:	fd 01       	movw	r30, r26
     ddc:	e4 0f       	add	r30, r20
     dde:	f5 1f       	adc	r31, r21
     de0:	82 81       	ldd	r24, Z+2	; 0x02
     de2:	90 e0       	ldi	r25, 0x00	; 0
     de4:	8f 70       	andi	r24, 0x0F	; 15
     de6:	90 70       	andi	r25, 0x00	; 0
     de8:	49 5f       	subi	r20, 0xF9	; 249
     dea:	5f 4f       	sbci	r21, 0xFF	; 255
     dec:	86 17       	cp	r24, r22
     dee:	97 07       	cpc	r25, r23
     df0:	31 f0       	breq	.+12     	; 0xdfe <USBAddIntTxTask+0x5c>
	char flag;
	
	if( ep < 1 || ep > 15 )	return -1;
	
	flag = 0;
	for( i=0; i < d->intfdesc->bNumEndpoints; i++ ){
     df2:	2f 5f       	subi	r18, 0xFF	; 255
     df4:	3f 4f       	sbci	r19, 0xFF	; 255
     df6:	20 17       	cp	r18, r16
     df8:	31 07       	cpc	r19, r17
     dfa:	6c f3       	brlt	.-38     	; 0xdd6 <USBAddIntTxTask+0x34>
     dfc:	33 c0       	rjmp	.+102    	; 0xe64 <USBAddIntTxTask+0xc2>
		if( (d->epdesc[i].bEndpointAddress & EPADDR_MASK_ADDRESS) == ep ){
			flag = 1;
			break;
		}
	}
	if( !flag || ((d->epdesc[i].bmAttributes) & 0x03 != 3) ||  (d->epdesc[i].bInterval == 0) )	return -1;
     dfe:	c9 01       	movw	r24, r18
     e00:	13 e0       	ldi	r17, 0x03	; 3
     e02:	88 0f       	add	r24, r24
     e04:	99 1f       	adc	r25, r25
     e06:	1a 95       	dec	r17
     e08:	e1 f7       	brne	.-8      	; 0xe02 <USBAddIntTxTask+0x60>
     e0a:	82 1b       	sub	r24, r18
     e0c:	93 0b       	sbc	r25, r19
     e0e:	a8 0f       	add	r26, r24
     e10:	b9 1f       	adc	r27, r25
     e12:	16 96       	adiw	r26, 0x06	; 6
     e14:	8c 91       	ld	r24, X
     e16:	88 23       	and	r24, r24
     e18:	29 f1       	breq	.+74     	; 0xe64 <USBAddIntTxTask+0xc2>

	newitem = &_newitem;
	
	newitem->device = d;
     e1a:	d0 93 44 02 	sts	0x0244, r29
     e1e:	c0 93 43 02 	sts	0x0243, r28
	newitem->ep = ep;
     e22:	70 93 46 02 	sts	0x0246, r23
     e26:	60 93 45 02 	sts	0x0245, r22
	newitem->handler = fp;
     e2a:	d0 92 48 02 	sts	0x0248, r13
     e2e:	c0 92 47 02 	sts	0x0247, r12
	newitem->interval = interval;
     e32:	f0 92 40 02 	sts	0x0240, r15
     e36:	e0 92 3f 02 	sts	0x023F, r14
	newitem->cnt = interval;
     e3a:	f0 92 42 02 	sts	0x0242, r15
     e3e:	e0 92 41 02 	sts	0x0241, r14
	
	newitem->next = usbqueue;
     e42:	80 91 be 01 	lds	r24, 0x01BE
     e46:	90 91 bf 01 	lds	r25, 0x01BF
     e4a:	90 93 4a 02 	sts	0x024A, r25
     e4e:	80 93 49 02 	sts	0x0249, r24
	usbqueue = newitem;	// ポインタのつなぎかえ
     e52:	8f e3       	ldi	r24, 0x3F	; 63
     e54:	92 e0       	ldi	r25, 0x02	; 2
     e56:	90 93 bf 01 	sts	0x01BF, r25
     e5a:	80 93 be 01 	sts	0x01BE, r24
     e5e:	20 e0       	ldi	r18, 0x00	; 0
     e60:	30 e0       	ldi	r19, 0x00	; 0
     e62:	02 c0       	rjmp	.+4      	; 0xe68 <USBAddIntTxTask+0xc6>

	return 0;
     e64:	2f ef       	ldi	r18, 0xFF	; 255
     e66:	3f ef       	ldi	r19, 0xFF	; 255
}
     e68:	c9 01       	movw	r24, r18
     e6a:	df 91       	pop	r29
     e6c:	cf 91       	pop	r28
     e6e:	1f 91       	pop	r17
     e70:	0f 91       	pop	r16
     e72:	ff 90       	pop	r15
     e74:	ef 90       	pop	r14
     e76:	df 90       	pop	r13
     e78:	cf 90       	pop	r12
     e7a:	08 95       	ret

00000e7c <Sony_SIXAXIS_Init>:
/// <returns>
/// 正常終了時 : 0
/// 不正終了時 : -1
/// </returns>
int Sony_SIXAXIS_Init(USBDevice *d)
{
     e7c:	cf 92       	push	r12
     e7e:	df 92       	push	r13
     e80:	ef 92       	push	r14
     e82:	ff 92       	push	r15
     e84:	0f 93       	push	r16
     e86:	cf 93       	push	r28
     e88:	df 93       	push	r29
     e8a:	6c 01       	movw	r12, r24
	int i;
	
	_sixaxis_buf_index = 0;
     e8c:	10 92 22 02 	sts	0x0222, r1
     e90:	c0 e0       	ldi	r28, 0x00	; 0
     e92:	d0 e0       	ldi	r29, 0x00	; 0
/// </returns>
static int Sony_SIXAXIS_Special_Request(USBDevice *d)
{
	int ret;

	ret = Get_Report(
     e94:	d6 01       	movw	r26, r12
     e96:	5f 96       	adiw	r26, 0x1f	; 31
     e98:	ed 91       	ld	r30, X+
     e9a:	fc 91       	ld	r31, X
     e9c:	90 97       	sbiw	r26, 0x20	; 32
     e9e:	e2 80       	ldd	r14, Z+2	; 0x02
     ea0:	c6 01       	movw	r24, r12
     ea2:	63 e0       	ldi	r22, 0x03	; 3
     ea4:	70 e0       	ldi	r23, 0x00	; 0
     ea6:	43 e2       	ldi	r20, 0x23	; 35
     ea8:	52 e0       	ldi	r21, 0x02	; 2
     eaa:	21 e1       	ldi	r18, 0x11	; 17
     eac:	30 e0       	ldi	r19, 0x00	; 0
     eae:	02 ef       	ldi	r16, 0xF2	; 242
     eb0:	ff 24       	eor	r15, r15
     eb2:	0e 94 a2 06 	call	0xd44	; 0xd44 <Get_Report>
	int i;
	
	_sixaxis_buf_index = 0;
	
	for( i=0; i<3; i++ ){
		if( Sony_SIXAXIS_Special_Request(d) >= 0 ){
     eb6:	97 ff       	sbrs	r25, 7
     eb8:	07 c0       	rjmp	.+14     	; 0xec8 <Sony_SIXAXIS_Init+0x4c>
{
	int i;
	
	_sixaxis_buf_index = 0;
	
	for( i=0; i<3; i++ ){
     eba:	21 96       	adiw	r28, 0x01	; 1
     ebc:	c3 30       	cpi	r28, 0x03	; 3
     ebe:	d1 05       	cpc	r29, r1
     ec0:	49 f7       	brne	.-46     	; 0xe94 <Sony_SIXAXIS_Init+0x18>
     ec2:	2f ef       	ldi	r18, 0xFF	; 255
     ec4:	3f ef       	ldi	r19, 0xFF	; 255
     ec6:	0a c0       	rjmp	.+20     	; 0xedc <Sony_SIXAXIS_Init+0x60>
			break;
		}
	}
	if( i != 0 )	return -1;
	
	return USBAddIntTxTask(d, 1, 15, Sony_SIXAXIS_IntTask);
     ec8:	c6 01       	movw	r24, r12
     eca:	61 e0       	ldi	r22, 0x01	; 1
     ecc:	70 e0       	ldi	r23, 0x00	; 0
     ece:	4f e0       	ldi	r20, 0x0F	; 15
     ed0:	50 e0       	ldi	r21, 0x00	; 0
     ed2:	25 e8       	ldi	r18, 0x85	; 133
     ed4:	37 e0       	ldi	r19, 0x07	; 7
     ed6:	0e 94 d1 06 	call	0xda2	; 0xda2 <USBAddIntTxTask>
     eda:	9c 01       	movw	r18, r24
}
     edc:	c9 01       	movw	r24, r18
     ede:	df 91       	pop	r29
     ee0:	cf 91       	pop	r28
     ee2:	0f 91       	pop	r16
     ee4:	ff 90       	pop	r15
     ee6:	ef 90       	pop	r14
     ee8:	df 90       	pop	r13
     eea:	cf 90       	pop	r12
     eec:	08 95       	ret

00000eee <SL811IntInTransfer>:
/// <returns>
/// 正常終了時 : 受信したデータのサイズ
/// 不正終了時 : SL811_HANDSHAKE_NAK [-1] もしくは SL811_HANDSHAKE_STALL [-2]
/// </returns>
int SL811IntInTransfer(SL811USBDevInfo *d, unsigned char *data, int size)
{
     eee:	fc 01       	movw	r30, r24
	d->rd_cmd = DATA0_RD;
     ef0:	83 e0       	ldi	r24, 0x03	; 3
     ef2:	85 83       	std	Z+5, r24	; 0x05
	return SL811ReadData(d, data, size);
     ef4:	cf 01       	movw	r24, r30
     ef6:	0e 94 ee 01 	call	0x3dc	; 0x3dc <SL811ReadData>
}
     efa:	08 95       	ret

00000efc <IntInTransfer>:
/// <returns>
/// 正常終了時 : 受信したデータのサイズ
/// 不正終了時 : HANDSHAKE_NAK [-1] もしくは HANDSHAKE_STALL [-2]
/// </returns>
int IntInTransfer(USBDevice *d, int ep, byte *data, int size)
{
     efc:	fc 01       	movw	r30, r24
	d->devinfo.ep = ep;
     efe:	61 83       	std	Z+1, r22	; 0x01
	return SL811IntInTransfer(&(d->devinfo), data, size);
     f00:	ba 01       	movw	r22, r20
     f02:	a9 01       	movw	r20, r18
     f04:	0e 94 77 07 	call	0xeee	; 0xeee <SL811IntInTransfer>
}
     f08:	08 95       	ret

00000f0a <Sony_SIXAXIS_IntTask>:
/// <summary>
/// Sony SIXAXIS Interrupt Transfer Task
/// </summary>
/// <param name="d">対象デバイス</param>
static void Sony_SIXAXIS_IntTask(USBDevice *d)
{
     f0a:	fc 01       	movw	r30, r24
	int tmp;
	
	tmp = IntInTransfer(d, 1, &(_sixaxis_buf[0][_sixaxis_buf_index]), SIXAXIS_DATA_LENGTH);
     f0c:	80 91 22 02 	lds	r24, 0x0222
     f10:	62 ec       	ldi	r22, 0xC2	; 194
     f12:	71 e0       	ldi	r23, 0x01	; 1
     f14:	68 0f       	add	r22, r24
     f16:	71 1d       	adc	r23, r1
/// 正常終了時 : 受信したデータのサイズ
/// 不正終了時 : HANDSHAKE_NAK [-1] もしくは HANDSHAKE_STALL [-2]
/// </returns>
int IntInTransfer(USBDevice *d, int ep, byte *data, int size)
{
	d->devinfo.ep = ep;
     f18:	81 e0       	ldi	r24, 0x01	; 1
     f1a:	81 83       	std	Z+1, r24	; 0x01
	return SL811IntInTransfer(&(d->devinfo), data, size);
     f1c:	cf 01       	movw	r24, r30
     f1e:	40 e3       	ldi	r20, 0x30	; 48
     f20:	50 e0       	ldi	r21, 0x00	; 0
     f22:	0e 94 77 07 	call	0xeee	; 0xeee <SL811IntInTransfer>
static void Sony_SIXAXIS_IntTask(USBDevice *d)
{
	int tmp;
	
	tmp = IntInTransfer(d, 1, &(_sixaxis_buf[0][_sixaxis_buf_index]), SIXAXIS_DATA_LENGTH);
}
     f26:	08 95       	ret

00000f28 <Toggle_SIXAXIS_Buffer>:
/// <returns>現在（直前）のバッファへのアドレス</returns>
unsigned char *Toggle_SIXAXIS_Buffer(void)
{
	unsigned char *ret;
	
	ret = &(_sixaxis_buf[0][_sixaxis_buf_index]);
     f28:	20 91 22 02 	lds	r18, 0x0222
	_sixaxis_buf_index = (_sixaxis_buf_index == 1) ? 0 : 1;
     f2c:	10 92 22 02 	sts	0x0222, r1
     f30:	21 30       	cpi	r18, 0x01	; 1
     f32:	19 f0       	breq	.+6      	; 0xf3a <Toggle_SIXAXIS_Buffer+0x12>
     f34:	81 e0       	ldi	r24, 0x01	; 1
     f36:	80 93 22 02 	sts	0x0222, r24
     f3a:	30 e0       	ldi	r19, 0x00	; 0
     f3c:	2e 53       	subi	r18, 0x3E	; 62
     f3e:	3e 4f       	sbci	r19, 0xFE	; 254
	
	return ret;
}
     f40:	c9 01       	movw	r24, r18
     f42:	08 95       	ret

00000f44 <Toggle_RC_Tx_Buffer>:
/// <returns>現在（直前）のバッファへのアドレス</returns>
union controller_data *Toggle_RC_Tx_Buffer(void)
{
	union controller_data *ret;
	
	ret = &(_rc_tx_buf[_rc_tx_buf_selector]);
     f44:	20 91 3c 02 	lds	r18, 0x023C
	_rc_tx_buf_selector = (_rc_tx_buf_selector == 1) ? 0 : 1;
     f48:	10 92 3c 02 	sts	0x023C, r1
     f4c:	21 30       	cpi	r18, 0x01	; 1
     f4e:	19 f0       	breq	.+6      	; 0xf56 <Toggle_RC_Tx_Buffer+0x12>
     f50:	81 e0       	ldi	r24, 0x01	; 1
     f52:	80 93 3c 02 	sts	0x023C, r24
	_rc_tx_buf_index = 0;
     f56:	10 92 3e 02 	sts	0x023E, r1
     f5a:	10 92 3d 02 	sts	0x023D, r1
     f5e:	30 e0       	ldi	r19, 0x00	; 0
     f60:	22 0f       	add	r18, r18
     f62:	33 1f       	adc	r19, r19
     f64:	22 0f       	add	r18, r18
     f66:	33 1f       	adc	r19, r19
     f68:	2c 5c       	subi	r18, 0xCC	; 204
     f6a:	3d 4f       	sbci	r19, 0xFD	; 253

	return ret;
}
     f6c:	c9 01       	movw	r24, r18
     f6e:	08 95       	ret

00000f70 <controler_main_process_loop>:

void controler_main_process_loop(void)
{
     f70:	af 92       	push	r10
     f72:	bf 92       	push	r11
     f74:	cf 92       	push	r12
     f76:	df 92       	push	r13
     f78:	ef 92       	push	r14
     f7a:	ff 92       	push	r15
     f7c:	0f 93       	push	r16
     f7e:	1f 93       	push	r17
     f80:	cf 93       	push	r28
     f82:	df 93       	push	r29
     f84:	90 e0       	ldi	r25, 0x00	; 0
/// 正常終了時 : 受信したデータのサイズ
/// 不正終了時 : HANDSHAKE_NAK [-1] もしくは HANDSHAKE_STALL [-2]
/// </returns>
int IntInTransfer(USBDevice *d, int ep, byte *data, int size)
{
	d->devinfo.ep = ep;
     f86:	01 e0       	ldi	r16, 0x01	; 1
    milliseconds can be achieved.
 */
void
_delay_loop_2(uint16_t __count)
{
	__asm__ volatile (
     f88:	c4 ed       	ldi	r28, 0xD4	; 212
     f8a:	d0 e3       	ldi	r29, 0x30	; 48
/// <summary>
/// SL811HST専用レジスタへの書き込み
/// </summary>
void sl811_write(const unsigned char offset, const unsigned char data)
{
	*(__sl811_addr) = offset;
     f8c:	ed e0       	ldi	r30, 0x0D	; 13
     f8e:	ee 2e       	mov	r14, r30
    can be achieved.
*/
void
_delay_loop_1(uint8_t __count)
{
	__asm__ volatile (
     f90:	12 e3       	ldi	r17, 0x32	; 50
	DELAY;
	*(__sl811_data) = data;
     f92:	ff 24       	eor	r15, r15
     f94:	fa 94       	dec	r15
     f96:	11 c0       	rjmp	.+34     	; 0xfba <controler_main_process_loop+0x4a>
/// <summary>
/// SL811HST専用レジスタへの書き込み
/// </summary>
void sl811_write(const unsigned char offset, const unsigned char data)
{
	*(__sl811_addr) = offset;
     f98:	e0 91 c4 02 	lds	r30, 0x02C4
     f9c:	f0 91 c5 02 	lds	r31, 0x02C5
     fa0:	e0 82       	st	Z, r14
     fa2:	81 2f       	mov	r24, r17
     fa4:	8a 95       	dec	r24
     fa6:	f1 f7       	brne	.-4      	; 0xfa4 <controler_main_process_loop+0x34>
	DELAY;
	*(__sl811_data) = data;
     fa8:	e0 91 d6 02 	lds	r30, 0x02D6
     fac:	f0 91 d7 02 	lds	r31, 0x02D7
     fb0:	f0 82       	st	Z, r15
     fb2:	81 2f       	mov	r24, r17
     fb4:	8a 95       	dec	r24
     fb6:	f1 f7       	brne	.-4      	; 0xfb4 <controler_main_process_loop+0x44>
	unsigned char L_STICK_X, L_STICK_Y, R_STICK_X, R_STICK_Y;
	
while(1)
	{
		// clear all interrupt bits
		for(status=0; status<20; status++)
     fb8:	9f 5f       	subi	r25, 0xFF	; 255
     fba:	94 31       	cpi	r25, 0x14	; 20
     fbc:	68 f3       	brcs	.-38     	; 0xf98 <controler_main_process_loop+0x28>
		for(getinfosixaxis = 0;getinfosixaxis != 0x00;)
		{
			getinfosixaxis = sl811_read(SL811H_INTSTATUSREG);
		}

		IntInTransfer(&dev, 1, &(_sixaxis_buf[0][_sixaxis_buf_index]), SIXAXIS_DATA_LENGTH);
     fbe:	60 91 22 02 	lds	r22, 0x0222
     fc2:	70 e0       	ldi	r23, 0x00	; 0
     fc4:	6e 53       	subi	r22, 0x3E	; 62
     fc6:	7e 4f       	sbci	r23, 0xFE	; 254
/// 正常終了時 : 受信したデータのサイズ
/// 不正終了時 : HANDSHAKE_NAK [-1] もしくは HANDSHAKE_STALL [-2]
/// </returns>
int IntInTransfer(USBDevice *d, int ep, byte *data, int size)
{
	d->devinfo.ep = ep;
     fc8:	00 93 92 02 	sts	0x0292, r16
	return SL811IntInTransfer(&(d->devinfo), data, size);
     fcc:	81 e9       	ldi	r24, 0x91	; 145
     fce:	92 e0       	ldi	r25, 0x02	; 2
     fd0:	40 e3       	ldi	r20, 0x30	; 48
     fd2:	50 e0       	ldi	r21, 0x00	; 0
     fd4:	0e 94 77 07 	call	0xeee	; 0xeee <SL811IntInTransfer>
/// <returns>現在（直前）のバッファへのアドレス</returns>
unsigned char *Toggle_SIXAXIS_Buffer(void)
{
	unsigned char *ret;
	
	ret = &(_sixaxis_buf[0][_sixaxis_buf_index]);
     fd8:	e0 91 22 02 	lds	r30, 0x0222
	_sixaxis_buf_index = (_sixaxis_buf_index == 1) ? 0 : 1;
     fdc:	10 92 22 02 	sts	0x0222, r1
     fe0:	e1 30       	cpi	r30, 0x01	; 1
     fe2:	11 f0       	breq	.+4      	; 0xfe8 <controler_main_process_loop+0x78>
     fe4:	00 93 22 02 	sts	0x0222, r16
			getinfosixaxis = sl811_read(SL811H_INTSTATUSREG);
		}

		IntInTransfer(&dev, 1, &(_sixaxis_buf[0][_sixaxis_buf_index]), SIXAXIS_DATA_LENGTH);

		sixaxis = (SIXAXIS*)((Toggle_SIXAXIS_Buffer()) + 2);
     fe8:	f0 e0       	ldi	r31, 0x00	; 0
     fea:	ec 53       	subi	r30, 0x3C	; 60
     fec:	fe 4f       	sbci	r31, 0xFE	; 254
     fee:	f0 93 c3 02 	sts	0x02C3, r31
     ff2:	e0 93 c2 02 	sts	0x02C2, r30
		
//**/		printf("%d\n", sixaxis->Button.PS);
		if( sixaxis->Button.PS != 0 )	break;
     ff6:	82 81       	ldd	r24, Z+2	; 0x02
     ff8:	80 fd       	sbrc	r24, 0
     ffa:	05 c0       	rjmp	.+10     	; 0x1006 <controler_main_process_loop+0x96>
    milliseconds can be achieved.
 */
void
_delay_loop_2(uint16_t __count)
{
	__asm__ volatile (
     ffc:	ce 01       	movw	r24, r28
     ffe:	01 97       	sbiw	r24, 0x01	; 1
    1000:	f1 f7       	brne	.-4      	; 0xffe <controler_main_process_loop+0x8e>
    1002:	90 e0       	ldi	r25, 0x00	; 0
    1004:	c9 cf       	rjmp	.-110    	; 0xf98 <controler_main_process_loop+0x28>
	}

	
//	uart_init(0,UART_RE|UART_TE,19200);						//受信許可|送信許可|送信データ空割り込み許可，ボーレート
	//	uart_setbuffer(TxDataBuf,RC_DATA_LENGTH*7);				//送信用バッファの設定
	MU2_SetRxHandler(uart0_getchar);						//uartの1byte受信関数をセット
    1006:	80 e7       	ldi	r24, 0x70	; 112
    1008:	94 e1       	ldi	r25, 0x14	; 20
    100a:	0e 94 83 16 	call	0x2d06	; 0x2d06 <MU2_SetRxHandler>
	MU2_SetTxHandler(uart0_putchar);						//uartの1byte送信予約関数をセット引数にuart_putcharを 
    100e:	86 e8       	ldi	r24, 0x86	; 134
    1010:	94 e1       	ldi	r25, 0x14	; 20
    1012:	0e 94 71 16 	call	0x2ce2	; 0x2ce2 <MU2_SetTxHandler>
    1016:	c0 e0       	ldi	r28, 0x00	; 0
    1018:	d0 e0       	ldi	r29, 0x00	; 0
    can be achieved.
*/
void
_delay_loop_1(uint8_t __count)
{
	__asm__ volatile (
    101a:	12 e3       	ldi	r17, 0x32	; 50
	
	for(i = 0;i<5; i++)
	{													//入れると割り込みではなくwait形式になる			  	
		if((PINF&0x01)==1)
    101c:	00 9b       	sbis	0x00, 0	; 0
    101e:	22 c0       	rjmp	.+68     	; 0x1064 <controler_main_process_loop+0xf4>
		{
//**/			printf("%x\n",SWITCH>>6);
			MU2_SetGroupID(Group[SWITCH>>6]);						//グループ設定
    1020:	e0 b1       	in	r30, 0x00	; 0
    1022:	e0 95       	com	r30
    1024:	e2 95       	swap	r30
    1026:	e6 95       	lsr	r30
    1028:	e6 95       	lsr	r30
    102a:	e3 70       	andi	r30, 0x03	; 3
    102c:	f0 e0       	ldi	r31, 0x00	; 0
    102e:	e0 50       	subi	r30, 0x00	; 0
    1030:	ff 4f       	sbci	r31, 0xFF	; 255
    1032:	80 81       	ld	r24, Z
    1034:	0e 94 db 1d 	call	0x3bb6	; 0x3bb6 <MU2_SetGroupID>

//**/			printf("%x %x\n",SWITCH>>6,(SWITCH>>4) & 0x03);
			MU2_SetChannel(Channel[SWITCH>>6][(SWITCH>>4) & 0x03]);	//チャンネル設定
    1038:	e0 b1       	in	r30, 0x00	; 0
    103a:	80 b1       	in	r24, 0x00	; 0
    103c:	80 95       	com	r24
    103e:	82 95       	swap	r24
    1040:	83 70       	andi	r24, 0x03	; 3
    1042:	e0 95       	com	r30
    1044:	e2 95       	swap	r30
    1046:	e6 95       	lsr	r30
    1048:	e6 95       	lsr	r30
    104a:	e3 70       	andi	r30, 0x03	; 3
    104c:	f0 e0       	ldi	r31, 0x00	; 0
    104e:	ee 0f       	add	r30, r30
    1050:	ff 1f       	adc	r31, r31
    1052:	ee 0f       	add	r30, r30
    1054:	ff 1f       	adc	r31, r31
    1056:	e8 0f       	add	r30, r24
    1058:	f1 1d       	adc	r31, r1
    105a:	ec 5f       	subi	r30, 0xFC	; 252
    105c:	fe 4f       	sbci	r31, 0xFE	; 254
    105e:	80 81       	ld	r24, Z
    1060:	0e 94 ab 1d 	call	0x3b56	; 0x3b56 <MU2_SetChannel>
    1064:	81 2f       	mov	r24, r17
    1066:	8a 95       	dec	r24
    1068:	f1 f7       	brne	.-4      	; 0x1066 <controler_main_process_loop+0xf6>
//	uart_init(0,UART_RE|UART_TE,19200);						//受信許可|送信許可|送信データ空割り込み許可，ボーレート
	//	uart_setbuffer(TxDataBuf,RC_DATA_LENGTH*7);				//送信用バッファの設定
	MU2_SetRxHandler(uart0_getchar);						//uartの1byte受信関数をセット
	MU2_SetTxHandler(uart0_putchar);						//uartの1byte送信予約関数をセット引数にuart_putcharを 
	
	for(i = 0;i<5; i++)
    106a:	21 96       	adiw	r28, 0x01	; 1
    106c:	c5 30       	cpi	r28, 0x05	; 5
    106e:	d1 05       	cpc	r29, r1
    1070:	a9 f6       	brne	.-86     	; 0x101c <controler_main_process_loop+0xac>

		DELAY;
	}
	
	i = 0;
	LED_ON_ALL;
    1072:	82 b3       	in	r24, 0x12	; 18
    1074:	84 65       	ori	r24, 0x54	; 84
    1076:	82 bb       	out	0x12, r24	; 18
/// <returns>現在（直前）のバッファへのアドレス</returns>
union controller_data *Toggle_RC_Tx_Buffer(void)
{
	union controller_data *ret;
	
	ret = &(_rc_tx_buf[_rc_tx_buf_selector]);
    1078:	90 91 3c 02 	lds	r25, 0x023C
	_rc_tx_buf_selector = (_rc_tx_buf_selector == 1) ? 0 : 1;
    107c:	10 92 3c 02 	sts	0x023C, r1
    1080:	91 30       	cpi	r25, 0x01	; 1
    1082:	19 f0       	breq	.+6      	; 0x108a <controler_main_process_loop+0x11a>
    1084:	81 e0       	ldi	r24, 0x01	; 1
    1086:	80 93 3c 02 	sts	0x023C, r24
	_rc_tx_buf_index = 0;
    108a:	10 92 3e 02 	sts	0x023E, r1
    108e:	10 92 3d 02 	sts	0x023D, r1
	
	i = 0;
	LED_ON_ALL;

	// 初期バッファへのポインタ取得
	txdata = Toggle_RC_Tx_Buffer();
    1092:	89 2f       	mov	r24, r25
    1094:	90 e0       	ldi	r25, 0x00	; 0
    1096:	88 0f       	add	r24, r24
    1098:	99 1f       	adc	r25, r25
    109a:	88 0f       	add	r24, r24
    109c:	99 1f       	adc	r25, r25
    109e:	8c 5c       	subi	r24, 0xCC	; 204
    10a0:	9d 4f       	sbci	r25, 0xFD	; 253
    10a2:	90 93 c1 02 	sts	0x02C1, r25
    10a6:	80 93 c0 02 	sts	0x02C0, r24
    milliseconds can be achieved.
 */
void
_delay_loop_2(uint16_t __count)
{
	__asm__ volatile (
    10aa:	88 ea       	ldi	r24, 0xA8	; 168
    10ac:	91 e6       	ldi	r25, 0x61	; 97
    10ae:	01 97       	sbiw	r24, 0x01	; 1
    10b0:	f1 f7       	brne	.-4      	; 0x10ae <controler_main_process_loop+0x13e>
    10b2:	c0 e0       	ldi	r28, 0x00	; 0
    10b4:	d0 e0       	ldi	r29, 0x00	; 0
    can be achieved.
*/
void
_delay_loop_1(uint8_t __count)
{
	__asm__ volatile (
    10b6:	54 e2       	ldi	r21, 0x24	; 36
    10b8:	c5 2e       	mov	r12, r21
    10ba:	54 ef       	ldi	r21, 0xF4	; 244
    10bc:	d5 2e       	mov	r13, r21
    10be:	02 e3       	ldi	r16, 0x32	; 50
/// <summary>
/// SL811HST専用レジスタへの書き込み
/// </summary>
void sl811_write(const unsigned char offset, const unsigned char data)
{
	*(__sl811_addr) = offset;
    10c0:	4d e0       	ldi	r20, 0x0D	; 13
    10c2:	b4 2e       	mov	r11, r20
	DELAY;
	*(__sl811_data) = data;
    10c4:	aa 24       	eor	r10, r10
    10c6:	aa 94       	dec	r10
/// 正常終了時 : 受信したデータのサイズ
/// 不正終了時 : HANDSHAKE_NAK [-1] もしくは HANDSHAKE_STALL [-2]
/// </returns>
int IntInTransfer(USBDevice *d, int ep, byte *data, int size)
{
	d->devinfo.ep = ep;
    10c8:	11 e0       	ldi	r17, 0x01	; 1
    milliseconds can be achieved.
 */
void
_delay_loop_2(uint16_t __count)
{
	__asm__ volatile (
    10ca:	34 ed       	ldi	r19, 0xD4	; 212
    10cc:	e3 2e       	mov	r14, r19
    10ce:	30 e3       	ldi	r19, 0x30	; 48
    10d0:	f3 2e       	mov	r15, r19
	_delay_ms(100);
	_delay_ms(100);
*/	
	while(1)
	{
		if(i==0&&(PINF&0x01)==0) i = 1;
    10d2:	20 97       	sbiw	r28, 0x00	; 0
    10d4:	11 f4       	brne	.+4      	; 0x10da <controler_main_process_loop+0x16a>
    10d6:	00 99       	sbic	0x00, 0	; 0
    10d8:	35 c0       	rjmp	.+106    	; 0x1144 <__stack+0x45>
		if(i==1&&(PINF&0x01)==1)
    10da:	00 99       	sbic	0x00, 0	; 0
    10dc:	03 c0       	rjmp	.+6      	; 0x10e4 <controler_main_process_loop+0x174>
    10de:	c1 e0       	ldi	r28, 0x01	; 1
    10e0:	d0 e0       	ldi	r29, 0x00	; 0
    10e2:	30 c0       	rjmp	.+96     	; 0x1144 <__stack+0x45>
    10e4:	c6 01       	movw	r24, r12
    10e6:	01 97       	sbiw	r24, 0x01	; 1
    10e8:	f1 f7       	brne	.-4      	; 0x10e6 <controler_main_process_loop+0x176>
    10ea:	c0 e0       	ldi	r28, 0x00	; 0
    10ec:	d0 e0       	ldi	r29, 0x00	; 0
		{
			_delay_ms(250);
			for(i = 0;i<5; i++)
			{
					MU2_SetGroupID(Group[SWITCH>>6]);						//グループ設定
    10ee:	e0 b1       	in	r30, 0x00	; 0
    10f0:	e0 95       	com	r30
    10f2:	e2 95       	swap	r30
    10f4:	e6 95       	lsr	r30
    10f6:	e6 95       	lsr	r30
    10f8:	e3 70       	andi	r30, 0x03	; 3
    10fa:	f0 e0       	ldi	r31, 0x00	; 0
    10fc:	e0 50       	subi	r30, 0x00	; 0
    10fe:	ff 4f       	sbci	r31, 0xFF	; 255
    1100:	80 81       	ld	r24, Z
    1102:	0e 94 db 1d 	call	0x3bb6	; 0x3bb6 <MU2_SetGroupID>
					//_delay_ms(100);
					MU2_SetChannel(Channel[SWITCH>>6][(SWITCH>>4) & 0x03]);	//チャンネル設定
    1106:	e0 b1       	in	r30, 0x00	; 0
    1108:	80 b1       	in	r24, 0x00	; 0
    110a:	80 95       	com	r24
    110c:	82 95       	swap	r24
    110e:	83 70       	andi	r24, 0x03	; 3
    1110:	e0 95       	com	r30
    1112:	e2 95       	swap	r30
    1114:	e6 95       	lsr	r30
    1116:	e6 95       	lsr	r30
    1118:	e3 70       	andi	r30, 0x03	; 3
    111a:	f0 e0       	ldi	r31, 0x00	; 0
    111c:	ee 0f       	add	r30, r30
    111e:	ff 1f       	adc	r31, r31
    1120:	ee 0f       	add	r30, r30
    1122:	ff 1f       	adc	r31, r31
    1124:	e8 0f       	add	r30, r24
    1126:	f1 1d       	adc	r31, r1
    1128:	ec 5f       	subi	r30, 0xFC	; 252
    112a:	fe 4f       	sbci	r31, 0xFE	; 254
    112c:	80 81       	ld	r24, Z
    112e:	0e 94 ab 1d 	call	0x3b56	; 0x3b56 <MU2_SetChannel>
    can be achieved.
*/
void
_delay_loop_1(uint8_t __count)
{
	__asm__ volatile (
    1132:	80 2f       	mov	r24, r16
    1134:	8a 95       	dec	r24
    1136:	f1 f7       	brne	.-4      	; 0x1134 <__stack+0x35>
	{
		if(i==0&&(PINF&0x01)==0) i = 1;
		if(i==1&&(PINF&0x01)==1)
		{
			_delay_ms(250);
			for(i = 0;i<5; i++)
    1138:	21 96       	adiw	r28, 0x01	; 1
    113a:	c5 30       	cpi	r28, 0x05	; 5
    113c:	d1 05       	cpc	r29, r1
    113e:	b9 f6       	brne	.-82     	; 0x10ee <controler_main_process_loop+0x17e>
    1140:	c0 e0       	ldi	r28, 0x00	; 0
    1142:	d0 e0       	ldi	r29, 0x00	; 0
    1144:	90 e0       	ldi	r25, 0x00	; 0
/// <summary>
/// SL811HST専用レジスタへの書き込み
/// </summary>
void sl811_write(const unsigned char offset, const unsigned char data)
{
	*(__sl811_addr) = offset;
    1146:	e0 91 c4 02 	lds	r30, 0x02C4
    114a:	f0 91 c5 02 	lds	r31, 0x02C5
    114e:	b0 82       	st	Z, r11
    1150:	80 2f       	mov	r24, r16
    1152:	8a 95       	dec	r24
    1154:	f1 f7       	brne	.-4      	; 0x1152 <__stack+0x53>
	DELAY;
	*(__sl811_data) = data;
    1156:	e0 91 d6 02 	lds	r30, 0x02D6
    115a:	f0 91 d7 02 	lds	r31, 0x02D7
    115e:	a0 82       	st	Z, r10
    1160:	80 2f       	mov	r24, r16
    1162:	8a 95       	dec	r24
    1164:	f1 f7       	brne	.-4      	; 0x1162 <__stack+0x63>
			i = 0;

		}

		// clear all interrupt bits
		for(status=0; status<20; status++)
    1166:	9f 5f       	subi	r25, 0xFF	; 255
    1168:	94 31       	cpi	r25, 0x14	; 20
    116a:	69 f7       	brne	.-38     	; 0x1146 <__stack+0x47>
		for(getinfosixaxis = 0;getinfosixaxis != 0x00;)
		{
			getinfosixaxis = sl811_read(SL811H_INTSTATUSREG);
		}

		IntInTransfer(&dev, 1, &(_sixaxis_buf[0][_sixaxis_buf_index]), SIXAXIS_DATA_LENGTH);
    116c:	60 91 22 02 	lds	r22, 0x0222
    1170:	70 e0       	ldi	r23, 0x00	; 0
    1172:	6e 53       	subi	r22, 0x3E	; 62
    1174:	7e 4f       	sbci	r23, 0xFE	; 254
/// 正常終了時 : 受信したデータのサイズ
/// 不正終了時 : HANDSHAKE_NAK [-1] もしくは HANDSHAKE_STALL [-2]
/// </returns>
int IntInTransfer(USBDevice *d, int ep, byte *data, int size)
{
	d->devinfo.ep = ep;
    1176:	10 93 92 02 	sts	0x0292, r17
	return SL811IntInTransfer(&(d->devinfo), data, size);
    117a:	81 e9       	ldi	r24, 0x91	; 145
    117c:	92 e0       	ldi	r25, 0x02	; 2
    117e:	40 e3       	ldi	r20, 0x30	; 48
    1180:	50 e0       	ldi	r21, 0x00	; 0
    1182:	0e 94 77 07 	call	0xeee	; 0xeee <SL811IntInTransfer>
/// <returns>現在（直前）のバッファへのアドレス</returns>
unsigned char *Toggle_SIXAXIS_Buffer(void)
{
	unsigned char *ret;
	
	ret = &(_sixaxis_buf[0][_sixaxis_buf_index]);
    1186:	e0 91 22 02 	lds	r30, 0x0222
	_sixaxis_buf_index = (_sixaxis_buf_index == 1) ? 0 : 1;
    118a:	10 92 22 02 	sts	0x0222, r1
    118e:	e1 30       	cpi	r30, 0x01	; 1
    1190:	11 f0       	breq	.+4      	; 0x1196 <__stack+0x97>
    1192:	10 93 22 02 	sts	0x0222, r17
			getinfosixaxis = sl811_read(SL811H_INTSTATUSREG);
		}

		IntInTransfer(&dev, 1, &(_sixaxis_buf[0][_sixaxis_buf_index]), SIXAXIS_DATA_LENGTH);

		sixaxis = (SIXAXIS*)((Toggle_SIXAXIS_Buffer()) + 2);
    1196:	f0 e0       	ldi	r31, 0x00	; 0
    1198:	ee 53       	subi	r30, 0x3E	; 62
    119a:	fe 4f       	sbci	r31, 0xFE	; 254
    119c:	32 96       	adiw	r30, 0x02	; 2
    119e:	f0 93 c3 02 	sts	0x02C3, r31
    11a2:	e0 93 c2 02 	sts	0x02C2, r30
    11a6:	32 97       	sbiw	r30, 0x02	; 2
		
		// Button
		txdata->detail.Button.LEFT = sixaxis->Button.LEFT;
    11a8:	a0 91 c0 02 	lds	r26, 0x02C0
    11ac:	b0 91 c1 02 	lds	r27, 0x02C1
    11b0:	92 81       	ldd	r25, Z+2	; 0x02
    11b2:	99 1f       	adc	r25, r25
    11b4:	99 27       	eor	r25, r25
    11b6:	99 1f       	adc	r25, r25
    11b8:	8c 91       	ld	r24, X
    11ba:	8e 7f       	andi	r24, 0xFE	; 254
    11bc:	89 2b       	or	r24, r25
    11be:	8c 93       	st	X, r24
		txdata->detail.Button.DOWN = sixaxis->Button.DOWN;
    11c0:	a0 91 c0 02 	lds	r26, 0x02C0
    11c4:	b0 91 c1 02 	lds	r27, 0x02C1
    11c8:	e0 91 c2 02 	lds	r30, 0x02C2
    11cc:	f0 91 c3 02 	lds	r31, 0x02C3
    11d0:	90 81       	ld	r25, Z
    11d2:	92 95       	swap	r25
    11d4:	96 95       	lsr	r25
    11d6:	92 70       	andi	r25, 0x02	; 2
    11d8:	8c 91       	ld	r24, X
    11da:	8d 7f       	andi	r24, 0xFD	; 253
    11dc:	89 2b       	or	r24, r25
    11de:	8c 93       	st	X, r24
		txdata->detail.Button.RIGHT = sixaxis->Button.RIGHT;
    11e0:	a0 91 c0 02 	lds	r26, 0x02C0
    11e4:	b0 91 c1 02 	lds	r27, 0x02C1
    11e8:	e0 91 c2 02 	lds	r30, 0x02C2
    11ec:	f0 91 c3 02 	lds	r31, 0x02C3
    11f0:	90 81       	ld	r25, Z
    11f2:	96 95       	lsr	r25
    11f4:	96 95       	lsr	r25
    11f6:	96 95       	lsr	r25
    11f8:	94 70       	andi	r25, 0x04	; 4
    11fa:	8c 91       	ld	r24, X
    11fc:	8b 7f       	andi	r24, 0xFB	; 251
    11fe:	89 2b       	or	r24, r25
    1200:	8c 93       	st	X, r24
		txdata->detail.Button.UP = sixaxis->Button.UP;
    1202:	a0 91 c0 02 	lds	r26, 0x02C0
    1206:	b0 91 c1 02 	lds	r27, 0x02C1
    120a:	e0 91 c2 02 	lds	r30, 0x02C2
    120e:	f0 91 c3 02 	lds	r31, 0x02C3
    1212:	90 81       	ld	r25, Z
    1214:	96 95       	lsr	r25
    1216:	98 70       	andi	r25, 0x08	; 8
    1218:	8c 91       	ld	r24, X
    121a:	87 7f       	andi	r24, 0xF7	; 247
    121c:	89 2b       	or	r24, r25
    121e:	8c 93       	st	X, r24
		txdata->detail.Button.SQU = sixaxis->Button.SQU;
    1220:	a0 91 c0 02 	lds	r26, 0x02C0
    1224:	b0 91 c1 02 	lds	r27, 0x02C1
    1228:	e0 91 c2 02 	lds	r30, 0x02C2
    122c:	f0 91 c3 02 	lds	r31, 0x02C3
    1230:	91 81       	ldd	r25, Z+1	; 0x01
    1232:	99 1f       	adc	r25, r25
    1234:	99 27       	eor	r25, r25
    1236:	99 1f       	adc	r25, r25
    1238:	92 95       	swap	r25
    123a:	90 7f       	andi	r25, 0xF0	; 240
    123c:	8c 91       	ld	r24, X
    123e:	8f 7e       	andi	r24, 0xEF	; 239
    1240:	89 2b       	or	r24, r25
    1242:	8c 93       	st	X, r24
		txdata->detail.Button.BAT = sixaxis->Button.BAT;
    1244:	a0 91 c0 02 	lds	r26, 0x02C0
    1248:	b0 91 c1 02 	lds	r27, 0x02C1
    124c:	e0 91 c2 02 	lds	r30, 0x02C2
    1250:	f0 91 c3 02 	lds	r31, 0x02C3
    1254:	91 81       	ldd	r25, Z+1	; 0x01
    1256:	96 95       	lsr	r25
    1258:	90 72       	andi	r25, 0x20	; 32
    125a:	8c 91       	ld	r24, X
    125c:	8f 7d       	andi	r24, 0xDF	; 223
    125e:	89 2b       	or	r24, r25
    1260:	8c 93       	st	X, r24
		txdata->detail.Button.CIR = sixaxis->Button.CIR;
    1262:	a0 91 c0 02 	lds	r26, 0x02C0
    1266:	b0 91 c1 02 	lds	r27, 0x02C1
    126a:	e0 91 c2 02 	lds	r30, 0x02C2
    126e:	f0 91 c3 02 	lds	r31, 0x02C3
    1272:	91 81       	ldd	r25, Z+1	; 0x01
    1274:	99 0f       	add	r25, r25
    1276:	90 74       	andi	r25, 0x40	; 64
    1278:	8c 91       	ld	r24, X
    127a:	8f 7b       	andi	r24, 0xBF	; 191
    127c:	89 2b       	or	r24, r25
    127e:	8c 93       	st	X, r24
		txdata->detail.Button.TRI = sixaxis->Button.TRI;
    1280:	a0 91 c0 02 	lds	r26, 0x02C0
    1284:	b0 91 c1 02 	lds	r27, 0x02C1
    1288:	e0 91 c2 02 	lds	r30, 0x02C2
    128c:	f0 91 c3 02 	lds	r31, 0x02C3
    1290:	91 81       	ldd	r25, Z+1	; 0x01
    1292:	92 95       	swap	r25
    1294:	9f 70       	andi	r25, 0x0F	; 15
    1296:	97 95       	ror	r25
    1298:	99 27       	eor	r25, r25
    129a:	97 95       	ror	r25
    129c:	8c 91       	ld	r24, X
    129e:	8f 77       	andi	r24, 0x7F	; 127
    12a0:	89 2b       	or	r24, r25
    12a2:	8c 93       	st	X, r24
		txdata->detail.Button.R1 = sixaxis->Button.R1;
    12a4:	a0 91 c0 02 	lds	r26, 0x02C0
    12a8:	b0 91 c1 02 	lds	r27, 0x02C1
    12ac:	e0 91 c2 02 	lds	r30, 0x02C2
    12b0:	f0 91 c3 02 	lds	r31, 0x02C3
    12b4:	91 81       	ldd	r25, Z+1	; 0x01
    12b6:	96 95       	lsr	r25
    12b8:	96 95       	lsr	r25
    12ba:	96 95       	lsr	r25
    12bc:	91 70       	andi	r25, 0x01	; 1
    12be:	11 96       	adiw	r26, 0x01	; 1
    12c0:	8c 91       	ld	r24, X
    12c2:	11 97       	sbiw	r26, 0x01	; 1
    12c4:	8e 7f       	andi	r24, 0xFE	; 254
    12c6:	89 2b       	or	r24, r25
    12c8:	11 96       	adiw	r26, 0x01	; 1
    12ca:	8c 93       	st	X, r24
		txdata->detail.Button.L1 = sixaxis->Button.L1;
    12cc:	a0 91 c0 02 	lds	r26, 0x02C0
    12d0:	b0 91 c1 02 	lds	r27, 0x02C1
    12d4:	e0 91 c2 02 	lds	r30, 0x02C2
    12d8:	f0 91 c3 02 	lds	r31, 0x02C3
    12dc:	91 81       	ldd	r25, Z+1	; 0x01
    12de:	96 95       	lsr	r25
    12e0:	92 70       	andi	r25, 0x02	; 2
    12e2:	11 96       	adiw	r26, 0x01	; 1
    12e4:	8c 91       	ld	r24, X
    12e6:	11 97       	sbiw	r26, 0x01	; 1
    12e8:	8d 7f       	andi	r24, 0xFD	; 253
    12ea:	89 2b       	or	r24, r25
    12ec:	11 96       	adiw	r26, 0x01	; 1
    12ee:	8c 93       	st	X, r24
		txdata->detail.Button.START = sixaxis->Button.START;
    12f0:	a0 91 c0 02 	lds	r26, 0x02C0
    12f4:	b0 91 c1 02 	lds	r27, 0x02C1
    12f8:	e0 91 c2 02 	lds	r30, 0x02C2
    12fc:	f0 91 c3 02 	lds	r31, 0x02C3
    1300:	90 81       	ld	r25, Z
    1302:	99 0f       	add	r25, r25
    1304:	99 0f       	add	r25, r25
    1306:	99 0f       	add	r25, r25
    1308:	90 74       	andi	r25, 0x40	; 64
    130a:	11 96       	adiw	r26, 0x01	; 1
    130c:	8c 91       	ld	r24, X
    130e:	11 97       	sbiw	r26, 0x01	; 1
    1310:	8f 7b       	andi	r24, 0xBF	; 191
    1312:	89 2b       	or	r24, r25
    1314:	11 96       	adiw	r26, 0x01	; 1
    1316:	8c 93       	st	X, r24
		txdata->detail.Button.SELECT = sixaxis->Button.SELECT;
    1318:	a0 91 c0 02 	lds	r26, 0x02C0
    131c:	b0 91 c1 02 	lds	r27, 0x02C1
    1320:	e0 91 c2 02 	lds	r30, 0x02C2
    1324:	f0 91 c3 02 	lds	r31, 0x02C3
    1328:	90 81       	ld	r25, Z
    132a:	97 95       	ror	r25
    132c:	99 27       	eor	r25, r25
    132e:	97 95       	ror	r25
    1330:	11 96       	adiw	r26, 0x01	; 1
    1332:	8c 91       	ld	r24, X
    1334:	11 97       	sbiw	r26, 0x01	; 1
    1336:	8f 77       	andi	r24, 0x7F	; 127
    1338:	89 2b       	or	r24, r25
    133a:	11 96       	adiw	r26, 0x01	; 1
    133c:	8c 93       	st	X, r24
		// Button
		
		// Analog Button
		if( sixaxis->AnalogButton.R2 < 100 )		tmp = 0;
    133e:	e0 91 c2 02 	lds	r30, 0x02C2
    1342:	f0 91 c3 02 	lds	r31, 0x02C3
    1346:	81 89       	ldd	r24, Z+17	; 0x11
    1348:	84 36       	cpi	r24, 0x64	; 100
    134a:	18 f4       	brcc	.+6      	; 0x1352 <__stack+0x253>
    134c:	80 e0       	ldi	r24, 0x00	; 0
    134e:	90 e0       	ldi	r25, 0x00	; 0
    1350:	0c c0       	rjmp	.+24     	; 0x136a <__stack+0x26b>
		else if( sixaxis->AnalogButton.R2 < 180 )	tmp = 1;
    1352:	84 3b       	cpi	r24, 0xB4	; 180
    1354:	18 f4       	brcc	.+6      	; 0x135c <__stack+0x25d>
    1356:	81 e0       	ldi	r24, 0x01	; 1
    1358:	90 e0       	ldi	r25, 0x00	; 0
    135a:	07 c0       	rjmp	.+14     	; 0x136a <__stack+0x26b>
		else if( sixaxis->AnalogButton.R2 < 255 )	tmp = 2;
    135c:	8f 3f       	cpi	r24, 0xFF	; 255
    135e:	19 f4       	brne	.+6      	; 0x1366 <__stack+0x267>
    1360:	83 e0       	ldi	r24, 0x03	; 3
    1362:	90 e0       	ldi	r25, 0x00	; 0
    1364:	02 c0       	rjmp	.+4      	; 0x136a <__stack+0x26b>
    1366:	82 e0       	ldi	r24, 0x02	; 2
    1368:	90 e0       	ldi	r25, 0x00	; 0
		else										tmp = 3;
		txdata->detail.Button.R2 = tmp;
    136a:	e0 91 c0 02 	lds	r30, 0x02C0
    136e:	f0 91 c1 02 	lds	r31, 0x02C1
    1372:	98 2f       	mov	r25, r24
    1374:	93 70       	andi	r25, 0x03	; 3
    1376:	99 0f       	add	r25, r25
    1378:	99 0f       	add	r25, r25
    137a:	81 81       	ldd	r24, Z+1	; 0x01
    137c:	83 7f       	andi	r24, 0xF3	; 243
    137e:	89 2b       	or	r24, r25
    1380:	81 83       	std	Z+1, r24	; 0x01
		
		if( sixaxis->AnalogButton.L2 < 100 )		tmp = 0;
    1382:	e0 91 c2 02 	lds	r30, 0x02C2
    1386:	f0 91 c3 02 	lds	r31, 0x02C3
    138a:	80 89       	ldd	r24, Z+16	; 0x10
    138c:	84 36       	cpi	r24, 0x64	; 100
    138e:	18 f4       	brcc	.+6      	; 0x1396 <__stack+0x297>
    1390:	80 e0       	ldi	r24, 0x00	; 0
    1392:	90 e0       	ldi	r25, 0x00	; 0
    1394:	0c c0       	rjmp	.+24     	; 0x13ae <__stack+0x2af>
		else if( sixaxis->AnalogButton.L2 < 180 )	tmp = 1;
    1396:	84 3b       	cpi	r24, 0xB4	; 180
    1398:	18 f4       	brcc	.+6      	; 0x13a0 <__stack+0x2a1>
    139a:	81 e0       	ldi	r24, 0x01	; 1
    139c:	90 e0       	ldi	r25, 0x00	; 0
    139e:	07 c0       	rjmp	.+14     	; 0x13ae <__stack+0x2af>
		else if( sixaxis->AnalogButton.L2 < 255 )	tmp = 2;
    13a0:	8f 3f       	cpi	r24, 0xFF	; 255
    13a2:	19 f4       	brne	.+6      	; 0x13aa <__stack+0x2ab>
    13a4:	83 e0       	ldi	r24, 0x03	; 3
    13a6:	90 e0       	ldi	r25, 0x00	; 0
    13a8:	02 c0       	rjmp	.+4      	; 0x13ae <__stack+0x2af>
    13aa:	82 e0       	ldi	r24, 0x02	; 2
    13ac:	90 e0       	ldi	r25, 0x00	; 0
		else										tmp = 3;
		txdata->detail.Button.L2 = tmp;
    13ae:	e0 91 c0 02 	lds	r30, 0x02C0
    13b2:	f0 91 c1 02 	lds	r31, 0x02C1
    13b6:	98 2f       	mov	r25, r24
    13b8:	93 70       	andi	r25, 0x03	; 3
    13ba:	92 95       	swap	r25
    13bc:	90 7f       	andi	r25, 0xF0	; 240
    13be:	81 81       	ldd	r24, Z+1	; 0x01
    13c0:	8f 7c       	andi	r24, 0xCF	; 207
    13c2:	89 2b       	or	r24, r25
    13c4:	81 83       	std	Z+1, r24	; 0x01
		// Analog Button
		
		// Analog Stick
		L_STICK_X = (sixaxis->AnalogL.X)/17;
    13c6:	e0 91 c2 02 	lds	r30, 0x02C2
    13ca:	f0 91 c3 02 	lds	r31, 0x02C3
    13ce:	84 81       	ldd	r24, Z+4	; 0x04
    13d0:	61 e1       	ldi	r22, 0x11	; 17
    13d2:	0e 94 ac 2a 	call	0x5558	; 0x5558 <__udivmodqi4>
    13d6:	28 2f       	mov	r18, r24
		if(L_STICK_X == 15) L_STICK_X = 14;
    13d8:	8f 30       	cpi	r24, 0x0F	; 15
    13da:	09 f4       	brne	.+2      	; 0x13de <__stack+0x2df>
    13dc:	2e e0       	ldi	r18, 0x0E	; 14

		L_STICK_Y = (sixaxis->AnalogL.Y)/17;
    13de:	85 81       	ldd	r24, Z+5	; 0x05
    13e0:	61 e1       	ldi	r22, 0x11	; 17
    13e2:	0e 94 ac 2a 	call	0x5558	; 0x5558 <__udivmodqi4>
    13e6:	98 2f       	mov	r25, r24
		if(L_STICK_Y == 15) L_STICK_Y = 14;
    13e8:	8f 30       	cpi	r24, 0x0F	; 15
    13ea:	09 f4       	brne	.+2      	; 0x13ee <__stack+0x2ef>
    13ec:	9e e0       	ldi	r25, 0x0E	; 14

		txdata->detail.AnalogL.X = L_STICK_X;
    13ee:	e0 91 c0 02 	lds	r30, 0x02C0
    13f2:	f0 91 c1 02 	lds	r31, 0x02C1
    13f6:	2f 70       	andi	r18, 0x0F	; 15
    13f8:	82 81       	ldd	r24, Z+2	; 0x02
    13fa:	80 7f       	andi	r24, 0xF0	; 240
    13fc:	82 2b       	or	r24, r18
    13fe:	82 83       	std	Z+2, r24	; 0x02
		txdata->detail.AnalogL.Y = L_STICK_Y;
    1400:	e0 91 c0 02 	lds	r30, 0x02C0
    1404:	f0 91 c1 02 	lds	r31, 0x02C1
    1408:	92 95       	swap	r25
    140a:	90 7f       	andi	r25, 0xF0	; 240
    140c:	82 81       	ldd	r24, Z+2	; 0x02
    140e:	8f 70       	andi	r24, 0x0F	; 15
    1410:	89 2b       	or	r24, r25
    1412:	82 83       	std	Z+2, r24	; 0x02

		R_STICK_X = (sixaxis->AnalogR.X)/17;
    1414:	e0 91 c2 02 	lds	r30, 0x02C2
    1418:	f0 91 c3 02 	lds	r31, 0x02C3
    141c:	86 81       	ldd	r24, Z+6	; 0x06
    141e:	61 e1       	ldi	r22, 0x11	; 17
    1420:	0e 94 ac 2a 	call	0x5558	; 0x5558 <__udivmodqi4>
    1424:	28 2f       	mov	r18, r24
		if(R_STICK_X == 15) R_STICK_X = 14;
    1426:	8f 30       	cpi	r24, 0x0F	; 15
    1428:	09 f4       	brne	.+2      	; 0x142c <__stack+0x32d>
    142a:	2e e0       	ldi	r18, 0x0E	; 14

		R_STICK_Y = (sixaxis->AnalogR.Y)/17;
    142c:	87 81       	ldd	r24, Z+7	; 0x07
    142e:	61 e1       	ldi	r22, 0x11	; 17
    1430:	0e 94 ac 2a 	call	0x5558	; 0x5558 <__udivmodqi4>
    1434:	98 2f       	mov	r25, r24
		if(R_STICK_Y == 15) R_STICK_Y = 14;		
    1436:	8f 30       	cpi	r24, 0x0F	; 15
    1438:	09 f4       	brne	.+2      	; 0x143c <__stack+0x33d>
    143a:	9e e0       	ldi	r25, 0x0E	; 14

		txdata->detail.AnalogR.X = R_STICK_X;
    143c:	e0 91 c0 02 	lds	r30, 0x02C0
    1440:	f0 91 c1 02 	lds	r31, 0x02C1
    1444:	2f 70       	andi	r18, 0x0F	; 15
    1446:	83 81       	ldd	r24, Z+3	; 0x03
    1448:	80 7f       	andi	r24, 0xF0	; 240
    144a:	82 2b       	or	r24, r18
    144c:	83 83       	std	Z+3, r24	; 0x03
		txdata->detail.AnalogR.Y = R_STICK_Y;
    144e:	e0 91 c0 02 	lds	r30, 0x02C0
    1452:	f0 91 c1 02 	lds	r31, 0x02C1
    1456:	92 95       	swap	r25
    1458:	90 7f       	andi	r25, 0xF0	; 240
    145a:	83 81       	ldd	r24, Z+3	; 0x03
    145c:	8f 70       	andi	r24, 0x0F	; 15
    145e:	89 2b       	or	r24, r25
    1460:	83 83       	std	Z+3, r24	; 0x03
/// <returns>現在（直前）のバッファへのアドレス</returns>
union controller_data *Toggle_RC_Tx_Buffer(void)
{
	union controller_data *ret;
	
	ret = &(_rc_tx_buf[_rc_tx_buf_selector]);
    1462:	80 91 3c 02 	lds	r24, 0x023C
    1466:	28 2f       	mov	r18, r24
    1468:	30 e0       	ldi	r19, 0x00	; 0
    146a:	22 0f       	add	r18, r18
    146c:	33 1f       	adc	r19, r19
    146e:	22 0f       	add	r18, r18
    1470:	33 1f       	adc	r19, r19
    1472:	2c 5c       	subi	r18, 0xCC	; 204
    1474:	3d 4f       	sbci	r19, 0xFD	; 253
	_rc_tx_buf_selector = (_rc_tx_buf_selector == 1) ? 0 : 1;
    1476:	10 92 3c 02 	sts	0x023C, r1
    147a:	81 30       	cpi	r24, 0x01	; 1
    147c:	11 f0       	breq	.+4      	; 0x1482 <__stack+0x383>
    147e:	10 93 3c 02 	sts	0x023C, r17
	_rc_tx_buf_index = 0;
    1482:	10 92 3e 02 	sts	0x023E, r1
    1486:	10 92 3d 02 	sts	0x023D, r1
//		printf("%02x ",sixaxis->AnalogR.X);
//		printf("%02x ",sixaxis->AnalogR.Y);

//**/		printf("\n");
		
		txdata = Toggle_RC_Tx_Buffer();
    148a:	30 93 c1 02 	sts	0x02C1, r19
    148e:	20 93 c0 02 	sts	0x02C0, r18
		if((PINF&0x01)==1)
    1492:	00 9b       	sbis	0x00, 0	; 0
    1494:	05 c0       	rjmp	.+10     	; 0x14a0 <__stack+0x3a1>
		{
			MU2_SendData(txdata->buf,RC_DATA_LENGTH);
    1496:	c9 01       	movw	r24, r18
    1498:	64 e0       	ldi	r22, 0x04	; 4
    149a:	0e 94 ae 17 	call	0x2f5c	; 0x2f5c <MU2_SendData>
    149e:	04 c0       	rjmp	.+8      	; 0x14a8 <__stack+0x3a9>
		
		}
		else
		{
			MU2_SendDataBus(txdata->buf,RC_DATA_LENGTH);
    14a0:	c9 01       	movw	r24, r18
    14a2:	64 e0       	ldi	r22, 0x04	; 4
    14a4:	0e 94 11 1e 	call	0x3c22	; 0x3c22 <MU2_SendDataBus>
    milliseconds can be achieved.
 */
void
_delay_loop_2(uint16_t __count)
{
	__asm__ volatile (
    14a8:	c7 01       	movw	r24, r14
    14aa:	01 97       	sbiw	r24, 0x01	; 1
    14ac:	f1 f7       	brne	.-4      	; 0x14aa <__stack+0x3ab>
    14ae:	11 ce       	rjmp	.-990    	; 0x10d2 <controler_main_process_loop+0x162>

000014b0 <main>:
							   {0x25,0x26,0x27,0x28},
							   {0x2A,0x2B,0x2C,0x2D}};

	
int main(void)
{
    14b0:	8f 92       	push	r8
    14b2:	9f 92       	push	r9
    14b4:	af 92       	push	r10
    14b6:	bf 92       	push	r11
    14b8:	cf 92       	push	r12
    14ba:	df 92       	push	r13
    14bc:	ef 92       	push	r14
    14be:	ff 92       	push	r15
    14c0:	0f 93       	push	r16
    14c2:	1f 93       	push	r17
    14c4:	df 93       	push	r29
    14c6:	cf 93       	push	r28
    14c8:	00 d0       	rcall	.+0      	; 0x14ca <main+0x1a>
    14ca:	00 d0       	rcall	.+0      	; 0x14cc <main+0x1c>
    14cc:	cd b7       	in	r28, 0x3d	; 61
    14ce:	de b7       	in	r29, 0x3e	; 62

//以下関数

void initialize(void)//IO_SETING
{
	DDRD = 0xFE;//PD1~7-->OUT
    14d0:	8e ef       	ldi	r24, 0xFE	; 254
    14d2:	81 bb       	out	0x11, r24	; 17
	PORTD = 0x82;//PD 1000 001*
    14d4:	82 e8       	ldi	r24, 0x82	; 130
    14d6:	82 bb       	out	0x12, r24	; 18
	DDRE = 0x02;
    14d8:	82 e0       	ldi	r24, 0x02	; 2
    14da:	82 b9       	out	0x02, r24	; 2
	DDRF = 0x00;
    14dc:	10 92 61 00 	sts	0x0061, r1
	PORTF = 0xFF;
    14e0:	8f ef       	ldi	r24, 0xFF	; 255
    14e2:	80 93 62 00 	sts	0x0062, r24
	int i, k = 0;
	int RESETCounter = 0;
	volatile int tmp, speed;

	initialize();
	mem_init();
    14e6:	0e 94 73 00 	call	0xe6	; 0xe6 <mem_init>
//	uart_init(0,UART_TE|UART_RE,9600);
	uart_init(0,UART_TE,19200);
    14ea:	80 e0       	ldi	r24, 0x00	; 0
    14ec:	90 e0       	ldi	r25, 0x00	; 0
    14ee:	68 e0       	ldi	r22, 0x08	; 8
    14f0:	20 e0       	ldi	r18, 0x00	; 0
    14f2:	3b e4       	ldi	r19, 0x4B	; 75
    14f4:	40 e0       	ldi	r20, 0x00	; 0
    14f6:	50 e0       	ldi	r21, 0x00	; 0
    14f8:	0e 94 32 13 	call	0x2664	; 0x2664 <uart_init>
//	uart_init(1,UART_TE,19200);

	set_printf_output(uart0_putchar);
    14fc:	86 e8       	ldi	r24, 0x86	; 134
    14fe:	94 e1       	ldi	r25, 0x14	; 20
    1500:	0e 94 2a 0b 	call	0x1654	; 0x1654 <set_printf_output>
    1504:	ee 24       	eor	r14, r14
    1506:	ff 24       	eor	r15, r15
    1508:	cc 24       	eor	r12, r12
    150a:	dd 24       	eor	r13, r13
    150c:	b4 e2       	ldi	r27, 0x24	; 36
    150e:	ab 2e       	mov	r10, r27
    1510:	b4 ef       	ldi	r27, 0xF4	; 244
    1512:	bb 2e       	mov	r11, r27
    1514:	a8 ea       	ldi	r26, 0xA8	; 168
    1516:	8a 2e       	mov	r8, r26
    1518:	a1 e6       	ldi	r26, 0x61	; 97
    151a:	9a 2e       	mov	r9, r26
    151c:	04 c0       	rjmp	.+8      	; 0x1526 <main+0x76>
    151e:	ee 24       	eor	r14, r14
    1520:	ff 24       	eor	r15, r15
    1522:	cc 24       	eor	r12, r12
    1524:	dd 24       	eor	r13, r13
	_delay_ms(100);
	_delay_ms(100);
*/
RESET:

	LED_OFF_ALL;
    1526:	82 b3       	in	r24, 0x12	; 18
    1528:	8b 7a       	andi	r24, 0xAB	; 171
    152a:	82 bb       	out	0x12, r24	; 18
	
	cli();	
    152c:	f8 94       	cli

	LED0_ON;
    152e:	92 9a       	sbi	0x12, 2	; 18

//**/	DBG("USB_SET_Stert\n");

	VBUS_ON;
    1530:	97 98       	cbi	0x12, 7	; 18
    1532:	80 e0       	ldi	r24, 0x00	; 0
    1534:	90 e0       	ldi	r25, 0x00	; 0
    1536:	f5 01       	movw	r30, r10
    1538:	31 97       	sbiw	r30, 0x01	; 1
    153a:	f1 f7       	brne	.-4      	; 0x1538 <main+0x88>
	for(i = 0;i <= 20; i++ ) _delay_ms(250);
    153c:	01 96       	adiw	r24, 0x01	; 1
    153e:	85 31       	cpi	r24, 0x15	; 21
    1540:	91 05       	cpc	r25, r1
    1542:	c9 f7       	brne	.-14     	; 0x1536 <main+0x86>

	tmp = USBInit();
    1544:	0e 94 76 04 	call	0x8ec	; 0x8ec <USBInit>
    1548:	9a 83       	std	Y+2, r25	; 0x02
    154a:	89 83       	std	Y+1, r24	; 0x01
	if( tmp == 0 )
    154c:	89 81       	ldd	r24, Y+1	; 0x01
    154e:	9a 81       	ldd	r25, Y+2	; 0x02
    1550:	89 2b       	or	r24, r25
    1552:	49 f7       	brne	.-46     	; 0x1526 <main+0x76>
	{
		speed = SL811USBReset();
    1554:	0e 94 07 03 	call	0x60e	; 0x60e <SL811USBReset>
    1558:	9c 83       	std	Y+4, r25	; 0x04
    155a:	8b 83       	std	Y+3, r24	; 0x03
//**/		DBG("USBReset() - %s\n", ((speed == USB_NONE) ? "NONE" : ((speed == USB_LOW) ? "LOW" : ((speed == USB_FULL) ? "FULL" : "???"))));
		if( speed == USB_LOW || speed == USB_FULL )
    155c:	8b 81       	ldd	r24, Y+3	; 0x03
    155e:	9c 81       	ldd	r25, Y+4	; 0x04
    1560:	01 97       	sbiw	r24, 0x01	; 1
    1562:	29 f0       	breq	.+10     	; 0x156e <main+0xbe>
    1564:	8b 81       	ldd	r24, Y+3	; 0x03
    1566:	9c 81       	ldd	r25, Y+4	; 0x04
    1568:	02 97       	sbiw	r24, 0x02	; 2
    156a:	09 f0       	breq	.+2      	; 0x156e <main+0xbe>
    156c:	4f c0       	rjmp	.+158    	; 0x160c <main+0x15c>
		{
//**/			DBG("Device initialize...\n");
			LED_OFF_ALL;
    156e:	82 b3       	in	r24, 0x12	; 18
    1570:	8b 7a       	andi	r24, 0xAB	; 171
    1572:	82 bb       	out	0x12, r24	; 18
			LED1_ON;
    1574:	94 9a       	sbi	0x12, 4	; 18
    1576:	00 e0       	ldi	r16, 0x00	; 0
    1578:	10 e0       	ldi	r17, 0x00	; 0
			for( i=0; i<5; i++ )
			{
				tmp = USBDeviceInit_in3(&dev, NULL, speed);
    157a:	4b 81       	ldd	r20, Y+3	; 0x03
    157c:	5c 81       	ldd	r21, Y+4	; 0x04
    157e:	81 e9       	ldi	r24, 0x91	; 145
    1580:	92 e0       	ldi	r25, 0x02	; 2
    1582:	60 e0       	ldi	r22, 0x00	; 0
    1584:	70 e0       	ldi	r23, 0x00	; 0
    1586:	0e 94 d3 05 	call	0xba6	; 0xba6 <USBDeviceInit_in3>
    158a:	9a 83       	std	Y+2, r25	; 0x02
    158c:	89 83       	std	Y+1, r24	; 0x01
//**/				DBG("return_tmp[USBDeviceInit_in3]-->%d\n",tmp);
				if( tmp == 0 )	break;
    158e:	89 81       	ldd	r24, Y+1	; 0x01
    1590:	9a 81       	ldd	r25, Y+2	; 0x02
    1592:	89 2b       	or	r24, r25
    1594:	41 f0       	breq	.+16     	; 0x15a6 <main+0xf6>
    1596:	c4 01       	movw	r24, r8
    1598:	01 97       	sbiw	r24, 0x01	; 1
    159a:	f1 f7       	brne	.-4      	; 0x1598 <main+0xe8>
		if( speed == USB_LOW || speed == USB_FULL )
		{
//**/			DBG("Device initialize...\n");
			LED_OFF_ALL;
			LED1_ON;
			for( i=0; i<5; i++ )
    159c:	0f 5f       	subi	r16, 0xFF	; 255
    159e:	1f 4f       	sbci	r17, 0xFF	; 255
    15a0:	05 30       	cpi	r16, 0x05	; 5
    15a2:	11 05       	cpc	r17, r1
    15a4:	51 f7       	brne	.-44     	; 0x157a <main+0xca>
				tmp = USBDeviceInit_in3(&dev, NULL, speed);
//**/				DBG("return_tmp[USBDeviceInit_in3]-->%d\n",tmp);
				if( tmp == 0 )	break;
				_delay_ms(100);
			}
			if( tmp == 0 )
    15a6:	89 81       	ldd	r24, Y+1	; 0x01
    15a8:	9a 81       	ldd	r25, Y+2	; 0x02
    15aa:	89 2b       	or	r24, r25
    15ac:	21 f5       	brne	.+72     	; 0x15f6 <main+0x146>
			{
//**/				DBG("Device initialize succeed!\n");
//**/				DBG("Sony SIXAXIS\n");
				LED_OFF_ALL;
    15ae:	82 b3       	in	r24, 0x12	; 18
    15b0:	8b 7a       	andi	r24, 0xAB	; 171
    15b2:	82 bb       	out	0x12, r24	; 18
				LED0_ON;
    15b4:	92 9a       	sbi	0x12, 2	; 18
				LED1_ON;
    15b6:	94 9a       	sbi	0x12, 4	; 18
    15b8:	c4 01       	movw	r24, r8
    15ba:	01 97       	sbiw	r24, 0x01	; 1
    15bc:	f1 f7       	brne	.-4      	; 0x15ba <main+0x10a>
				_delay_ms(100);
				while(1)
				{
					tmp = Sony_SIXAXIS_Init(&dev);
    15be:	81 e9       	ldi	r24, 0x91	; 145
    15c0:	92 e0       	ldi	r25, 0x02	; 2
    15c2:	0e 94 3e 07 	call	0xe7c	; 0xe7c <Sony_SIXAXIS_Init>
    15c6:	9a 83       	std	Y+2, r25	; 0x02
    15c8:	89 83       	std	Y+1, r24	; 0x01
    15ca:	c5 01       	movw	r24, r10
    15cc:	01 97       	sbiw	r24, 0x01	; 1
    15ce:	f1 f7       	brne	.-4      	; 0x15cc <main+0x11c>
					_delay_ms(250);	// 確実にSIXAXISからデータを受信
//**/					DBG("return_tmp[Sony_SIXAXIS_Init]-->%d\n",tmp);
					if(tmp==0)break;
    15d0:	89 81       	ldd	r24, Y+1	; 0x01
    15d2:	9a 81       	ldd	r25, Y+2	; 0x02
    15d4:	89 2b       	or	r24, r25
    15d6:	41 f0       	breq	.+16     	; 0x15e8 <main+0x138>
					if(k>5)goto ERROR;
    15d8:	86 e0       	ldi	r24, 0x06	; 6
    15da:	e8 16       	cp	r14, r24
    15dc:	f1 04       	cpc	r15, r1
    15de:	7c f4       	brge	.+30     	; 0x15fe <main+0x14e>
					k++;
    15e0:	08 94       	sec
    15e2:	e1 1c       	adc	r14, r1
    15e4:	f1 1c       	adc	r15, r1
    15e6:	eb cf       	rjmp	.-42     	; 0x15be <main+0x10e>
				}
				LED_OFF_ALL;
    15e8:	82 b3       	in	r24, 0x12	; 18
    15ea:	8b 7a       	andi	r24, 0xAB	; 171
    15ec:	82 bb       	out	0x12, r24	; 18
				LED2_ON;
    15ee:	96 9a       	sbi	0x12, 6	; 18
				controler_main_process_loop();
    15f0:	0e 94 b8 07 	call	0xf70	; 0xf70 <controler_main_process_loop>
    15f4:	0b c0       	rjmp	.+22     	; 0x160c <main+0x15c>
			}
			else
			{
//**/				DBG("Device initialize error!\n");
				if(k>10)goto ERROR;
    15f6:	8b e0       	ldi	r24, 0x0B	; 11
    15f8:	e8 16       	cp	r14, r24
    15fa:	f1 04       	cpc	r15, r1
    15fc:	1c f0       	brlt	.+6      	; 0x1604 <main+0x154>
    15fe:	20 e0       	ldi	r18, 0x00	; 0
    1600:	30 e0       	ldi	r19, 0x00	; 0
    1602:	0a c0       	rjmp	.+20     	; 0x1618 <main+0x168>
				k++;
    1604:	08 94       	sec
    1606:	e1 1c       	adc	r14, r1
    1608:	f1 1c       	adc	r15, r1
    160a:	8d cf       	rjmp	.-230    	; 0x1526 <main+0x76>
//**/		DBG("Initialize Error...\n");
		goto RESET;
		//while(1);
	}
	
	if(RESETCounter<1)
    160c:	cd 28       	or	r12, r13
    160e:	b9 f7       	brne	.-18     	; 0x15fe <main+0x14e>
    1610:	f1 e0       	ldi	r31, 0x01	; 1
    1612:	cf 2e       	mov	r12, r31
    1614:	d1 2c       	mov	r13, r1
    1616:	87 cf       	rjmp	.-242    	; 0x1526 <main+0x76>
	}
ERROR:
	k = 0;
	while(1)
	{
		LED0_ON;
    1618:	92 9a       	sbi	0x12, 2	; 18
		LED2_ON;
    161a:	96 9a       	sbi	0x12, 6	; 18
    161c:	80 e0       	ldi	r24, 0x00	; 0
    161e:	90 e0       	ldi	r25, 0x00	; 0
    1620:	f5 01       	movw	r30, r10
    1622:	31 97       	sbiw	r30, 0x01	; 1
    1624:	f1 f7       	brne	.-4      	; 0x1622 <main+0x172>
		for(i = 0;i<10; i++)
    1626:	01 96       	adiw	r24, 0x01	; 1
    1628:	8a 30       	cpi	r24, 0x0A	; 10
    162a:	91 05       	cpc	r25, r1
    162c:	c9 f7       	brne	.-14     	; 0x1620 <main+0x170>
		{
			_delay_ms(250);
		}
		LED_OFF_ALL;
    162e:	82 b3       	in	r24, 0x12	; 18
    1630:	8b 7a       	andi	r24, 0xAB	; 171
    1632:	82 bb       	out	0x12, r24	; 18
    1634:	80 e0       	ldi	r24, 0x00	; 0
    1636:	90 e0       	ldi	r25, 0x00	; 0
    1638:	f5 01       	movw	r30, r10
    163a:	31 97       	sbiw	r30, 0x01	; 1
    163c:	f1 f7       	brne	.-4      	; 0x163a <main+0x18a>
		for(i = 0;i<10; i++)
    163e:	01 96       	adiw	r24, 0x01	; 1
    1640:	8a 30       	cpi	r24, 0x0A	; 10
    1642:	91 05       	cpc	r25, r1
    1644:	c9 f7       	brne	.-14     	; 0x1638 <main+0x188>
		{
			_delay_ms(250);
		}
		if(k>1)
    1646:	22 30       	cpi	r18, 0x02	; 2
    1648:	31 05       	cpc	r19, r1
    164a:	09 f4       	brne	.+2      	; 0x164e <main+0x19e>
    164c:	68 cf       	rjmp	.-304    	; 0x151e <main+0x6e>
			i = 0;
			k = 0;
			RESETCounter = 0;
			goto RESET;
		}
		k++;
    164e:	2f 5f       	subi	r18, 0xFF	; 255
    1650:	3f 4f       	sbci	r19, 0xFF	; 255
    1652:	e2 cf       	rjmp	.-60     	; 0x1618 <main+0x168>

00001654 <set_printf_output>:
#define TYPE_PERCENT	10
#define TYPE_OUTNUM		11


void set_printf_output(int (*fp)(char))
{
    1654:	df 93       	push	r29
    1656:	cf 93       	push	r28
    1658:	00 d0       	rcall	.+0      	; 0x165a <set_printf_output+0x6>
    165a:	cd b7       	in	r28, 0x3d	; 61
    165c:	de b7       	in	r29, 0x3e	; 62
    165e:	9a 83       	std	Y+2, r25	; 0x02
    1660:	89 83       	std	Y+1, r24	; 0x01
	__printf_output = (int (*)(char))fp;
    1662:	89 81       	ldd	r24, Y+1	; 0x01
    1664:	9a 81       	ldd	r25, Y+2	; 0x02
    1666:	90 93 4c 02 	sts	0x024C, r25
    166a:	80 93 4b 02 	sts	0x024B, r24
}
    166e:	0f 90       	pop	r0
    1670:	0f 90       	pop	r0
    1672:	cf 91       	pop	r28
    1674:	df 91       	pop	r29
    1676:	08 95       	ret

00001678 <__printf>:

int __printf(const char *format, ...)
{
    1678:	0f 93       	push	r16
    167a:	1f 93       	push	r17
    167c:	df 93       	push	r29
    167e:	cf 93       	push	r28
    1680:	cd b7       	in	r28, 0x3d	; 61
    1682:	de b7       	in	r29, 0x3e	; 62
    1684:	c5 57       	subi	r28, 0x75	; 117
    1686:	d0 40       	sbci	r29, 0x00	; 0
    1688:	0f b6       	in	r0, 0x3f	; 63
    168a:	f8 94       	cli
    168c:	de bf       	out	0x3e, r29	; 62
    168e:	0f be       	out	0x3f, r0	; 63
    1690:	cd bf       	out	0x3d, r28	; 61
	va_list ap;
	int i, cnt, tmp, *int_p;
	char num_buf[NUM_BUF_SIZE];		// 数字->文字変換用バッファ
	char *char_p, char_tmp;
	unsigned long ul_tmp;
	unsigned int output_cnt = 0;
    1692:	19 86       	std	Y+9, r1	; 0x09
    1694:	18 86       	std	Y+8, r1	; 0x08
	int width;				// 最小フィールド幅
	unsigned char length;	// 長さ修飾子
	unsigned char type;		// 変換指定子
	unsigned char radix;	// 基数
	
	if( __printf_output == NULL )	return -1;
    1696:	80 91 4b 02 	lds	r24, 0x024B
    169a:	90 91 4c 02 	lds	r25, 0x024C
    169e:	00 97       	sbiw	r24, 0x00	; 0
    16a0:	41 f4       	brne	.+16     	; 0x16b2 <__printf+0x3a>
    16a2:	2f ef       	ldi	r18, 0xFF	; 255
    16a4:	3f ef       	ldi	r19, 0xFF	; 255
    16a6:	e6 96       	adiw	r28, 0x36	; 54
    16a8:	3f af       	std	Y+63, r19	; 0x3f
    16aa:	2e af       	std	Y+62, r18	; 0x3e
    16ac:	e6 97       	sbiw	r28, 0x36	; 54
    16ae:	0c 94 22 13 	jmp	0x2644	; 0x2644 <__printf+0xfcc>

	va_start(ap, format);
    16b2:	ce 01       	movw	r24, r28
    16b4:	82 58       	subi	r24, 0x82	; 130
    16b6:	9f 4f       	sbci	r25, 0xFF	; 255
    16b8:	9a 8f       	std	Y+26, r25	; 0x1a
    16ba:	89 8f       	std	Y+25, r24	; 0x19
    16bc:	ba c3       	rjmp	.+1908   	; 0x1e32 <__printf+0x7ba>
	
	while( *format ){
		if( *format != '%' ){
    16be:	ee 96       	adiw	r28, 0x3e	; 62
    16c0:	ee ad       	ldd	r30, Y+62	; 0x3e
    16c2:	ff ad       	ldd	r31, Y+63	; 0x3f
    16c4:	ee 97       	sbiw	r28, 0x3e	; 62
    16c6:	80 81       	ld	r24, Z
    16c8:	85 32       	cpi	r24, 0x25	; 37
    16ca:	d1 f0       	breq	.+52     	; 0x1700 <__printf+0x88>
			OUTPUT(*format);	output_cnt++;
    16cc:	20 91 4b 02 	lds	r18, 0x024B
    16d0:	30 91 4c 02 	lds	r19, 0x024C
    16d4:	ee 96       	adiw	r28, 0x3e	; 62
    16d6:	ee ad       	ldd	r30, Y+62	; 0x3e
    16d8:	ff ad       	ldd	r31, Y+63	; 0x3f
    16da:	ee 97       	sbiw	r28, 0x3e	; 62
    16dc:	80 81       	ld	r24, Z
    16de:	f9 01       	movw	r30, r18
    16e0:	09 95       	icall
    16e2:	88 85       	ldd	r24, Y+8	; 0x08
    16e4:	99 85       	ldd	r25, Y+9	; 0x09
    16e6:	01 96       	adiw	r24, 0x01	; 1
    16e8:	99 87       	std	Y+9, r25	; 0x09
    16ea:	88 87       	std	Y+8, r24	; 0x08
			
			format++;
    16ec:	ee 96       	adiw	r28, 0x3e	; 62
    16ee:	8e ad       	ldd	r24, Y+62	; 0x3e
    16f0:	9f ad       	ldd	r25, Y+63	; 0x3f
    16f2:	ee 97       	sbiw	r28, 0x3e	; 62
    16f4:	01 96       	adiw	r24, 0x01	; 1
    16f6:	ee 96       	adiw	r28, 0x3e	; 62
    16f8:	9f af       	std	Y+63, r25	; 0x3f
    16fa:	8e af       	std	Y+62, r24	; 0x3e
    16fc:	ee 97       	sbiw	r28, 0x3e	; 62
    16fe:	99 c3       	rjmp	.+1842   	; 0x1e32 <__printf+0x7ba>
		}else{
			format++;	// skip '%'
    1700:	ee 96       	adiw	r28, 0x3e	; 62
    1702:	8e ad       	ldd	r24, Y+62	; 0x3e
    1704:	9f ad       	ldd	r25, Y+63	; 0x3f
    1706:	ee 97       	sbiw	r28, 0x3e	; 62
    1708:	01 96       	adiw	r24, 0x01	; 1
    170a:	ee 96       	adiw	r28, 0x3e	; 62
    170c:	9f af       	std	Y+63, r25	; 0x3f
    170e:	8e af       	std	Y+62, r24	; 0x3e
    1710:	ee 97       	sbiw	r28, 0x3e	; 62
			///////////// flag analysis //////////////
			flag = 0;	// clear all flags
    1712:	1f 82       	std	Y+7, r1	; 0x07
    1714:	1e 82       	std	Y+6, r1	; 0x06
			while(1){
				switch(*format){
    1716:	ee 96       	adiw	r28, 0x3e	; 62
    1718:	ee ad       	ldd	r30, Y+62	; 0x3e
    171a:	ff ad       	ldd	r31, Y+63	; 0x3f
    171c:	ee 97       	sbiw	r28, 0x3e	; 62
    171e:	80 81       	ld	r24, Z
    1720:	48 2f       	mov	r20, r24
    1722:	50 e0       	ldi	r21, 0x00	; 0
    1724:	e4 96       	adiw	r28, 0x34	; 52
    1726:	5f af       	std	Y+63, r21	; 0x3f
    1728:	4e af       	std	Y+62, r20	; 0x3e
    172a:	e4 97       	sbiw	r28, 0x34	; 52
    172c:	e4 96       	adiw	r28, 0x34	; 52
    172e:	8e ad       	ldd	r24, Y+62	; 0x3e
    1730:	9f ad       	ldd	r25, Y+63	; 0x3f
    1732:	e4 97       	sbiw	r28, 0x34	; 52
    1734:	8b 32       	cpi	r24, 0x2B	; 43
    1736:	91 05       	cpc	r25, r1
    1738:	59 f1       	breq	.+86     	; 0x1790 <__printf+0x118>
    173a:	e4 96       	adiw	r28, 0x34	; 52
    173c:	2e ad       	ldd	r18, Y+62	; 0x3e
    173e:	3f ad       	ldd	r19, Y+63	; 0x3f
    1740:	e4 97       	sbiw	r28, 0x34	; 52
    1742:	2c 32       	cpi	r18, 0x2C	; 44
    1744:	31 05       	cpc	r19, r1
    1746:	7c f4       	brge	.+30     	; 0x1766 <__printf+0xee>
    1748:	e4 96       	adiw	r28, 0x34	; 52
    174a:	4e ad       	ldd	r20, Y+62	; 0x3e
    174c:	5f ad       	ldd	r21, Y+63	; 0x3f
    174e:	e4 97       	sbiw	r28, 0x34	; 52
    1750:	40 32       	cpi	r20, 0x20	; 32
    1752:	51 05       	cpc	r21, r1
    1754:	19 f1       	breq	.+70     	; 0x179c <__printf+0x124>
    1756:	e4 96       	adiw	r28, 0x34	; 52
    1758:	8e ad       	ldd	r24, Y+62	; 0x3e
    175a:	9f ad       	ldd	r25, Y+63	; 0x3f
    175c:	e4 97       	sbiw	r28, 0x34	; 52
    175e:	83 32       	cpi	r24, 0x23	; 35
    1760:	91 05       	cpc	r25, r1
    1762:	41 f1       	breq	.+80     	; 0x17b4 <__printf+0x13c>
    1764:	36 c0       	rjmp	.+108    	; 0x17d2 <__printf+0x15a>
    1766:	e4 96       	adiw	r28, 0x34	; 52
    1768:	2e ad       	ldd	r18, Y+62	; 0x3e
    176a:	3f ad       	ldd	r19, Y+63	; 0x3f
    176c:	e4 97       	sbiw	r28, 0x34	; 52
    176e:	2d 32       	cpi	r18, 0x2D	; 45
    1770:	31 05       	cpc	r19, r1
    1772:	41 f0       	breq	.+16     	; 0x1784 <__printf+0x10c>
    1774:	e4 96       	adiw	r28, 0x34	; 52
    1776:	4e ad       	ldd	r20, Y+62	; 0x3e
    1778:	5f ad       	ldd	r21, Y+63	; 0x3f
    177a:	e4 97       	sbiw	r28, 0x34	; 52
    177c:	40 33       	cpi	r20, 0x30	; 48
    177e:	51 05       	cpc	r21, r1
    1780:	99 f0       	breq	.+38     	; 0x17a8 <__printf+0x130>
    1782:	27 c0       	rjmp	.+78     	; 0x17d2 <__printf+0x15a>
					case '-': flag |= FLAG_ALEFT;		break;
    1784:	8e 81       	ldd	r24, Y+6	; 0x06
    1786:	9f 81       	ldd	r25, Y+7	; 0x07
    1788:	81 60       	ori	r24, 0x01	; 1
    178a:	9f 83       	std	Y+7, r25	; 0x07
    178c:	8e 83       	std	Y+6, r24	; 0x06
    178e:	17 c0       	rjmp	.+46     	; 0x17be <__printf+0x146>
					case '+': flag |= FLAG_SIGN;		break;
    1790:	8e 81       	ldd	r24, Y+6	; 0x06
    1792:	9f 81       	ldd	r25, Y+7	; 0x07
    1794:	82 60       	ori	r24, 0x02	; 2
    1796:	9f 83       	std	Y+7, r25	; 0x07
    1798:	8e 83       	std	Y+6, r24	; 0x06
    179a:	11 c0       	rjmp	.+34     	; 0x17be <__printf+0x146>
					case ' ': flag |= FLAG_SPACE;		break;
    179c:	8e 81       	ldd	r24, Y+6	; 0x06
    179e:	9f 81       	ldd	r25, Y+7	; 0x07
    17a0:	84 60       	ori	r24, 0x04	; 4
    17a2:	9f 83       	std	Y+7, r25	; 0x07
    17a4:	8e 83       	std	Y+6, r24	; 0x06
    17a6:	0b c0       	rjmp	.+22     	; 0x17be <__printf+0x146>
					case '0': flag |= FLAG_ZERO;		break;
    17a8:	8e 81       	ldd	r24, Y+6	; 0x06
    17aa:	9f 81       	ldd	r25, Y+7	; 0x07
    17ac:	88 60       	ori	r24, 0x08	; 8
    17ae:	9f 83       	std	Y+7, r25	; 0x07
    17b0:	8e 83       	std	Y+6, r24	; 0x06
    17b2:	05 c0       	rjmp	.+10     	; 0x17be <__printf+0x146>
					case '#': flag |= FLAG_ALT;			break;
    17b4:	8e 81       	ldd	r24, Y+6	; 0x06
    17b6:	9f 81       	ldd	r25, Y+7	; 0x07
    17b8:	80 61       	ori	r24, 0x10	; 16
    17ba:	9f 83       	std	Y+7, r25	; 0x07
    17bc:	8e 83       	std	Y+6, r24	; 0x06
					default	: goto flag_analysis_end;
				}
				format++;
    17be:	ee 96       	adiw	r28, 0x3e	; 62
    17c0:	8e ad       	ldd	r24, Y+62	; 0x3e
    17c2:	9f ad       	ldd	r25, Y+63	; 0x3f
    17c4:	ee 97       	sbiw	r28, 0x3e	; 62
    17c6:	01 96       	adiw	r24, 0x01	; 1
    17c8:	ee 96       	adiw	r28, 0x3e	; 62
    17ca:	9f af       	std	Y+63, r25	; 0x3f
    17cc:	8e af       	std	Y+62, r24	; 0x3e
    17ce:	ee 97       	sbiw	r28, 0x3e	; 62
    17d0:	a2 cf       	rjmp	.-188    	; 0x1716 <__printf+0x9e>
			}
			flag_analysis_end:
			///////////// flag analysis //////////////
			///////////// width analysis //////////////
			cnt = 0;
    17d2:	1e 8a       	std	Y+22, r1	; 0x16
    17d4:	1d 8a       	std	Y+21, r1	; 0x15
    17d6:	0e c0       	rjmp	.+28     	; 0x17f4 <__printf+0x17c>
			while( *format >= '0' && *format <= '9' ){
				cnt++;
    17d8:	8d 89       	ldd	r24, Y+21	; 0x15
    17da:	9e 89       	ldd	r25, Y+22	; 0x16
    17dc:	01 96       	adiw	r24, 0x01	; 1
    17de:	9e 8b       	std	Y+22, r25	; 0x16
    17e0:	8d 8b       	std	Y+21, r24	; 0x15
				format++;
    17e2:	ee 96       	adiw	r28, 0x3e	; 62
    17e4:	8e ad       	ldd	r24, Y+62	; 0x3e
    17e6:	9f ad       	ldd	r25, Y+63	; 0x3f
    17e8:	ee 97       	sbiw	r28, 0x3e	; 62
    17ea:	01 96       	adiw	r24, 0x01	; 1
    17ec:	ee 96       	adiw	r28, 0x3e	; 62
    17ee:	9f af       	std	Y+63, r25	; 0x3f
    17f0:	8e af       	std	Y+62, r24	; 0x3e
    17f2:	ee 97       	sbiw	r28, 0x3e	; 62
			}
			flag_analysis_end:
			///////////// flag analysis //////////////
			///////////// width analysis //////////////
			cnt = 0;
			while( *format >= '0' && *format <= '9' ){
    17f4:	ee 96       	adiw	r28, 0x3e	; 62
    17f6:	ee ad       	ldd	r30, Y+62	; 0x3e
    17f8:	ff ad       	ldd	r31, Y+63	; 0x3f
    17fa:	ee 97       	sbiw	r28, 0x3e	; 62
    17fc:	80 81       	ld	r24, Z
    17fe:	80 33       	cpi	r24, 0x30	; 48
    1800:	38 f0       	brcs	.+14     	; 0x1810 <__printf+0x198>
    1802:	ee 96       	adiw	r28, 0x3e	; 62
    1804:	ee ad       	ldd	r30, Y+62	; 0x3e
    1806:	ff ad       	ldd	r31, Y+63	; 0x3f
    1808:	ee 97       	sbiw	r28, 0x3e	; 62
    180a:	80 81       	ld	r24, Z
    180c:	8a 33       	cpi	r24, 0x3A	; 58
    180e:	20 f3       	brcs	.-56     	; 0x17d8 <__printf+0x160>
				cnt++;
				format++;
			}
			width = 0;
    1810:	1d 82       	std	Y+5, r1	; 0x05
    1812:	1c 82       	std	Y+4, r1	; 0x04
			tmp = 1;
    1814:	81 e0       	ldi	r24, 0x01	; 1
    1816:	90 e0       	ldi	r25, 0x00	; 0
    1818:	9c 8b       	std	Y+20, r25	; 0x14
    181a:	8b 8b       	std	Y+19, r24	; 0x13
			for( i=cnt; i!=0; i-- ){
    181c:	8d 89       	ldd	r24, Y+21	; 0x15
    181e:	9e 89       	ldd	r25, Y+22	; 0x16
    1820:	98 8f       	std	Y+24, r25	; 0x18
    1822:	8f 8b       	std	Y+23, r24	; 0x17
    1824:	36 c0       	rjmp	.+108    	; 0x1892 <__printf+0x21a>
				format--;
    1826:	ee 96       	adiw	r28, 0x3e	; 62
    1828:	8e ad       	ldd	r24, Y+62	; 0x3e
    182a:	9f ad       	ldd	r25, Y+63	; 0x3f
    182c:	ee 97       	sbiw	r28, 0x3e	; 62
    182e:	01 97       	sbiw	r24, 0x01	; 1
    1830:	ee 96       	adiw	r28, 0x3e	; 62
    1832:	9f af       	std	Y+63, r25	; 0x3f
    1834:	8e af       	std	Y+62, r24	; 0x3e
    1836:	ee 97       	sbiw	r28, 0x3e	; 62
				width += tmp*(*format - '0');
    1838:	ee 96       	adiw	r28, 0x3e	; 62
    183a:	ee ad       	ldd	r30, Y+62	; 0x3e
    183c:	ff ad       	ldd	r31, Y+63	; 0x3f
    183e:	ee 97       	sbiw	r28, 0x3e	; 62
    1840:	80 81       	ld	r24, Z
    1842:	88 2f       	mov	r24, r24
    1844:	90 e0       	ldi	r25, 0x00	; 0
    1846:	9c 01       	movw	r18, r24
    1848:	20 53       	subi	r18, 0x30	; 48
    184a:	30 40       	sbci	r19, 0x00	; 0
    184c:	8b 89       	ldd	r24, Y+19	; 0x13
    184e:	9c 89       	ldd	r25, Y+20	; 0x14
    1850:	a9 01       	movw	r20, r18
    1852:	48 9f       	mul	r20, r24
    1854:	90 01       	movw	r18, r0
    1856:	49 9f       	mul	r20, r25
    1858:	30 0d       	add	r19, r0
    185a:	58 9f       	mul	r21, r24
    185c:	30 0d       	add	r19, r0
    185e:	11 24       	eor	r1, r1
    1860:	8c 81       	ldd	r24, Y+4	; 0x04
    1862:	9d 81       	ldd	r25, Y+5	; 0x05
    1864:	82 0f       	add	r24, r18
    1866:	93 1f       	adc	r25, r19
    1868:	9d 83       	std	Y+5, r25	; 0x05
    186a:	8c 83       	std	Y+4, r24	; 0x04
				tmp*=10;
    186c:	8b 89       	ldd	r24, Y+19	; 0x13
    186e:	9c 89       	ldd	r25, Y+20	; 0x14
    1870:	9c 01       	movw	r18, r24
    1872:	22 0f       	add	r18, r18
    1874:	33 1f       	adc	r19, r19
    1876:	c9 01       	movw	r24, r18
    1878:	88 0f       	add	r24, r24
    187a:	99 1f       	adc	r25, r25
    187c:	88 0f       	add	r24, r24
    187e:	99 1f       	adc	r25, r25
    1880:	82 0f       	add	r24, r18
    1882:	93 1f       	adc	r25, r19
    1884:	9c 8b       	std	Y+20, r25	; 0x14
    1886:	8b 8b       	std	Y+19, r24	; 0x13
				cnt++;
				format++;
			}
			width = 0;
			tmp = 1;
			for( i=cnt; i!=0; i-- ){
    1888:	8f 89       	ldd	r24, Y+23	; 0x17
    188a:	98 8d       	ldd	r25, Y+24	; 0x18
    188c:	01 97       	sbiw	r24, 0x01	; 1
    188e:	98 8f       	std	Y+24, r25	; 0x18
    1890:	8f 8b       	std	Y+23, r24	; 0x17
    1892:	8f 89       	ldd	r24, Y+23	; 0x17
    1894:	98 8d       	ldd	r25, Y+24	; 0x18
    1896:	00 97       	sbiw	r24, 0x00	; 0
    1898:	31 f6       	brne	.-116    	; 0x1826 <__printf+0x1ae>
				format--;
				width += tmp*(*format - '0');
				tmp*=10;
			}
			format += cnt;
    189a:	2d 89       	ldd	r18, Y+21	; 0x15
    189c:	3e 89       	ldd	r19, Y+22	; 0x16
    189e:	ee 96       	adiw	r28, 0x3e	; 62
    18a0:	8e ad       	ldd	r24, Y+62	; 0x3e
    18a2:	9f ad       	ldd	r25, Y+63	; 0x3f
    18a4:	ee 97       	sbiw	r28, 0x3e	; 62
    18a6:	82 0f       	add	r24, r18
    18a8:	93 1f       	adc	r25, r19
    18aa:	ee 96       	adiw	r28, 0x3e	; 62
    18ac:	9f af       	std	Y+63, r25	; 0x3f
    18ae:	8e af       	std	Y+62, r24	; 0x3e
    18b0:	ee 97       	sbiw	r28, 0x3e	; 62
			///////////// width analysis //////////////
			///////////// length analysis //////////////
			switch(*format){
    18b2:	ee 96       	adiw	r28, 0x3e	; 62
    18b4:	ee ad       	ldd	r30, Y+62	; 0x3e
    18b6:	ff ad       	ldd	r31, Y+63	; 0x3f
    18b8:	ee 97       	sbiw	r28, 0x3e	; 62
    18ba:	80 81       	ld	r24, Z
    18bc:	28 2f       	mov	r18, r24
    18be:	30 e0       	ldi	r19, 0x00	; 0
    18c0:	e2 96       	adiw	r28, 0x32	; 50
    18c2:	3f af       	std	Y+63, r19	; 0x3f
    18c4:	2e af       	std	Y+62, r18	; 0x3e
    18c6:	e2 97       	sbiw	r28, 0x32	; 50
    18c8:	e2 96       	adiw	r28, 0x32	; 50
    18ca:	4e ad       	ldd	r20, Y+62	; 0x3e
    18cc:	5f ad       	ldd	r21, Y+63	; 0x3f
    18ce:	e2 97       	sbiw	r28, 0x32	; 50
    18d0:	48 36       	cpi	r20, 0x68	; 104
    18d2:	51 05       	cpc	r21, r1
    18d4:	41 f0       	breq	.+16     	; 0x18e6 <__printf+0x26e>
    18d6:	e2 96       	adiw	r28, 0x32	; 50
    18d8:	8e ad       	ldd	r24, Y+62	; 0x3e
    18da:	9f ad       	ldd	r25, Y+63	; 0x3f
    18dc:	e2 97       	sbiw	r28, 0x32	; 50
    18de:	8c 36       	cpi	r24, 0x6C	; 108
    18e0:	91 05       	cpc	r25, r1
    18e2:	11 f1       	breq	.+68     	; 0x1928 <__printf+0x2b0>
    18e4:	2d c0       	rjmp	.+90     	; 0x1940 <__printf+0x2c8>
				case 'h':
					if( *(format+1) == 'h' ){
    18e6:	ee 96       	adiw	r28, 0x3e	; 62
    18e8:	8e ad       	ldd	r24, Y+62	; 0x3e
    18ea:	9f ad       	ldd	r25, Y+63	; 0x3f
    18ec:	ee 97       	sbiw	r28, 0x3e	; 62
    18ee:	fc 01       	movw	r30, r24
    18f0:	31 96       	adiw	r30, 0x01	; 1
    18f2:	80 81       	ld	r24, Z
    18f4:	88 36       	cpi	r24, 0x68	; 104
    18f6:	61 f4       	brne	.+24     	; 0x1910 <__printf+0x298>
						// charcter length
						length = LENGTH_CHAR;
    18f8:	83 e0       	ldi	r24, 0x03	; 3
    18fa:	8b 83       	std	Y+3, r24	; 0x03
						format++;
    18fc:	ee 96       	adiw	r28, 0x3e	; 62
    18fe:	8e ad       	ldd	r24, Y+62	; 0x3e
    1900:	9f ad       	ldd	r25, Y+63	; 0x3f
    1902:	ee 97       	sbiw	r28, 0x3e	; 62
    1904:	01 96       	adiw	r24, 0x01	; 1
    1906:	ee 96       	adiw	r28, 0x3e	; 62
    1908:	9f af       	std	Y+63, r25	; 0x3f
    190a:	8e af       	std	Y+62, r24	; 0x3e
    190c:	ee 97       	sbiw	r28, 0x3e	; 62
    190e:	02 c0       	rjmp	.+4      	; 0x1914 <__printf+0x29c>
					}else{
						// short length
						length = LENGTH_SHORT;
    1910:	82 e0       	ldi	r24, 0x02	; 2
    1912:	8b 83       	std	Y+3, r24	; 0x03
					}
					format++;
    1914:	ee 96       	adiw	r28, 0x3e	; 62
    1916:	8e ad       	ldd	r24, Y+62	; 0x3e
    1918:	9f ad       	ldd	r25, Y+63	; 0x3f
    191a:	ee 97       	sbiw	r28, 0x3e	; 62
    191c:	01 96       	adiw	r24, 0x01	; 1
    191e:	ee 96       	adiw	r28, 0x3e	; 62
    1920:	9f af       	std	Y+63, r25	; 0x3f
    1922:	8e af       	std	Y+62, r24	; 0x3e
    1924:	ee 97       	sbiw	r28, 0x3e	; 62
    1926:	0d c0       	rjmp	.+26     	; 0x1942 <__printf+0x2ca>
					break;
				case 'l':
					// long length
					length = LENGTH_LONG;
    1928:	81 e0       	ldi	r24, 0x01	; 1
    192a:	8b 83       	std	Y+3, r24	; 0x03
					format++;
    192c:	ee 96       	adiw	r28, 0x3e	; 62
    192e:	8e ad       	ldd	r24, Y+62	; 0x3e
    1930:	9f ad       	ldd	r25, Y+63	; 0x3f
    1932:	ee 97       	sbiw	r28, 0x3e	; 62
    1934:	01 96       	adiw	r24, 0x01	; 1
    1936:	ee 96       	adiw	r28, 0x3e	; 62
    1938:	9f af       	std	Y+63, r25	; 0x3f
    193a:	8e af       	std	Y+62, r24	; 0x3e
    193c:	ee 97       	sbiw	r28, 0x3e	; 62
    193e:	01 c0       	rjmp	.+2      	; 0x1942 <__printf+0x2ca>
					break;
				default:
					// default length
					length = LENGTH_DEFAULT;
    1940:	1b 82       	std	Y+3, r1	; 0x03
			}
			///////////// length analysis //////////////
			///////////// type analysis //////////////
			type = TYPE_UNKNOWN;
    1942:	1a 82       	std	Y+2, r1	; 0x02
			switch(*format){
    1944:	ee 96       	adiw	r28, 0x3e	; 62
    1946:	ee ad       	ldd	r30, Y+62	; 0x3e
    1948:	ff ad       	ldd	r31, Y+63	; 0x3f
    194a:	ee 97       	sbiw	r28, 0x3e	; 62
    194c:	80 81       	ld	r24, Z
    194e:	28 2f       	mov	r18, r24
    1950:	30 e0       	ldi	r19, 0x00	; 0
    1952:	e0 96       	adiw	r28, 0x30	; 48
    1954:	3f af       	std	Y+63, r19	; 0x3f
    1956:	2e af       	std	Y+62, r18	; 0x3e
    1958:	e0 97       	sbiw	r28, 0x30	; 48
    195a:	e0 96       	adiw	r28, 0x30	; 48
    195c:	4e ad       	ldd	r20, Y+62	; 0x3e
    195e:	5f ad       	ldd	r21, Y+63	; 0x3f
    1960:	e0 97       	sbiw	r28, 0x30	; 48
    1962:	4e 36       	cpi	r20, 0x6E	; 110
    1964:	51 05       	cpc	r21, r1
    1966:	09 f4       	brne	.+2      	; 0x196a <__printf+0x2f2>
    1968:	3e c2       	rjmp	.+1148   	; 0x1de6 <__printf+0x76e>
    196a:	e0 96       	adiw	r28, 0x30	; 48
    196c:	8e ad       	ldd	r24, Y+62	; 0x3e
    196e:	9f ad       	ldd	r25, Y+63	; 0x3f
    1970:	e0 97       	sbiw	r28, 0x30	; 48
    1972:	8f 36       	cpi	r24, 0x6F	; 111
    1974:	91 05       	cpc	r25, r1
    1976:	bc f5       	brge	.+110    	; 0x19e6 <__printf+0x36e>
    1978:	e0 96       	adiw	r28, 0x30	; 48
    197a:	2e ad       	ldd	r18, Y+62	; 0x3e
    197c:	3f ad       	ldd	r19, Y+63	; 0x3f
    197e:	e0 97       	sbiw	r28, 0x30	; 48
    1980:	23 36       	cpi	r18, 0x63	; 99
    1982:	31 05       	cpc	r19, r1
    1984:	09 f4       	brne	.+2      	; 0x1988 <__printf+0x310>
    1986:	52 c1       	rjmp	.+676    	; 0x1c2c <__printf+0x5b4>
    1988:	e0 96       	adiw	r28, 0x30	; 48
    198a:	4e ad       	ldd	r20, Y+62	; 0x3e
    198c:	5f ad       	ldd	r21, Y+63	; 0x3f
    198e:	e0 97       	sbiw	r28, 0x30	; 48
    1990:	44 36       	cpi	r20, 0x64	; 100
    1992:	51 05       	cpc	r21, r1
    1994:	cc f4       	brge	.+50     	; 0x19c8 <__printf+0x350>
    1996:	e0 96       	adiw	r28, 0x30	; 48
    1998:	8e ad       	ldd	r24, Y+62	; 0x3e
    199a:	9f ad       	ldd	r25, Y+63	; 0x3f
    199c:	e0 97       	sbiw	r28, 0x30	; 48
    199e:	88 35       	cpi	r24, 0x58	; 88
    19a0:	91 05       	cpc	r25, r1
    19a2:	09 f4       	brne	.+2      	; 0x19a6 <__printf+0x32e>
    19a4:	5d c0       	rjmp	.+186    	; 0x1a60 <__printf+0x3e8>
    19a6:	e0 96       	adiw	r28, 0x30	; 48
    19a8:	2e ad       	ldd	r18, Y+62	; 0x3e
    19aa:	3f ad       	ldd	r19, Y+63	; 0x3f
    19ac:	e0 97       	sbiw	r28, 0x30	; 48
    19ae:	22 36       	cpi	r18, 0x62	; 98
    19b0:	31 05       	cpc	r19, r1
    19b2:	09 f4       	brne	.+2      	; 0x19b6 <__printf+0x33e>
    19b4:	5f c0       	rjmp	.+190    	; 0x1a74 <__printf+0x3fc>
    19b6:	e0 96       	adiw	r28, 0x30	; 48
    19b8:	4e ad       	ldd	r20, Y+62	; 0x3e
    19ba:	5f ad       	ldd	r21, Y+63	; 0x3f
    19bc:	e0 97       	sbiw	r28, 0x30	; 48
    19be:	45 32       	cpi	r20, 0x25	; 37
    19c0:	51 05       	cpc	r21, r1
    19c2:	09 f4       	brne	.+2      	; 0x19c6 <__printf+0x34e>
    19c4:	35 c1       	rjmp	.+618    	; 0x1c30 <__printf+0x5b8>
    19c6:	23 c2       	rjmp	.+1094   	; 0x1e0e <__printf+0x796>
    19c8:	e0 96       	adiw	r28, 0x30	; 48
    19ca:	8e ad       	ldd	r24, Y+62	; 0x3e
    19cc:	9f ad       	ldd	r25, Y+63	; 0x3f
    19ce:	e0 97       	sbiw	r28, 0x30	; 48
    19d0:	84 36       	cpi	r24, 0x64	; 100
    19d2:	91 05       	cpc	r25, r1
    19d4:	b1 f1       	breq	.+108    	; 0x1a42 <__printf+0x3ca>
    19d6:	e0 96       	adiw	r28, 0x30	; 48
    19d8:	2e ad       	ldd	r18, Y+62	; 0x3e
    19da:	3f ad       	ldd	r19, Y+63	; 0x3f
    19dc:	e0 97       	sbiw	r28, 0x30	; 48
    19de:	29 36       	cpi	r18, 0x69	; 105
    19e0:	31 05       	cpc	r19, r1
    19e2:	79 f1       	breq	.+94     	; 0x1a42 <__printf+0x3ca>
    19e4:	14 c2       	rjmp	.+1064   	; 0x1e0e <__printf+0x796>
    19e6:	e0 96       	adiw	r28, 0x30	; 48
    19e8:	4e ad       	ldd	r20, Y+62	; 0x3e
    19ea:	5f ad       	ldd	r21, Y+63	; 0x3f
    19ec:	e0 97       	sbiw	r28, 0x30	; 48
    19ee:	43 37       	cpi	r20, 0x73	; 115
    19f0:	51 05       	cpc	r21, r1
    19f2:	09 f4       	brne	.+2      	; 0x19f6 <__printf+0x37e>
    19f4:	44 c0       	rjmp	.+136    	; 0x1a7e <__printf+0x406>
    19f6:	e0 96       	adiw	r28, 0x30	; 48
    19f8:	8e ad       	ldd	r24, Y+62	; 0x3e
    19fa:	9f ad       	ldd	r25, Y+63	; 0x3f
    19fc:	e0 97       	sbiw	r28, 0x30	; 48
    19fe:	84 37       	cpi	r24, 0x74	; 116
    1a00:	91 05       	cpc	r25, r1
    1a02:	84 f4       	brge	.+32     	; 0x1a24 <__printf+0x3ac>
    1a04:	e0 96       	adiw	r28, 0x30	; 48
    1a06:	2e ad       	ldd	r18, Y+62	; 0x3e
    1a08:	3f ad       	ldd	r19, Y+63	; 0x3f
    1a0a:	e0 97       	sbiw	r28, 0x30	; 48
    1a0c:	2f 36       	cpi	r18, 0x6F	; 111
    1a0e:	31 05       	cpc	r19, r1
    1a10:	61 f1       	breq	.+88     	; 0x1a6a <__printf+0x3f2>
    1a12:	e0 96       	adiw	r28, 0x30	; 48
    1a14:	4e ad       	ldd	r20, Y+62	; 0x3e
    1a16:	5f ad       	ldd	r21, Y+63	; 0x3f
    1a18:	e0 97       	sbiw	r28, 0x30	; 48
    1a1a:	40 37       	cpi	r20, 0x70	; 112
    1a1c:	51 05       	cpc	r21, r1
    1a1e:	09 f4       	brne	.+2      	; 0x1a22 <__printf+0x3aa>
    1a20:	fb c0       	rjmp	.+502    	; 0x1c18 <__printf+0x5a0>
    1a22:	f5 c1       	rjmp	.+1002   	; 0x1e0e <__printf+0x796>
    1a24:	e0 96       	adiw	r28, 0x30	; 48
    1a26:	8e ad       	ldd	r24, Y+62	; 0x3e
    1a28:	9f ad       	ldd	r25, Y+63	; 0x3f
    1a2a:	e0 97       	sbiw	r28, 0x30	; 48
    1a2c:	85 37       	cpi	r24, 0x75	; 117
    1a2e:	91 05       	cpc	r25, r1
    1a30:	69 f0       	breq	.+26     	; 0x1a4c <__printf+0x3d4>
    1a32:	e0 96       	adiw	r28, 0x30	; 48
    1a34:	2e ad       	ldd	r18, Y+62	; 0x3e
    1a36:	3f ad       	ldd	r19, Y+63	; 0x3f
    1a38:	e0 97       	sbiw	r28, 0x30	; 48
    1a3a:	28 37       	cpi	r18, 0x78	; 120
    1a3c:	31 05       	cpc	r19, r1
    1a3e:	59 f0       	breq	.+22     	; 0x1a56 <__printf+0x3de>
    1a40:	e6 c1       	rjmp	.+972    	; 0x1e0e <__printf+0x796>
				case 'd':	// int
				case 'i':
					type = TYPE_DEC_S;
    1a42:	81 e0       	ldi	r24, 0x01	; 1
    1a44:	8a 83       	std	Y+2, r24	; 0x02
					radix = 10;
    1a46:	8a e0       	ldi	r24, 0x0A	; 10
    1a48:	89 83       	std	Y+1, r24	; 0x01
    1a4a:	02 c2       	rjmp	.+1028   	; 0x1e50 <__printf+0x7d8>
					goto output_number_data;
				case 'u':	// unsigned int
					type = TYPE_DEC_U;
    1a4c:	82 e0       	ldi	r24, 0x02	; 2
    1a4e:	8a 83       	std	Y+2, r24	; 0x02
					radix = 10;
    1a50:	8a e0       	ldi	r24, 0x0A	; 10
    1a52:	89 83       	std	Y+1, r24	; 0x01
    1a54:	fd c1       	rjmp	.+1018   	; 0x1e50 <__printf+0x7d8>
					goto output_number_data;
				case 'x':	// hexadecimal(lower-case)
					type = TYPE_HEX_LC;
    1a56:	83 e0       	ldi	r24, 0x03	; 3
    1a58:	8a 83       	std	Y+2, r24	; 0x02
					radix = 16;
    1a5a:	80 e1       	ldi	r24, 0x10	; 16
    1a5c:	89 83       	std	Y+1, r24	; 0x01
    1a5e:	f8 c1       	rjmp	.+1008   	; 0x1e50 <__printf+0x7d8>
					goto output_number_data;
				case 'X':	// hexadecimal(upper-case)
					type = TYPE_HEX_UC;
    1a60:	84 e0       	ldi	r24, 0x04	; 4
    1a62:	8a 83       	std	Y+2, r24	; 0x02
					radix = 16;
    1a64:	80 e1       	ldi	r24, 0x10	; 16
    1a66:	89 83       	std	Y+1, r24	; 0x01
    1a68:	f3 c1       	rjmp	.+998    	; 0x1e50 <__printf+0x7d8>
					goto output_number_data;
				case 'o':	// octal
					type = TYPE_OCT;
    1a6a:	85 e0       	ldi	r24, 0x05	; 5
    1a6c:	8a 83       	std	Y+2, r24	; 0x02
					radix = 8;
    1a6e:	88 e0       	ldi	r24, 0x08	; 8
    1a70:	89 83       	std	Y+1, r24	; 0x01
    1a72:	ee c1       	rjmp	.+988    	; 0x1e50 <__printf+0x7d8>
					goto output_number_data;
				case 'b':	// binary
					type = TYPE_BIN;
    1a74:	86 e0       	ldi	r24, 0x06	; 6
    1a76:	8a 83       	std	Y+2, r24	; 0x02
					radix = 2;
    1a78:	82 e0       	ldi	r24, 0x02	; 2
    1a7a:	89 83       	std	Y+1, r24	; 0x01
    1a7c:	e9 c1       	rjmp	.+978    	; 0x1e50 <__printf+0x7d8>
					goto output_number_data;
				case 's':	// character string
					type = TYPE_STRING;
    1a7e:	88 e0       	ldi	r24, 0x08	; 8
    1a80:	8a 83       	std	Y+2, r24	; 0x02
					char_p = va_arg(ap, char *);
    1a82:	29 8d       	ldd	r18, Y+25	; 0x19
    1a84:	3a 8d       	ldd	r19, Y+26	; 0x1a
    1a86:	c9 01       	movw	r24, r18
    1a88:	02 96       	adiw	r24, 0x02	; 2
    1a8a:	9a 8f       	std	Y+26, r25	; 0x1a
    1a8c:	89 8f       	std	Y+25, r24	; 0x19
    1a8e:	f9 01       	movw	r30, r18
    1a90:	80 81       	ld	r24, Z
    1a92:	91 81       	ldd	r25, Z+1	; 0x01
    1a94:	98 8b       	std	Y+16, r25	; 0x10
    1a96:	8f 87       	std	Y+15, r24	; 0x0f

					char_tmp = (flag & FLAG_ZERO) ? '0' : ' ';
    1a98:	8e 81       	ldd	r24, Y+6	; 0x06
    1a9a:	9f 81       	ldd	r25, Y+7	; 0x07
    1a9c:	88 70       	andi	r24, 0x08	; 8
    1a9e:	90 70       	andi	r25, 0x00	; 0
    1aa0:	00 97       	sbiw	r24, 0x00	; 0
    1aa2:	29 f0       	breq	.+10     	; 0x1aae <__printf+0x436>
    1aa4:	30 e3       	ldi	r19, 0x30	; 48
    1aa6:	ae 96       	adiw	r28, 0x2e	; 46
    1aa8:	3f af       	std	Y+63, r19	; 0x3f
    1aaa:	ae 97       	sbiw	r28, 0x2e	; 46
    1aac:	04 c0       	rjmp	.+8      	; 0x1ab6 <__printf+0x43e>
    1aae:	40 e2       	ldi	r20, 0x20	; 32
    1ab0:	ae 96       	adiw	r28, 0x2e	; 46
    1ab2:	4f af       	std	Y+63, r20	; 0x3f
    1ab4:	ae 97       	sbiw	r28, 0x2e	; 46
    1ab6:	ae 96       	adiw	r28, 0x2e	; 46
    1ab8:	5f ad       	ldd	r21, Y+63	; 0x3f
    1aba:	ae 97       	sbiw	r28, 0x2e	; 46
    1abc:	5e 87       	std	Y+14, r21	; 0x0e

					for( cnt=0; *(char_p + cnt) ; cnt++ );		// 文字列長カウント
    1abe:	1e 8a       	std	Y+22, r1	; 0x16
    1ac0:	1d 8a       	std	Y+21, r1	; 0x15
    1ac2:	05 c0       	rjmp	.+10     	; 0x1ace <__printf+0x456>
    1ac4:	8d 89       	ldd	r24, Y+21	; 0x15
    1ac6:	9e 89       	ldd	r25, Y+22	; 0x16
    1ac8:	01 96       	adiw	r24, 0x01	; 1
    1aca:	9e 8b       	std	Y+22, r25	; 0x16
    1acc:	8d 8b       	std	Y+21, r24	; 0x15
    1ace:	2d 89       	ldd	r18, Y+21	; 0x15
    1ad0:	3e 89       	ldd	r19, Y+22	; 0x16
    1ad2:	8f 85       	ldd	r24, Y+15	; 0x0f
    1ad4:	98 89       	ldd	r25, Y+16	; 0x10
    1ad6:	fc 01       	movw	r30, r24
    1ad8:	e2 0f       	add	r30, r18
    1ada:	f3 1f       	adc	r31, r19
    1adc:	80 81       	ld	r24, Z
    1ade:	88 23       	and	r24, r24
    1ae0:	89 f7       	brne	.-30     	; 0x1ac4 <__printf+0x44c>

					tmp = (width>cnt) ? (width-cnt) : (0);
    1ae2:	2c 81       	ldd	r18, Y+4	; 0x04
    1ae4:	3d 81       	ldd	r19, Y+5	; 0x05
    1ae6:	8d 89       	ldd	r24, Y+21	; 0x15
    1ae8:	9e 89       	ldd	r25, Y+22	; 0x16
    1aea:	82 17       	cp	r24, r18
    1aec:	93 07       	cpc	r25, r19
    1aee:	64 f4       	brge	.+24     	; 0x1b08 <__printf+0x490>
    1af0:	2c 81       	ldd	r18, Y+4	; 0x04
    1af2:	3d 81       	ldd	r19, Y+5	; 0x05
    1af4:	8d 89       	ldd	r24, Y+21	; 0x15
    1af6:	9e 89       	ldd	r25, Y+22	; 0x16
    1af8:	a9 01       	movw	r20, r18
    1afa:	48 1b       	sub	r20, r24
    1afc:	59 0b       	sbc	r21, r25
    1afe:	ad 96       	adiw	r28, 0x2d	; 45
    1b00:	5f af       	std	Y+63, r21	; 0x3f
    1b02:	4e af       	std	Y+62, r20	; 0x3e
    1b04:	ad 97       	sbiw	r28, 0x2d	; 45
    1b06:	04 c0       	rjmp	.+8      	; 0x1b10 <__printf+0x498>
    1b08:	ad 96       	adiw	r28, 0x2d	; 45
    1b0a:	1f ae       	std	Y+63, r1	; 0x3f
    1b0c:	1e ae       	std	Y+62, r1	; 0x3e
    1b0e:	ad 97       	sbiw	r28, 0x2d	; 45
    1b10:	ad 96       	adiw	r28, 0x2d	; 45
    1b12:	8e ad       	ldd	r24, Y+62	; 0x3e
    1b14:	9f ad       	ldd	r25, Y+63	; 0x3f
    1b16:	ad 97       	sbiw	r28, 0x2d	; 45
    1b18:	9c 8b       	std	Y+20, r25	; 0x14
    1b1a:	8b 8b       	std	Y+19, r24	; 0x13
					if( flag & FLAG_ALEFT ){
    1b1c:	8e 81       	ldd	r24, Y+6	; 0x06
    1b1e:	9f 81       	ldd	r25, Y+7	; 0x07
    1b20:	81 70       	andi	r24, 0x01	; 1
    1b22:	90 70       	andi	r25, 0x00	; 0
    1b24:	88 23       	and	r24, r24
    1b26:	09 f4       	brne	.+2      	; 0x1b2a <__printf+0x4b2>
    1b28:	47 c0       	rjmp	.+142    	; 0x1bb8 <__printf+0x540>
    1b2a:	14 c0       	rjmp	.+40     	; 0x1b54 <__printf+0x4dc>
						while(*char_p){ OUTPUT(*(char_p++));	output_cnt++; }
    1b2c:	20 91 4b 02 	lds	r18, 0x024B
    1b30:	30 91 4c 02 	lds	r19, 0x024C
    1b34:	ef 85       	ldd	r30, Y+15	; 0x0f
    1b36:	f8 89       	ldd	r31, Y+16	; 0x10
    1b38:	40 81       	ld	r20, Z
    1b3a:	8f 85       	ldd	r24, Y+15	; 0x0f
    1b3c:	98 89       	ldd	r25, Y+16	; 0x10
    1b3e:	01 96       	adiw	r24, 0x01	; 1
    1b40:	98 8b       	std	Y+16, r25	; 0x10
    1b42:	8f 87       	std	Y+15, r24	; 0x0f
    1b44:	84 2f       	mov	r24, r20
    1b46:	f9 01       	movw	r30, r18
    1b48:	09 95       	icall
    1b4a:	88 85       	ldd	r24, Y+8	; 0x08
    1b4c:	99 85       	ldd	r25, Y+9	; 0x09
    1b4e:	01 96       	adiw	r24, 0x01	; 1
    1b50:	99 87       	std	Y+9, r25	; 0x09
    1b52:	88 87       	std	Y+8, r24	; 0x08
    1b54:	ef 85       	ldd	r30, Y+15	; 0x0f
    1b56:	f8 89       	ldd	r31, Y+16	; 0x10
    1b58:	80 81       	ld	r24, Z
    1b5a:	88 23       	and	r24, r24
    1b5c:	39 f7       	brne	.-50     	; 0x1b2c <__printf+0x4b4>
    1b5e:	0b c0       	rjmp	.+22     	; 0x1b76 <__printf+0x4fe>
						while( tmp-- ){ OUTPUT(' ');			output_cnt++; }
    1b60:	e0 91 4b 02 	lds	r30, 0x024B
    1b64:	f0 91 4c 02 	lds	r31, 0x024C
    1b68:	80 e2       	ldi	r24, 0x20	; 32
    1b6a:	09 95       	icall
    1b6c:	88 85       	ldd	r24, Y+8	; 0x08
    1b6e:	99 85       	ldd	r25, Y+9	; 0x09
    1b70:	01 96       	adiw	r24, 0x01	; 1
    1b72:	99 87       	std	Y+9, r25	; 0x09
    1b74:	88 87       	std	Y+8, r24	; 0x08
    1b76:	ab 96       	adiw	r28, 0x2b	; 43
    1b78:	1f ae       	std	Y+63, r1	; 0x3f
    1b7a:	ab 97       	sbiw	r28, 0x2b	; 43
    1b7c:	8b 89       	ldd	r24, Y+19	; 0x13
    1b7e:	9c 89       	ldd	r25, Y+20	; 0x14
    1b80:	00 97       	sbiw	r24, 0x00	; 0
    1b82:	21 f0       	breq	.+8      	; 0x1b8c <__printf+0x514>
    1b84:	91 e0       	ldi	r25, 0x01	; 1
    1b86:	ab 96       	adiw	r28, 0x2b	; 43
    1b88:	9f af       	std	Y+63, r25	; 0x3f
    1b8a:	ab 97       	sbiw	r28, 0x2b	; 43
    1b8c:	8b 89       	ldd	r24, Y+19	; 0x13
    1b8e:	9c 89       	ldd	r25, Y+20	; 0x14
    1b90:	01 97       	sbiw	r24, 0x01	; 1
    1b92:	9c 8b       	std	Y+20, r25	; 0x14
    1b94:	8b 8b       	std	Y+19, r24	; 0x13
    1b96:	ab 96       	adiw	r28, 0x2b	; 43
    1b98:	2f ad       	ldd	r18, Y+63	; 0x3f
    1b9a:	ab 97       	sbiw	r28, 0x2b	; 43
    1b9c:	22 23       	and	r18, r18
    1b9e:	01 f7       	brne	.-64     	; 0x1b60 <__printf+0x4e8>
    1ba0:	3f c1       	rjmp	.+638    	; 0x1e20 <__printf+0x7a8>
					}else{
						while( tmp-- ){ OUTPUT(char_tmp);	output_cnt++; }
    1ba2:	e0 91 4b 02 	lds	r30, 0x024B
    1ba6:	f0 91 4c 02 	lds	r31, 0x024C
    1baa:	8e 85       	ldd	r24, Y+14	; 0x0e
    1bac:	09 95       	icall
    1bae:	88 85       	ldd	r24, Y+8	; 0x08
    1bb0:	99 85       	ldd	r25, Y+9	; 0x09
    1bb2:	01 96       	adiw	r24, 0x01	; 1
    1bb4:	99 87       	std	Y+9, r25	; 0x09
    1bb6:	88 87       	std	Y+8, r24	; 0x08
    1bb8:	aa 96       	adiw	r28, 0x2a	; 42
    1bba:	1f ae       	std	Y+63, r1	; 0x3f
    1bbc:	aa 97       	sbiw	r28, 0x2a	; 42
    1bbe:	8b 89       	ldd	r24, Y+19	; 0x13
    1bc0:	9c 89       	ldd	r25, Y+20	; 0x14
    1bc2:	00 97       	sbiw	r24, 0x00	; 0
    1bc4:	21 f0       	breq	.+8      	; 0x1bce <__printf+0x556>
    1bc6:	31 e0       	ldi	r19, 0x01	; 1
    1bc8:	aa 96       	adiw	r28, 0x2a	; 42
    1bca:	3f af       	std	Y+63, r19	; 0x3f
    1bcc:	aa 97       	sbiw	r28, 0x2a	; 42
    1bce:	8b 89       	ldd	r24, Y+19	; 0x13
    1bd0:	9c 89       	ldd	r25, Y+20	; 0x14
    1bd2:	01 97       	sbiw	r24, 0x01	; 1
    1bd4:	9c 8b       	std	Y+20, r25	; 0x14
    1bd6:	8b 8b       	std	Y+19, r24	; 0x13
    1bd8:	aa 96       	adiw	r28, 0x2a	; 42
    1bda:	4f ad       	ldd	r20, Y+63	; 0x3f
    1bdc:	aa 97       	sbiw	r28, 0x2a	; 42
    1bde:	44 23       	and	r20, r20
    1be0:	01 f7       	brne	.-64     	; 0x1ba2 <__printf+0x52a>
    1be2:	14 c0       	rjmp	.+40     	; 0x1c0c <__printf+0x594>
						while(*char_p){ OUTPUT(*(char_p++)); output_cnt++; }
    1be4:	20 91 4b 02 	lds	r18, 0x024B
    1be8:	30 91 4c 02 	lds	r19, 0x024C
    1bec:	ef 85       	ldd	r30, Y+15	; 0x0f
    1bee:	f8 89       	ldd	r31, Y+16	; 0x10
    1bf0:	40 81       	ld	r20, Z
    1bf2:	8f 85       	ldd	r24, Y+15	; 0x0f
    1bf4:	98 89       	ldd	r25, Y+16	; 0x10
    1bf6:	01 96       	adiw	r24, 0x01	; 1
    1bf8:	98 8b       	std	Y+16, r25	; 0x10
    1bfa:	8f 87       	std	Y+15, r24	; 0x0f
    1bfc:	84 2f       	mov	r24, r20
    1bfe:	f9 01       	movw	r30, r18
    1c00:	09 95       	icall
    1c02:	88 85       	ldd	r24, Y+8	; 0x08
    1c04:	99 85       	ldd	r25, Y+9	; 0x09
    1c06:	01 96       	adiw	r24, 0x01	; 1
    1c08:	99 87       	std	Y+9, r25	; 0x09
    1c0a:	88 87       	std	Y+8, r24	; 0x08
    1c0c:	ef 85       	ldd	r30, Y+15	; 0x0f
    1c0e:	f8 89       	ldd	r31, Y+16	; 0x10
    1c10:	80 81       	ld	r24, Z
    1c12:	88 23       	and	r24, r24
    1c14:	39 f7       	brne	.-50     	; 0x1be4 <__printf+0x56c>
    1c16:	04 c1       	rjmp	.+520    	; 0x1e20 <__printf+0x7a8>
					}
					break;
				case 'p':	// pointer (void *)
					type = TYPE_POINTER;
    1c18:	89 e0       	ldi	r24, 0x09	; 9
    1c1a:	8a 83       	std	Y+2, r24	; 0x02
					radix = 16;
    1c1c:	80 e1       	ldi	r24, 0x10	; 16
    1c1e:	89 83       	std	Y+1, r24	; 0x01
					flag |= FLAG_ALT;		// enable alternate form '0x'
    1c20:	8e 81       	ldd	r24, Y+6	; 0x06
    1c22:	9f 81       	ldd	r25, Y+7	; 0x07
    1c24:	80 61       	ori	r24, 0x10	; 16
    1c26:	9f 83       	std	Y+7, r25	; 0x07
    1c28:	8e 83       	std	Y+6, r24	; 0x06
    1c2a:	12 c1       	rjmp	.+548    	; 0x1e50 <__printf+0x7d8>
					goto output_number_data;
				case 'c':	// charcter
					type = TYPE_CHAR;
    1c2c:	87 e0       	ldi	r24, 0x07	; 7
    1c2e:	8a 83       	std	Y+2, r24	; 0x02
				case '%':	// literal '%'
					type = (type == TYPE_UNKNOWN) ? TYPE_PERCENT : type;
    1c30:	8a 81       	ldd	r24, Y+2	; 0x02
    1c32:	88 23       	and	r24, r24
    1c34:	29 f0       	breq	.+10     	; 0x1c40 <__printf+0x5c8>
    1c36:	5a 81       	ldd	r21, Y+2	; 0x02
    1c38:	a9 96       	adiw	r28, 0x29	; 41
    1c3a:	5f af       	std	Y+63, r21	; 0x3f
    1c3c:	a9 97       	sbiw	r28, 0x29	; 41
    1c3e:	04 c0       	rjmp	.+8      	; 0x1c48 <__printf+0x5d0>
    1c40:	8a e0       	ldi	r24, 0x0A	; 10
    1c42:	a9 96       	adiw	r28, 0x29	; 41
    1c44:	8f af       	std	Y+63, r24	; 0x3f
    1c46:	a9 97       	sbiw	r28, 0x29	; 41
    1c48:	a9 96       	adiw	r28, 0x29	; 41
    1c4a:	9f ad       	ldd	r25, Y+63	; 0x3f
    1c4c:	a9 97       	sbiw	r28, 0x29	; 41
    1c4e:	9a 83       	std	Y+2, r25	; 0x02
					tmp = (width>0) ? (width-1) : (0);
    1c50:	8c 81       	ldd	r24, Y+4	; 0x04
    1c52:	9d 81       	ldd	r25, Y+5	; 0x05
    1c54:	18 16       	cp	r1, r24
    1c56:	19 06       	cpc	r1, r25
    1c58:	54 f4       	brge	.+20     	; 0x1c6e <__printf+0x5f6>
    1c5a:	8c 81       	ldd	r24, Y+4	; 0x04
    1c5c:	9d 81       	ldd	r25, Y+5	; 0x05
    1c5e:	9c 01       	movw	r18, r24
    1c60:	21 50       	subi	r18, 0x01	; 1
    1c62:	30 40       	sbci	r19, 0x00	; 0
    1c64:	a8 96       	adiw	r28, 0x28	; 40
    1c66:	3f af       	std	Y+63, r19	; 0x3f
    1c68:	2e af       	std	Y+62, r18	; 0x3e
    1c6a:	a8 97       	sbiw	r28, 0x28	; 40
    1c6c:	04 c0       	rjmp	.+8      	; 0x1c76 <__printf+0x5fe>
    1c6e:	a8 96       	adiw	r28, 0x28	; 40
    1c70:	1f ae       	std	Y+63, r1	; 0x3f
    1c72:	1e ae       	std	Y+62, r1	; 0x3e
    1c74:	a8 97       	sbiw	r28, 0x28	; 40
    1c76:	a8 96       	adiw	r28, 0x28	; 40
    1c78:	4e ad       	ldd	r20, Y+62	; 0x3e
    1c7a:	5f ad       	ldd	r21, Y+63	; 0x3f
    1c7c:	a8 97       	sbiw	r28, 0x28	; 40
    1c7e:	5c 8b       	std	Y+20, r21	; 0x14
    1c80:	4b 8b       	std	Y+19, r20	; 0x13
					if( flag & FLAG_ALEFT ){
    1c82:	8e 81       	ldd	r24, Y+6	; 0x06
    1c84:	9f 81       	ldd	r25, Y+7	; 0x07
    1c86:	81 70       	andi	r24, 0x01	; 1
    1c88:	90 70       	andi	r25, 0x00	; 0
    1c8a:	88 23       	and	r24, r24
    1c8c:	09 f4       	brne	.+2      	; 0x1c90 <__printf+0x618>
    1c8e:	4c c0       	rjmp	.+152    	; 0x1d28 <__printf+0x6b0>
						OUTPUT((type == TYPE_CHAR) ? ((char)( va_arg(ap, int) )) : '%');
    1c90:	80 91 4b 02 	lds	r24, 0x024B
    1c94:	90 91 4c 02 	lds	r25, 0x024C
    1c98:	a6 96       	adiw	r28, 0x26	; 38
    1c9a:	9f af       	std	Y+63, r25	; 0x3f
    1c9c:	8e af       	std	Y+62, r24	; 0x3e
    1c9e:	a6 97       	sbiw	r28, 0x26	; 38
    1ca0:	8a 81       	ldd	r24, Y+2	; 0x02
    1ca2:	87 30       	cpi	r24, 0x07	; 7
    1ca4:	69 f4       	brne	.+26     	; 0x1cc0 <__printf+0x648>
    1ca6:	29 8d       	ldd	r18, Y+25	; 0x19
    1ca8:	3a 8d       	ldd	r19, Y+26	; 0x1a
    1caa:	c9 01       	movw	r24, r18
    1cac:	02 96       	adiw	r24, 0x02	; 2
    1cae:	9a 8f       	std	Y+26, r25	; 0x1a
    1cb0:	89 8f       	std	Y+25, r24	; 0x19
    1cb2:	f9 01       	movw	r30, r18
    1cb4:	80 81       	ld	r24, Z
    1cb6:	91 81       	ldd	r25, Z+1	; 0x01
    1cb8:	a4 96       	adiw	r28, 0x24	; 36
    1cba:	8f af       	std	Y+63, r24	; 0x3f
    1cbc:	a4 97       	sbiw	r28, 0x24	; 36
    1cbe:	04 c0       	rjmp	.+8      	; 0x1cc8 <__printf+0x650>
    1cc0:	95 e2       	ldi	r25, 0x25	; 37
    1cc2:	a4 96       	adiw	r28, 0x24	; 36
    1cc4:	9f af       	std	Y+63, r25	; 0x3f
    1cc6:	a4 97       	sbiw	r28, 0x24	; 36
    1cc8:	a4 96       	adiw	r28, 0x24	; 36
    1cca:	8f ad       	ldd	r24, Y+63	; 0x3f
    1ccc:	a4 97       	sbiw	r28, 0x24	; 36
    1cce:	a6 96       	adiw	r28, 0x26	; 38
    1cd0:	2e ad       	ldd	r18, Y+62	; 0x3e
    1cd2:	3f ad       	ldd	r19, Y+63	; 0x3f
    1cd4:	a6 97       	sbiw	r28, 0x26	; 38
    1cd6:	f9 01       	movw	r30, r18
    1cd8:	09 95       	icall
						output_cnt++;
    1cda:	88 85       	ldd	r24, Y+8	; 0x08
    1cdc:	99 85       	ldd	r25, Y+9	; 0x09
    1cde:	01 96       	adiw	r24, 0x01	; 1
    1ce0:	99 87       	std	Y+9, r25	; 0x09
    1ce2:	88 87       	std	Y+8, r24	; 0x08
    1ce4:	0b c0       	rjmp	.+22     	; 0x1cfc <__printf+0x684>
						while( tmp-- ){ OUTPUT(' ');	output_cnt++; }
    1ce6:	e0 91 4b 02 	lds	r30, 0x024B
    1cea:	f0 91 4c 02 	lds	r31, 0x024C
    1cee:	80 e2       	ldi	r24, 0x20	; 32
    1cf0:	09 95       	icall
    1cf2:	88 85       	ldd	r24, Y+8	; 0x08
    1cf4:	99 85       	ldd	r25, Y+9	; 0x09
    1cf6:	01 96       	adiw	r24, 0x01	; 1
    1cf8:	99 87       	std	Y+9, r25	; 0x09
    1cfa:	88 87       	std	Y+8, r24	; 0x08
    1cfc:	a3 96       	adiw	r28, 0x23	; 35
    1cfe:	1f ae       	std	Y+63, r1	; 0x3f
    1d00:	a3 97       	sbiw	r28, 0x23	; 35
    1d02:	8b 89       	ldd	r24, Y+19	; 0x13
    1d04:	9c 89       	ldd	r25, Y+20	; 0x14
    1d06:	00 97       	sbiw	r24, 0x00	; 0
    1d08:	21 f0       	breq	.+8      	; 0x1d12 <__printf+0x69a>
    1d0a:	31 e0       	ldi	r19, 0x01	; 1
    1d0c:	a3 96       	adiw	r28, 0x23	; 35
    1d0e:	3f af       	std	Y+63, r19	; 0x3f
    1d10:	a3 97       	sbiw	r28, 0x23	; 35
    1d12:	8b 89       	ldd	r24, Y+19	; 0x13
    1d14:	9c 89       	ldd	r25, Y+20	; 0x14
    1d16:	01 97       	sbiw	r24, 0x01	; 1
    1d18:	9c 8b       	std	Y+20, r25	; 0x14
    1d1a:	8b 8b       	std	Y+19, r24	; 0x13
    1d1c:	a3 96       	adiw	r28, 0x23	; 35
    1d1e:	4f ad       	ldd	r20, Y+63	; 0x3f
    1d20:	a3 97       	sbiw	r28, 0x23	; 35
    1d22:	44 23       	and	r20, r20
    1d24:	01 f7       	brne	.-64     	; 0x1ce6 <__printf+0x66e>
    1d26:	7c c0       	rjmp	.+248    	; 0x1e20 <__printf+0x7a8>
					}else{
						char_tmp = (flag & FLAG_ZERO) ? '0' : ' ';
    1d28:	8e 81       	ldd	r24, Y+6	; 0x06
    1d2a:	9f 81       	ldd	r25, Y+7	; 0x07
    1d2c:	88 70       	andi	r24, 0x08	; 8
    1d2e:	90 70       	andi	r25, 0x00	; 0
    1d30:	00 97       	sbiw	r24, 0x00	; 0
    1d32:	29 f0       	breq	.+10     	; 0x1d3e <__printf+0x6c6>
    1d34:	50 e3       	ldi	r21, 0x30	; 48
    1d36:	a2 96       	adiw	r28, 0x22	; 34
    1d38:	5f af       	std	Y+63, r21	; 0x3f
    1d3a:	a2 97       	sbiw	r28, 0x22	; 34
    1d3c:	04 c0       	rjmp	.+8      	; 0x1d46 <__printf+0x6ce>
    1d3e:	80 e2       	ldi	r24, 0x20	; 32
    1d40:	a2 96       	adiw	r28, 0x22	; 34
    1d42:	8f af       	std	Y+63, r24	; 0x3f
    1d44:	a2 97       	sbiw	r28, 0x22	; 34
    1d46:	a2 96       	adiw	r28, 0x22	; 34
    1d48:	9f ad       	ldd	r25, Y+63	; 0x3f
    1d4a:	a2 97       	sbiw	r28, 0x22	; 34
    1d4c:	9e 87       	std	Y+14, r25	; 0x0e
    1d4e:	0b c0       	rjmp	.+22     	; 0x1d66 <__printf+0x6ee>
						while( tmp-- ){ OUTPUT(char_tmp);	output_cnt++; }
    1d50:	e0 91 4b 02 	lds	r30, 0x024B
    1d54:	f0 91 4c 02 	lds	r31, 0x024C
    1d58:	8e 85       	ldd	r24, Y+14	; 0x0e
    1d5a:	09 95       	icall
    1d5c:	88 85       	ldd	r24, Y+8	; 0x08
    1d5e:	99 85       	ldd	r25, Y+9	; 0x09
    1d60:	01 96       	adiw	r24, 0x01	; 1
    1d62:	99 87       	std	Y+9, r25	; 0x09
    1d64:	88 87       	std	Y+8, r24	; 0x08
    1d66:	a1 96       	adiw	r28, 0x21	; 33
    1d68:	1f ae       	std	Y+63, r1	; 0x3f
    1d6a:	a1 97       	sbiw	r28, 0x21	; 33
    1d6c:	8b 89       	ldd	r24, Y+19	; 0x13
    1d6e:	9c 89       	ldd	r25, Y+20	; 0x14
    1d70:	00 97       	sbiw	r24, 0x00	; 0
    1d72:	21 f0       	breq	.+8      	; 0x1d7c <__printf+0x704>
    1d74:	21 e0       	ldi	r18, 0x01	; 1
    1d76:	a1 96       	adiw	r28, 0x21	; 33
    1d78:	2f af       	std	Y+63, r18	; 0x3f
    1d7a:	a1 97       	sbiw	r28, 0x21	; 33
    1d7c:	8b 89       	ldd	r24, Y+19	; 0x13
    1d7e:	9c 89       	ldd	r25, Y+20	; 0x14
    1d80:	01 97       	sbiw	r24, 0x01	; 1
    1d82:	9c 8b       	std	Y+20, r25	; 0x14
    1d84:	8b 8b       	std	Y+19, r24	; 0x13
    1d86:	a1 96       	adiw	r28, 0x21	; 33
    1d88:	3f ad       	ldd	r19, Y+63	; 0x3f
    1d8a:	a1 97       	sbiw	r28, 0x21	; 33
    1d8c:	33 23       	and	r19, r19
    1d8e:	01 f7       	brne	.-64     	; 0x1d50 <__printf+0x6d8>
						OUTPUT((type == TYPE_CHAR) ? ((char)( va_arg(ap, int) )) : '%');
    1d90:	40 91 4b 02 	lds	r20, 0x024B
    1d94:	50 91 4c 02 	lds	r21, 0x024C
    1d98:	a0 96       	adiw	r28, 0x20	; 32
    1d9a:	5f af       	std	Y+63, r21	; 0x3f
    1d9c:	4e af       	std	Y+62, r20	; 0x3e
    1d9e:	a0 97       	sbiw	r28, 0x20	; 32
    1da0:	8a 81       	ldd	r24, Y+2	; 0x02
    1da2:	87 30       	cpi	r24, 0x07	; 7
    1da4:	69 f4       	brne	.+26     	; 0x1dc0 <__printf+0x748>
    1da6:	29 8d       	ldd	r18, Y+25	; 0x19
    1da8:	3a 8d       	ldd	r19, Y+26	; 0x1a
    1daa:	c9 01       	movw	r24, r18
    1dac:	02 96       	adiw	r24, 0x02	; 2
    1dae:	9a 8f       	std	Y+26, r25	; 0x1a
    1db0:	89 8f       	std	Y+25, r24	; 0x19
    1db2:	f9 01       	movw	r30, r18
    1db4:	80 81       	ld	r24, Z
    1db6:	91 81       	ldd	r25, Z+1	; 0x01
    1db8:	6e 96       	adiw	r28, 0x1e	; 30
    1dba:	8f af       	std	Y+63, r24	; 0x3f
    1dbc:	6e 97       	sbiw	r28, 0x1e	; 30
    1dbe:	04 c0       	rjmp	.+8      	; 0x1dc8 <__printf+0x750>
    1dc0:	55 e2       	ldi	r21, 0x25	; 37
    1dc2:	6e 96       	adiw	r28, 0x1e	; 30
    1dc4:	5f af       	std	Y+63, r21	; 0x3f
    1dc6:	6e 97       	sbiw	r28, 0x1e	; 30
    1dc8:	6e 96       	adiw	r28, 0x1e	; 30
    1dca:	8f ad       	ldd	r24, Y+63	; 0x3f
    1dcc:	6e 97       	sbiw	r28, 0x1e	; 30
    1dce:	a0 96       	adiw	r28, 0x20	; 32
    1dd0:	2e ad       	ldd	r18, Y+62	; 0x3e
    1dd2:	3f ad       	ldd	r19, Y+63	; 0x3f
    1dd4:	a0 97       	sbiw	r28, 0x20	; 32
    1dd6:	f9 01       	movw	r30, r18
    1dd8:	09 95       	icall
						output_cnt++;
    1dda:	88 85       	ldd	r24, Y+8	; 0x08
    1ddc:	99 85       	ldd	r25, Y+9	; 0x09
    1dde:	01 96       	adiw	r24, 0x01	; 1
    1de0:	99 87       	std	Y+9, r25	; 0x09
    1de2:	88 87       	std	Y+8, r24	; 0x08
    1de4:	1d c0       	rjmp	.+58     	; 0x1e20 <__printf+0x7a8>
					}
					break;
				case 'n':
					type = TYPE_OUTNUM;
    1de6:	8b e0       	ldi	r24, 0x0B	; 11
    1de8:	8a 83       	std	Y+2, r24	; 0x02
					int_p = va_arg(ap, int *);
    1dea:	29 8d       	ldd	r18, Y+25	; 0x19
    1dec:	3a 8d       	ldd	r19, Y+26	; 0x1a
    1dee:	c9 01       	movw	r24, r18
    1df0:	02 96       	adiw	r24, 0x02	; 2
    1df2:	9a 8f       	std	Y+26, r25	; 0x1a
    1df4:	89 8f       	std	Y+25, r24	; 0x19
    1df6:	f9 01       	movw	r30, r18
    1df8:	80 81       	ld	r24, Z
    1dfa:	91 81       	ldd	r25, Z+1	; 0x01
    1dfc:	9a 8b       	std	Y+18, r25	; 0x12
    1dfe:	89 8b       	std	Y+17, r24	; 0x11
					*int_p = output_cnt;
    1e00:	88 85       	ldd	r24, Y+8	; 0x08
    1e02:	99 85       	ldd	r25, Y+9	; 0x09
    1e04:	e9 89       	ldd	r30, Y+17	; 0x11
    1e06:	fa 89       	ldd	r31, Y+18	; 0x12
    1e08:	91 83       	std	Z+1, r25	; 0x01
    1e0a:	80 83       	st	Z, r24
    1e0c:	09 c0       	rjmp	.+18     	; 0x1e20 <__printf+0x7a8>
					break;
				default:
					format--;
    1e0e:	ee 96       	adiw	r28, 0x3e	; 62
    1e10:	8e ad       	ldd	r24, Y+62	; 0x3e
    1e12:	9f ad       	ldd	r25, Y+63	; 0x3f
    1e14:	ee 97       	sbiw	r28, 0x3e	; 62
    1e16:	01 97       	sbiw	r24, 0x01	; 1
    1e18:	ee 96       	adiw	r28, 0x3e	; 62
    1e1a:	9f af       	std	Y+63, r25	; 0x3f
    1e1c:	8e af       	std	Y+62, r24	; 0x3e
    1e1e:	ee 97       	sbiw	r28, 0x3e	; 62
			}
			///////////// type analysis //////////////
			finish_output_number_data:
			format++;
    1e20:	ee 96       	adiw	r28, 0x3e	; 62
    1e22:	8e ad       	ldd	r24, Y+62	; 0x3e
    1e24:	9f ad       	ldd	r25, Y+63	; 0x3f
    1e26:	ee 97       	sbiw	r28, 0x3e	; 62
    1e28:	01 96       	adiw	r24, 0x01	; 1
    1e2a:	ee 96       	adiw	r28, 0x3e	; 62
    1e2c:	9f af       	std	Y+63, r25	; 0x3f
    1e2e:	8e af       	std	Y+62, r24	; 0x3e
    1e30:	ee 97       	sbiw	r28, 0x3e	; 62
	
	if( __printf_output == NULL )	return -1;

	va_start(ap, format);
	
	while( *format ){
    1e32:	ee 96       	adiw	r28, 0x3e	; 62
    1e34:	ee ad       	ldd	r30, Y+62	; 0x3e
    1e36:	ff ad       	ldd	r31, Y+63	; 0x3f
    1e38:	ee 97       	sbiw	r28, 0x3e	; 62
    1e3a:	80 81       	ld	r24, Z
    1e3c:	88 23       	and	r24, r24
    1e3e:	09 f0       	breq	.+2      	; 0x1e42 <__printf+0x7ca>
    1e40:	3e cc       	rjmp	.-1924   	; 0x16be <__printf+0x46>
			format++;
		}
	}
	va_end(ap);

	return output_cnt;
    1e42:	48 85       	ldd	r20, Y+8	; 0x08
    1e44:	59 85       	ldd	r21, Y+9	; 0x09
    1e46:	e6 96       	adiw	r28, 0x36	; 54
    1e48:	5f af       	std	Y+63, r21	; 0x3f
    1e4a:	4e af       	std	Y+62, r20	; 0x3e
    1e4c:	e6 97       	sbiw	r28, 0x36	; 54
    1e4e:	fa c3       	rjmp	.+2036   	; 0x2644 <__printf+0xfcc>

output_number_data:
	switch( type ){
    1e50:	8a 81       	ldd	r24, Y+2	; 0x02
    1e52:	28 2f       	mov	r18, r24
    1e54:	30 e0       	ldi	r19, 0x00	; 0
    1e56:	6d 96       	adiw	r28, 0x1d	; 29
    1e58:	3f af       	std	Y+63, r19	; 0x3f
    1e5a:	2e af       	std	Y+62, r18	; 0x3e
    1e5c:	6d 97       	sbiw	r28, 0x1d	; 29
    1e5e:	6d 96       	adiw	r28, 0x1d	; 29
    1e60:	4e ad       	ldd	r20, Y+62	; 0x3e
    1e62:	5f ad       	ldd	r21, Y+63	; 0x3f
    1e64:	6d 97       	sbiw	r28, 0x1d	; 29
    1e66:	41 30       	cpi	r20, 0x01	; 1
    1e68:	51 05       	cpc	r21, r1
    1e6a:	49 f0       	breq	.+18     	; 0x1e7e <__printf+0x806>
    1e6c:	6d 96       	adiw	r28, 0x1d	; 29
    1e6e:	8e ad       	ldd	r24, Y+62	; 0x3e
    1e70:	9f ad       	ldd	r25, Y+63	; 0x3f
    1e72:	6d 97       	sbiw	r28, 0x1d	; 29
    1e74:	89 30       	cpi	r24, 0x09	; 9
    1e76:	91 05       	cpc	r25, r1
    1e78:	09 f4       	brne	.+2      	; 0x1e7c <__printf+0x804>
    1e7a:	8c c0       	rjmp	.+280    	; 0x1f94 <__printf+0x91c>
    1e7c:	a4 c0       	rjmp	.+328    	; 0x1fc6 <__printf+0x94e>
		case TYPE_DEC_S:
			// signed number
			switch(length){
    1e7e:	8b 81       	ldd	r24, Y+3	; 0x03
    1e80:	28 2f       	mov	r18, r24
    1e82:	30 e0       	ldi	r19, 0x00	; 0
    1e84:	6b 96       	adiw	r28, 0x1b	; 27
    1e86:	3f af       	std	Y+63, r19	; 0x3f
    1e88:	2e af       	std	Y+62, r18	; 0x3e
    1e8a:	6b 97       	sbiw	r28, 0x1b	; 27
    1e8c:	6b 96       	adiw	r28, 0x1b	; 27
    1e8e:	4e ad       	ldd	r20, Y+62	; 0x3e
    1e90:	5f ad       	ldd	r21, Y+63	; 0x3f
    1e92:	6b 97       	sbiw	r28, 0x1b	; 27
    1e94:	41 30       	cpi	r20, 0x01	; 1
    1e96:	51 05       	cpc	r21, r1
    1e98:	81 f1       	breq	.+96     	; 0x1efa <__printf+0x882>
    1e9a:	6b 96       	adiw	r28, 0x1b	; 27
    1e9c:	8e ad       	ldd	r24, Y+62	; 0x3e
    1e9e:	9f ad       	ldd	r25, Y+63	; 0x3f
    1ea0:	6b 97       	sbiw	r28, 0x1b	; 27
    1ea2:	82 30       	cpi	r24, 0x02	; 2
    1ea4:	91 05       	cpc	r25, r1
    1ea6:	44 f4       	brge	.+16     	; 0x1eb8 <__printf+0x840>
    1ea8:	6b 96       	adiw	r28, 0x1b	; 27
    1eaa:	2e ad       	ldd	r18, Y+62	; 0x3e
    1eac:	3f ad       	ldd	r19, Y+63	; 0x3f
    1eae:	6b 97       	sbiw	r28, 0x1b	; 27
    1eb0:	21 15       	cp	r18, r1
    1eb2:	31 05       	cpc	r19, r1
    1eb4:	81 f0       	breq	.+32     	; 0x1ed6 <__printf+0x85e>
    1eb6:	54 c0       	rjmp	.+168    	; 0x1f60 <__printf+0x8e8>
    1eb8:	6b 96       	adiw	r28, 0x1b	; 27
    1eba:	4e ad       	ldd	r20, Y+62	; 0x3e
    1ebc:	5f ad       	ldd	r21, Y+63	; 0x3f
    1ebe:	6b 97       	sbiw	r28, 0x1b	; 27
    1ec0:	42 30       	cpi	r20, 0x02	; 2
    1ec2:	51 05       	cpc	r21, r1
    1ec4:	51 f1       	breq	.+84     	; 0x1f1a <__printf+0x8a2>
    1ec6:	6b 96       	adiw	r28, 0x1b	; 27
    1ec8:	8e ad       	ldd	r24, Y+62	; 0x3e
    1eca:	9f ad       	ldd	r25, Y+63	; 0x3f
    1ecc:	6b 97       	sbiw	r28, 0x1b	; 27
    1ece:	83 30       	cpi	r24, 0x03	; 3
    1ed0:	91 05       	cpc	r25, r1
    1ed2:	a9 f1       	breq	.+106    	; 0x1f3e <__printf+0x8c6>
    1ed4:	45 c0       	rjmp	.+138    	; 0x1f60 <__printf+0x8e8>
				case LENGTH_DEFAULT:	number.value.s = (signed long)( va_arg(ap, signed int) );		break;
    1ed6:	29 8d       	ldd	r18, Y+25	; 0x19
    1ed8:	3a 8d       	ldd	r19, Y+26	; 0x1a
    1eda:	c9 01       	movw	r24, r18
    1edc:	02 96       	adiw	r24, 0x02	; 2
    1ede:	9a 8f       	std	Y+26, r25	; 0x1a
    1ee0:	89 8f       	std	Y+25, r24	; 0x19
    1ee2:	f9 01       	movw	r30, r18
    1ee4:	80 81       	ld	r24, Z
    1ee6:	91 81       	ldd	r25, Z+1	; 0x01
    1ee8:	aa 27       	eor	r26, r26
    1eea:	97 fd       	sbrc	r25, 7
    1eec:	a0 95       	com	r26
    1eee:	ba 2f       	mov	r27, r26
    1ef0:	8c af       	std	Y+60, r24	; 0x3c
    1ef2:	9d af       	std	Y+61, r25	; 0x3d
    1ef4:	ae af       	std	Y+62, r26	; 0x3e
    1ef6:	bf af       	std	Y+63, r27	; 0x3f
    1ef8:	33 c0       	rjmp	.+102    	; 0x1f60 <__printf+0x8e8>
				case LENGTH_LONG:		number.value.s = (signed long)( va_arg(ap, signed long) );		break;
    1efa:	29 8d       	ldd	r18, Y+25	; 0x19
    1efc:	3a 8d       	ldd	r19, Y+26	; 0x1a
    1efe:	c9 01       	movw	r24, r18
    1f00:	04 96       	adiw	r24, 0x04	; 4
    1f02:	9a 8f       	std	Y+26, r25	; 0x1a
    1f04:	89 8f       	std	Y+25, r24	; 0x19
    1f06:	f9 01       	movw	r30, r18
    1f08:	80 81       	ld	r24, Z
    1f0a:	91 81       	ldd	r25, Z+1	; 0x01
    1f0c:	a2 81       	ldd	r26, Z+2	; 0x02
    1f0e:	b3 81       	ldd	r27, Z+3	; 0x03
    1f10:	8c af       	std	Y+60, r24	; 0x3c
    1f12:	9d af       	std	Y+61, r25	; 0x3d
    1f14:	ae af       	std	Y+62, r26	; 0x3e
    1f16:	bf af       	std	Y+63, r27	; 0x3f
    1f18:	23 c0       	rjmp	.+70     	; 0x1f60 <__printf+0x8e8>
//				case LENGTH_SHORT:		number.value.s = (signed long)( va_arg(ap, signed short) );		break;
				case LENGTH_SHORT:		number.value.s = (signed long)( va_arg(ap, signed int) );		break;
    1f1a:	29 8d       	ldd	r18, Y+25	; 0x19
    1f1c:	3a 8d       	ldd	r19, Y+26	; 0x1a
    1f1e:	c9 01       	movw	r24, r18
    1f20:	02 96       	adiw	r24, 0x02	; 2
    1f22:	9a 8f       	std	Y+26, r25	; 0x1a
    1f24:	89 8f       	std	Y+25, r24	; 0x19
    1f26:	f9 01       	movw	r30, r18
    1f28:	80 81       	ld	r24, Z
    1f2a:	91 81       	ldd	r25, Z+1	; 0x01
    1f2c:	aa 27       	eor	r26, r26
    1f2e:	97 fd       	sbrc	r25, 7
    1f30:	a0 95       	com	r26
    1f32:	ba 2f       	mov	r27, r26
    1f34:	8c af       	std	Y+60, r24	; 0x3c
    1f36:	9d af       	std	Y+61, r25	; 0x3d
    1f38:	ae af       	std	Y+62, r26	; 0x3e
    1f3a:	bf af       	std	Y+63, r27	; 0x3f
    1f3c:	11 c0       	rjmp	.+34     	; 0x1f60 <__printf+0x8e8>
//				case LENGTH_CHAR:		number.value.s = (signed long)( va_arg(ap, signed char) );		break;
				case LENGTH_CHAR:		number.value.s = (signed long)( va_arg(ap, signed int) );		break;
    1f3e:	29 8d       	ldd	r18, Y+25	; 0x19
    1f40:	3a 8d       	ldd	r19, Y+26	; 0x1a
    1f42:	c9 01       	movw	r24, r18
    1f44:	02 96       	adiw	r24, 0x02	; 2
    1f46:	9a 8f       	std	Y+26, r25	; 0x1a
    1f48:	89 8f       	std	Y+25, r24	; 0x19
    1f4a:	f9 01       	movw	r30, r18
    1f4c:	80 81       	ld	r24, Z
    1f4e:	91 81       	ldd	r25, Z+1	; 0x01
    1f50:	aa 27       	eor	r26, r26
    1f52:	97 fd       	sbrc	r25, 7
    1f54:	a0 95       	com	r26
    1f56:	ba 2f       	mov	r27, r26
    1f58:	8c af       	std	Y+60, r24	; 0x3c
    1f5a:	9d af       	std	Y+61, r25	; 0x3d
    1f5c:	ae af       	std	Y+62, r26	; 0x3e
    1f5e:	bf af       	std	Y+63, r27	; 0x3f
			}
			if( number.value.s < 0 ){
    1f60:	8c ad       	ldd	r24, Y+60	; 0x3c
    1f62:	9d ad       	ldd	r25, Y+61	; 0x3d
    1f64:	ae ad       	ldd	r26, Y+62	; 0x3e
    1f66:	bf ad       	ldd	r27, Y+63	; 0x3f
    1f68:	bb 23       	and	r27, r27
    1f6a:	94 f4       	brge	.+36     	; 0x1f90 <__printf+0x918>
				number.sign = SIGN_MINUS;
    1f6c:	81 e0       	ldi	r24, 0x01	; 1
    1f6e:	8b af       	std	Y+59, r24	; 0x3b
				number.value.u = (unsigned long)( (-1)*number.value.s );
    1f70:	8c ad       	ldd	r24, Y+60	; 0x3c
    1f72:	9d ad       	ldd	r25, Y+61	; 0x3d
    1f74:	ae ad       	ldd	r26, Y+62	; 0x3e
    1f76:	bf ad       	ldd	r27, Y+63	; 0x3f
    1f78:	b0 95       	com	r27
    1f7a:	a0 95       	com	r26
    1f7c:	90 95       	com	r25
    1f7e:	81 95       	neg	r24
    1f80:	9f 4f       	sbci	r25, 0xFF	; 255
    1f82:	af 4f       	sbci	r26, 0xFF	; 255
    1f84:	bf 4f       	sbci	r27, 0xFF	; 255
    1f86:	8c af       	std	Y+60, r24	; 0x3c
    1f88:	9d af       	std	Y+61, r25	; 0x3d
    1f8a:	ae af       	std	Y+62, r26	; 0x3e
    1f8c:	bf af       	std	Y+63, r27	; 0x3f
    1f8e:	90 c0       	rjmp	.+288    	; 0x20b0 <__printf+0xa38>
			}else{
				number.sign = SIGN_PLUS;
    1f90:	1b ae       	std	Y+59, r1	; 0x3b
    1f92:	8e c0       	rjmp	.+284    	; 0x20b0 <__printf+0xa38>
			}
			break;
		case TYPE_POINTER:
			number.value.u = (unsigned long)( va_arg(ap, void *) );
    1f94:	29 8d       	ldd	r18, Y+25	; 0x19
    1f96:	3a 8d       	ldd	r19, Y+26	; 0x1a
    1f98:	c9 01       	movw	r24, r18
    1f9a:	02 96       	adiw	r24, 0x02	; 2
    1f9c:	9a 8f       	std	Y+26, r25	; 0x1a
    1f9e:	89 8f       	std	Y+25, r24	; 0x19
    1fa0:	f9 01       	movw	r30, r18
    1fa2:	80 81       	ld	r24, Z
    1fa4:	91 81       	ldd	r25, Z+1	; 0x01
    1fa6:	aa 27       	eor	r26, r26
    1fa8:	97 fd       	sbrc	r25, 7
    1faa:	a0 95       	com	r26
    1fac:	ba 2f       	mov	r27, r26
    1fae:	8c af       	std	Y+60, r24	; 0x3c
    1fb0:	9d af       	std	Y+61, r25	; 0x3d
    1fb2:	ae af       	std	Y+62, r26	; 0x3e
    1fb4:	bf af       	std	Y+63, r27	; 0x3f
			number.sign = SIGN_PLUS;
    1fb6:	1b ae       	std	Y+59, r1	; 0x3b
			flag &= (FLAG_ALEFT | FLAG_ZERO | FLAG_ALT);	// ignore ' '(SPACE) and '+'(SIGN) flags
    1fb8:	8e 81       	ldd	r24, Y+6	; 0x06
    1fba:	9f 81       	ldd	r25, Y+7	; 0x07
    1fbc:	89 71       	andi	r24, 0x19	; 25
    1fbe:	90 70       	andi	r25, 0x00	; 0
    1fc0:	9f 83       	std	Y+7, r25	; 0x07
    1fc2:	8e 83       	std	Y+6, r24	; 0x06
    1fc4:	75 c0       	rjmp	.+234    	; 0x20b0 <__printf+0xa38>
			break;
		default:
			// unsigned number
			switch(length){
    1fc6:	8b 81       	ldd	r24, Y+3	; 0x03
    1fc8:	28 2f       	mov	r18, r24
    1fca:	30 e0       	ldi	r19, 0x00	; 0
    1fcc:	69 96       	adiw	r28, 0x19	; 25
    1fce:	3f af       	std	Y+63, r19	; 0x3f
    1fd0:	2e af       	std	Y+62, r18	; 0x3e
    1fd2:	69 97       	sbiw	r28, 0x19	; 25
    1fd4:	69 96       	adiw	r28, 0x19	; 25
    1fd6:	4e ad       	ldd	r20, Y+62	; 0x3e
    1fd8:	5f ad       	ldd	r21, Y+63	; 0x3f
    1fda:	69 97       	sbiw	r28, 0x19	; 25
    1fdc:	41 30       	cpi	r20, 0x01	; 1
    1fde:	51 05       	cpc	r21, r1
    1fe0:	79 f1       	breq	.+94     	; 0x2040 <__printf+0x9c8>
    1fe2:	69 96       	adiw	r28, 0x19	; 25
    1fe4:	8e ad       	ldd	r24, Y+62	; 0x3e
    1fe6:	9f ad       	ldd	r25, Y+63	; 0x3f
    1fe8:	69 97       	sbiw	r28, 0x19	; 25
    1fea:	82 30       	cpi	r24, 0x02	; 2
    1fec:	91 05       	cpc	r25, r1
    1fee:	44 f4       	brge	.+16     	; 0x2000 <__printf+0x988>
    1ff0:	69 96       	adiw	r28, 0x19	; 25
    1ff2:	2e ad       	ldd	r18, Y+62	; 0x3e
    1ff4:	3f ad       	ldd	r19, Y+63	; 0x3f
    1ff6:	69 97       	sbiw	r28, 0x19	; 25
    1ff8:	21 15       	cp	r18, r1
    1ffa:	31 05       	cpc	r19, r1
    1ffc:	81 f0       	breq	.+32     	; 0x201e <__printf+0x9a6>
    1ffe:	51 c0       	rjmp	.+162    	; 0x20a2 <__printf+0xa2a>
    2000:	69 96       	adiw	r28, 0x19	; 25
    2002:	4e ad       	ldd	r20, Y+62	; 0x3e
    2004:	5f ad       	ldd	r21, Y+63	; 0x3f
    2006:	69 97       	sbiw	r28, 0x19	; 25
    2008:	42 30       	cpi	r20, 0x02	; 2
    200a:	51 05       	cpc	r21, r1
    200c:	49 f1       	breq	.+82     	; 0x2060 <__printf+0x9e8>
    200e:	69 96       	adiw	r28, 0x19	; 25
    2010:	8e ad       	ldd	r24, Y+62	; 0x3e
    2012:	9f ad       	ldd	r25, Y+63	; 0x3f
    2014:	69 97       	sbiw	r28, 0x19	; 25
    2016:	83 30       	cpi	r24, 0x03	; 3
    2018:	91 05       	cpc	r25, r1
    201a:	99 f1       	breq	.+102    	; 0x2082 <__printf+0xa0a>
    201c:	42 c0       	rjmp	.+132    	; 0x20a2 <__printf+0xa2a>
				case LENGTH_DEFAULT:	number.value.u = (unsigned long)( va_arg(ap, unsigned int) );		break;
    201e:	29 8d       	ldd	r18, Y+25	; 0x19
    2020:	3a 8d       	ldd	r19, Y+26	; 0x1a
    2022:	c9 01       	movw	r24, r18
    2024:	02 96       	adiw	r24, 0x02	; 2
    2026:	9a 8f       	std	Y+26, r25	; 0x1a
    2028:	89 8f       	std	Y+25, r24	; 0x19
    202a:	f9 01       	movw	r30, r18
    202c:	80 81       	ld	r24, Z
    202e:	91 81       	ldd	r25, Z+1	; 0x01
    2030:	cc 01       	movw	r24, r24
    2032:	a0 e0       	ldi	r26, 0x00	; 0
    2034:	b0 e0       	ldi	r27, 0x00	; 0
    2036:	8c af       	std	Y+60, r24	; 0x3c
    2038:	9d af       	std	Y+61, r25	; 0x3d
    203a:	ae af       	std	Y+62, r26	; 0x3e
    203c:	bf af       	std	Y+63, r27	; 0x3f
    203e:	31 c0       	rjmp	.+98     	; 0x20a2 <__printf+0xa2a>
				case LENGTH_LONG:		number.value.u = (unsigned long)( va_arg(ap, unsigned long) );		break;
    2040:	29 8d       	ldd	r18, Y+25	; 0x19
    2042:	3a 8d       	ldd	r19, Y+26	; 0x1a
    2044:	c9 01       	movw	r24, r18
    2046:	04 96       	adiw	r24, 0x04	; 4
    2048:	9a 8f       	std	Y+26, r25	; 0x1a
    204a:	89 8f       	std	Y+25, r24	; 0x19
    204c:	f9 01       	movw	r30, r18
    204e:	80 81       	ld	r24, Z
    2050:	91 81       	ldd	r25, Z+1	; 0x01
    2052:	a2 81       	ldd	r26, Z+2	; 0x02
    2054:	b3 81       	ldd	r27, Z+3	; 0x03
    2056:	8c af       	std	Y+60, r24	; 0x3c
    2058:	9d af       	std	Y+61, r25	; 0x3d
    205a:	ae af       	std	Y+62, r26	; 0x3e
    205c:	bf af       	std	Y+63, r27	; 0x3f
    205e:	21 c0       	rjmp	.+66     	; 0x20a2 <__printf+0xa2a>
//				case LENGTH_SHORT:		number.value.u = (unsigned long)( va_arg(ap, unsigned short) );		break;
				case LENGTH_SHORT:		number.value.u = (unsigned long)( va_arg(ap, unsigned int) );		break;
    2060:	29 8d       	ldd	r18, Y+25	; 0x19
    2062:	3a 8d       	ldd	r19, Y+26	; 0x1a
    2064:	c9 01       	movw	r24, r18
    2066:	02 96       	adiw	r24, 0x02	; 2
    2068:	9a 8f       	std	Y+26, r25	; 0x1a
    206a:	89 8f       	std	Y+25, r24	; 0x19
    206c:	f9 01       	movw	r30, r18
    206e:	80 81       	ld	r24, Z
    2070:	91 81       	ldd	r25, Z+1	; 0x01
    2072:	cc 01       	movw	r24, r24
    2074:	a0 e0       	ldi	r26, 0x00	; 0
    2076:	b0 e0       	ldi	r27, 0x00	; 0
    2078:	8c af       	std	Y+60, r24	; 0x3c
    207a:	9d af       	std	Y+61, r25	; 0x3d
    207c:	ae af       	std	Y+62, r26	; 0x3e
    207e:	bf af       	std	Y+63, r27	; 0x3f
    2080:	10 c0       	rjmp	.+32     	; 0x20a2 <__printf+0xa2a>
//				case LENGTH_CHAR:		number.value.u = (unsigned long)( va_arg(ap, unsigned char) );		break;
				case LENGTH_CHAR:		number.value.u = (unsigned long)( va_arg(ap, unsigned int) );		break;
    2082:	29 8d       	ldd	r18, Y+25	; 0x19
    2084:	3a 8d       	ldd	r19, Y+26	; 0x1a
    2086:	c9 01       	movw	r24, r18
    2088:	02 96       	adiw	r24, 0x02	; 2
    208a:	9a 8f       	std	Y+26, r25	; 0x1a
    208c:	89 8f       	std	Y+25, r24	; 0x19
    208e:	f9 01       	movw	r30, r18
    2090:	80 81       	ld	r24, Z
    2092:	91 81       	ldd	r25, Z+1	; 0x01
    2094:	cc 01       	movw	r24, r24
    2096:	a0 e0       	ldi	r26, 0x00	; 0
    2098:	b0 e0       	ldi	r27, 0x00	; 0
    209a:	8c af       	std	Y+60, r24	; 0x3c
    209c:	9d af       	std	Y+61, r25	; 0x3d
    209e:	ae af       	std	Y+62, r26	; 0x3e
    20a0:	bf af       	std	Y+63, r27	; 0x3f
			}
			number.sign = SIGN_PLUS;
    20a2:	1b ae       	std	Y+59, r1	; 0x3b

			flag &= (FLAG_ALEFT | FLAG_ZERO | FLAG_ALT);	// ignore ' '(SPACE) and '+'(SIGN) flags
    20a4:	8e 81       	ldd	r24, Y+6	; 0x06
    20a6:	9f 81       	ldd	r25, Y+7	; 0x07
    20a8:	89 71       	andi	r24, 0x19	; 25
    20aa:	90 70       	andi	r25, 0x00	; 0
    20ac:	9f 83       	std	Y+7, r25	; 0x07
    20ae:	8e 83       	std	Y+6, r24	; 0x06
	}
	flag = (flag & FLAG_SIGN) ? (flag & ~FLAG_SPACE) : flag;	// ignore '+'(SIGN) when ' '(SPACE) flag is active
    20b0:	8e 81       	ldd	r24, Y+6	; 0x06
    20b2:	9f 81       	ldd	r25, Y+7	; 0x07
    20b4:	82 70       	andi	r24, 0x02	; 2
    20b6:	90 70       	andi	r25, 0x00	; 0
    20b8:	00 97       	sbiw	r24, 0x00	; 0
    20ba:	49 f0       	breq	.+18     	; 0x20ce <__printf+0xa56>
    20bc:	8e 81       	ldd	r24, Y+6	; 0x06
    20be:	9f 81       	ldd	r25, Y+7	; 0x07
    20c0:	9c 01       	movw	r18, r24
    20c2:	2b 7f       	andi	r18, 0xFB	; 251
    20c4:	67 96       	adiw	r28, 0x17	; 23
    20c6:	3f af       	std	Y+63, r19	; 0x3f
    20c8:	2e af       	std	Y+62, r18	; 0x3e
    20ca:	67 97       	sbiw	r28, 0x17	; 23
    20cc:	06 c0       	rjmp	.+12     	; 0x20da <__printf+0xa62>
    20ce:	4e 81       	ldd	r20, Y+6	; 0x06
    20d0:	5f 81       	ldd	r21, Y+7	; 0x07
    20d2:	67 96       	adiw	r28, 0x17	; 23
    20d4:	5f af       	std	Y+63, r21	; 0x3f
    20d6:	4e af       	std	Y+62, r20	; 0x3e
    20d8:	67 97       	sbiw	r28, 0x17	; 23
    20da:	67 96       	adiw	r28, 0x17	; 23
    20dc:	8e ad       	ldd	r24, Y+62	; 0x3e
    20de:	9f ad       	ldd	r25, Y+63	; 0x3f
    20e0:	67 97       	sbiw	r28, 0x17	; 23
    20e2:	9f 83       	std	Y+7, r25	; 0x07
    20e4:	8e 83       	std	Y+6, r24	; 0x06
	flag = (flag & FLAG_ALEFT) ? (flag & ~FLAG_ZERO) : flag;	// ignore '0'(ZERO) when '-'(ALEFT) flag is active
    20e6:	8e 81       	ldd	r24, Y+6	; 0x06
    20e8:	9f 81       	ldd	r25, Y+7	; 0x07
    20ea:	81 70       	andi	r24, 0x01	; 1
    20ec:	90 70       	andi	r25, 0x00	; 0
    20ee:	88 23       	and	r24, r24
    20f0:	49 f0       	breq	.+18     	; 0x2104 <__printf+0xa8c>
    20f2:	8e 81       	ldd	r24, Y+6	; 0x06
    20f4:	9f 81       	ldd	r25, Y+7	; 0x07
    20f6:	9c 01       	movw	r18, r24
    20f8:	27 7f       	andi	r18, 0xF7	; 247
    20fa:	65 96       	adiw	r28, 0x15	; 21
    20fc:	3f af       	std	Y+63, r19	; 0x3f
    20fe:	2e af       	std	Y+62, r18	; 0x3e
    2100:	65 97       	sbiw	r28, 0x15	; 21
    2102:	06 c0       	rjmp	.+12     	; 0x2110 <__printf+0xa98>
    2104:	4e 81       	ldd	r20, Y+6	; 0x06
    2106:	5f 81       	ldd	r21, Y+7	; 0x07
    2108:	65 96       	adiw	r28, 0x15	; 21
    210a:	5f af       	std	Y+63, r21	; 0x3f
    210c:	4e af       	std	Y+62, r20	; 0x3e
    210e:	65 97       	sbiw	r28, 0x15	; 21
    2110:	65 96       	adiw	r28, 0x15	; 21
    2112:	8e ad       	ldd	r24, Y+62	; 0x3e
    2114:	9f ad       	ldd	r25, Y+63	; 0x3f
    2116:	65 97       	sbiw	r28, 0x15	; 21
    2118:	9f 83       	std	Y+7, r25	; 0x07
    211a:	8e 83       	std	Y+6, r24	; 0x06

	//////////////// number -> string //////////////////
	i = NUM_BUF_SIZE;
    211c:	80 e2       	ldi	r24, 0x20	; 32
    211e:	90 e0       	ldi	r25, 0x00	; 0
    2120:	98 8f       	std	Y+24, r25	; 0x18
    2122:	8f 8b       	std	Y+23, r24	; 0x17
	char_tmp = (type == TYPE_HEX_UC) ? (55) : (87);
    2124:	8a 81       	ldd	r24, Y+2	; 0x02
    2126:	84 30       	cpi	r24, 0x04	; 4
    2128:	29 f4       	brne	.+10     	; 0x2134 <__printf+0xabc>
    212a:	97 e3       	ldi	r25, 0x37	; 55
    212c:	63 96       	adiw	r28, 0x13	; 19
    212e:	9f af       	std	Y+63, r25	; 0x3f
    2130:	63 97       	sbiw	r28, 0x13	; 19
    2132:	04 c0       	rjmp	.+8      	; 0x213c <__printf+0xac4>
    2134:	27 e5       	ldi	r18, 0x57	; 87
    2136:	63 96       	adiw	r28, 0x13	; 19
    2138:	2f af       	std	Y+63, r18	; 0x3f
    213a:	63 97       	sbiw	r28, 0x13	; 19
    213c:	63 96       	adiw	r28, 0x13	; 19
    213e:	3f ad       	ldd	r19, Y+63	; 0x3f
    2140:	63 97       	sbiw	r28, 0x13	; 19
    2142:	3e 87       	std	Y+14, r19	; 0x0e
	ul_tmp = number.value.u;
    2144:	8c ad       	ldd	r24, Y+60	; 0x3c
    2146:	9d ad       	ldd	r25, Y+61	; 0x3d
    2148:	ae ad       	ldd	r26, Y+62	; 0x3e
    214a:	bf ad       	ldd	r27, Y+63	; 0x3f
    214c:	8a 87       	std	Y+10, r24	; 0x0a
    214e:	9b 87       	std	Y+11, r25	; 0x0b
    2150:	ac 87       	std	Y+12, r26	; 0x0c
    2152:	bd 87       	std	Y+13, r27	; 0x0d
	do{
		i--;
    2154:	8f 89       	ldd	r24, Y+23	; 0x17
    2156:	98 8d       	ldd	r25, Y+24	; 0x18
    2158:	01 97       	sbiw	r24, 0x01	; 1
    215a:	98 8f       	std	Y+24, r25	; 0x18
    215c:	8f 8b       	std	Y+23, r24	; 0x17
		num_buf[i] = ul_tmp % radix;
    215e:	0f 89       	ldd	r16, Y+23	; 0x17
    2160:	18 8d       	ldd	r17, Y+24	; 0x18
    2162:	89 81       	ldd	r24, Y+1	; 0x01
    2164:	28 2f       	mov	r18, r24
    2166:	30 e0       	ldi	r19, 0x00	; 0
    2168:	40 e0       	ldi	r20, 0x00	; 0
    216a:	50 e0       	ldi	r21, 0x00	; 0
    216c:	8a 85       	ldd	r24, Y+10	; 0x0a
    216e:	9b 85       	ldd	r25, Y+11	; 0x0b
    2170:	ac 85       	ldd	r26, Y+12	; 0x0c
    2172:	bd 85       	ldd	r27, Y+13	; 0x0d
    2174:	bc 01       	movw	r22, r24
    2176:	cd 01       	movw	r24, r26
    2178:	0e 94 b8 2a 	call	0x5570	; 0x5570 <__udivmodsi4>
    217c:	dc 01       	movw	r26, r24
    217e:	cb 01       	movw	r24, r22
    2180:	28 2f       	mov	r18, r24
    2182:	ce 01       	movw	r24, r28
    2184:	4b 96       	adiw	r24, 0x1b	; 27
    2186:	fc 01       	movw	r30, r24
    2188:	e0 0f       	add	r30, r16
    218a:	f1 1f       	adc	r31, r17
    218c:	20 83       	st	Z, r18
		num_buf[i] += (num_buf[i]>9) ? char_tmp : '0';
    218e:	4f 89       	ldd	r20, Y+23	; 0x17
    2190:	58 8d       	ldd	r21, Y+24	; 0x18
    2192:	62 96       	adiw	r28, 0x12	; 18
    2194:	5f af       	std	Y+63, r21	; 0x3f
    2196:	4e af       	std	Y+62, r20	; 0x3e
    2198:	62 97       	sbiw	r28, 0x12	; 18
    219a:	2f 89       	ldd	r18, Y+23	; 0x17
    219c:	38 8d       	ldd	r19, Y+24	; 0x18
    219e:	ce 01       	movw	r24, r28
    21a0:	4b 96       	adiw	r24, 0x1b	; 27
    21a2:	fc 01       	movw	r30, r24
    21a4:	e2 0f       	add	r30, r18
    21a6:	f3 1f       	adc	r31, r19
    21a8:	50 81       	ld	r21, Z
    21aa:	60 96       	adiw	r28, 0x10	; 16
    21ac:	5f af       	std	Y+63, r21	; 0x3f
    21ae:	60 97       	sbiw	r28, 0x10	; 16
    21b0:	2f 89       	ldd	r18, Y+23	; 0x17
    21b2:	38 8d       	ldd	r19, Y+24	; 0x18
    21b4:	ce 01       	movw	r24, r28
    21b6:	4b 96       	adiw	r24, 0x1b	; 27
    21b8:	fc 01       	movw	r30, r24
    21ba:	e2 0f       	add	r30, r18
    21bc:	f3 1f       	adc	r31, r19
    21be:	80 81       	ld	r24, Z
    21c0:	8a 30       	cpi	r24, 0x0A	; 10
    21c2:	28 f0       	brcs	.+10     	; 0x21ce <__printf+0xb56>
    21c4:	8e 85       	ldd	r24, Y+14	; 0x0e
    21c6:	2f 96       	adiw	r28, 0x0f	; 15
    21c8:	8f af       	std	Y+63, r24	; 0x3f
    21ca:	2f 97       	sbiw	r28, 0x0f	; 15
    21cc:	04 c0       	rjmp	.+8      	; 0x21d6 <__printf+0xb5e>
    21ce:	90 e3       	ldi	r25, 0x30	; 48
    21d0:	2f 96       	adiw	r28, 0x0f	; 15
    21d2:	9f af       	std	Y+63, r25	; 0x3f
    21d4:	2f 97       	sbiw	r28, 0x0f	; 15
    21d6:	60 96       	adiw	r28, 0x10	; 16
    21d8:	2f ad       	ldd	r18, Y+63	; 0x3f
    21da:	60 97       	sbiw	r28, 0x10	; 16
    21dc:	2f 96       	adiw	r28, 0x0f	; 15
    21de:	3f ad       	ldd	r19, Y+63	; 0x3f
    21e0:	2f 97       	sbiw	r28, 0x0f	; 15
    21e2:	23 0f       	add	r18, r19
    21e4:	ce 01       	movw	r24, r28
    21e6:	4b 96       	adiw	r24, 0x1b	; 27
    21e8:	62 96       	adiw	r28, 0x12	; 18
    21ea:	ee ad       	ldd	r30, Y+62	; 0x3e
    21ec:	ff ad       	ldd	r31, Y+63	; 0x3f
    21ee:	62 97       	sbiw	r28, 0x12	; 18
    21f0:	e8 0f       	add	r30, r24
    21f2:	f9 1f       	adc	r31, r25
    21f4:	20 83       	st	Z, r18

		ul_tmp /= radix;
    21f6:	89 81       	ldd	r24, Y+1	; 0x01
    21f8:	28 2f       	mov	r18, r24
    21fa:	30 e0       	ldi	r19, 0x00	; 0
    21fc:	40 e0       	ldi	r20, 0x00	; 0
    21fe:	50 e0       	ldi	r21, 0x00	; 0
    2200:	8a 85       	ldd	r24, Y+10	; 0x0a
    2202:	9b 85       	ldd	r25, Y+11	; 0x0b
    2204:	ac 85       	ldd	r26, Y+12	; 0x0c
    2206:	bd 85       	ldd	r27, Y+13	; 0x0d
    2208:	bc 01       	movw	r22, r24
    220a:	cd 01       	movw	r24, r26
    220c:	0e 94 b8 2a 	call	0x5570	; 0x5570 <__udivmodsi4>
    2210:	da 01       	movw	r26, r20
    2212:	c9 01       	movw	r24, r18
    2214:	8a 87       	std	Y+10, r24	; 0x0a
    2216:	9b 87       	std	Y+11, r25	; 0x0b
    2218:	ac 87       	std	Y+12, r26	; 0x0c
    221a:	bd 87       	std	Y+13, r27	; 0x0d
	}while( ul_tmp!=0 && i!=0 );
    221c:	8a 85       	ldd	r24, Y+10	; 0x0a
    221e:	9b 85       	ldd	r25, Y+11	; 0x0b
    2220:	ac 85       	ldd	r26, Y+12	; 0x0c
    2222:	bd 85       	ldd	r27, Y+13	; 0x0d
    2224:	00 97       	sbiw	r24, 0x00	; 0
    2226:	a1 05       	cpc	r26, r1
    2228:	b1 05       	cpc	r27, r1
    222a:	29 f0       	breq	.+10     	; 0x2236 <__printf+0xbbe>
    222c:	8f 89       	ldd	r24, Y+23	; 0x17
    222e:	98 8d       	ldd	r25, Y+24	; 0x18
    2230:	00 97       	sbiw	r24, 0x00	; 0
    2232:	09 f0       	breq	.+2      	; 0x2236 <__printf+0xbbe>
    2234:	8f cf       	rjmp	.-226    	; 0x2154 <__printf+0xadc>
	//////////////// number -> string //////////////////
	
	///////////////// output number ///////////////////

	char_tmp = (number.sign == SIGN_PLUS) ? ((flag & FLAG_SIGN) ? '+' : ((flag & FLAG_SPACE) ? ' ' : '*' )) : '-';	// Dummy '*'
    2236:	8b ad       	ldd	r24, Y+59	; 0x3b
    2238:	88 23       	and	r24, r24
    223a:	39 f5       	brne	.+78     	; 0x228a <__printf+0xc12>
    223c:	8e 81       	ldd	r24, Y+6	; 0x06
    223e:	9f 81       	ldd	r25, Y+7	; 0x07
    2240:	82 70       	andi	r24, 0x02	; 2
    2242:	90 70       	andi	r25, 0x00	; 0
    2244:	00 97       	sbiw	r24, 0x00	; 0
    2246:	b1 f4       	brne	.+44     	; 0x2274 <__printf+0xbfc>
    2248:	8e 81       	ldd	r24, Y+6	; 0x06
    224a:	9f 81       	ldd	r25, Y+7	; 0x07
    224c:	84 70       	andi	r24, 0x04	; 4
    224e:	90 70       	andi	r25, 0x00	; 0
    2250:	00 97       	sbiw	r24, 0x00	; 0
    2252:	29 f0       	breq	.+10     	; 0x225e <__printf+0xbe6>
    2254:	40 e2       	ldi	r20, 0x20	; 32
    2256:	2c 96       	adiw	r28, 0x0c	; 12
    2258:	4f af       	std	Y+63, r20	; 0x3f
    225a:	2c 97       	sbiw	r28, 0x0c	; 12
    225c:	04 c0       	rjmp	.+8      	; 0x2266 <__printf+0xbee>
    225e:	5a e2       	ldi	r21, 0x2A	; 42
    2260:	2c 96       	adiw	r28, 0x0c	; 12
    2262:	5f af       	std	Y+63, r21	; 0x3f
    2264:	2c 97       	sbiw	r28, 0x0c	; 12
    2266:	2c 96       	adiw	r28, 0x0c	; 12
    2268:	8f ad       	ldd	r24, Y+63	; 0x3f
    226a:	2c 97       	sbiw	r28, 0x0c	; 12
    226c:	2d 96       	adiw	r28, 0x0d	; 13
    226e:	8f af       	std	Y+63, r24	; 0x3f
    2270:	2d 97       	sbiw	r28, 0x0d	; 13
    2272:	04 c0       	rjmp	.+8      	; 0x227c <__printf+0xc04>
    2274:	9b e2       	ldi	r25, 0x2B	; 43
    2276:	2d 96       	adiw	r28, 0x0d	; 13
    2278:	9f af       	std	Y+63, r25	; 0x3f
    227a:	2d 97       	sbiw	r28, 0x0d	; 13
    227c:	2d 96       	adiw	r28, 0x0d	; 13
    227e:	2f ad       	ldd	r18, Y+63	; 0x3f
    2280:	2d 97       	sbiw	r28, 0x0d	; 13
    2282:	2e 96       	adiw	r28, 0x0e	; 14
    2284:	2f af       	std	Y+63, r18	; 0x3f
    2286:	2e 97       	sbiw	r28, 0x0e	; 14
    2288:	04 c0       	rjmp	.+8      	; 0x2292 <__printf+0xc1a>
    228a:	3d e2       	ldi	r19, 0x2D	; 45
    228c:	2e 96       	adiw	r28, 0x0e	; 14
    228e:	3f af       	std	Y+63, r19	; 0x3f
    2290:	2e 97       	sbiw	r28, 0x0e	; 14
    2292:	2e 96       	adiw	r28, 0x0e	; 14
    2294:	4f ad       	ldd	r20, Y+63	; 0x3f
    2296:	2e 97       	sbiw	r28, 0x0e	; 14
    2298:	4e 87       	std	Y+14, r20	; 0x0e

	tmp = (NUM_BUF_SIZE-i) + ((char_tmp !='*') ? (1) : (0));
    229a:	80 e2       	ldi	r24, 0x20	; 32
    229c:	90 e0       	ldi	r25, 0x00	; 0
    229e:	2f 89       	ldd	r18, Y+23	; 0x17
    22a0:	38 8d       	ldd	r19, Y+24	; 0x18
    22a2:	ac 01       	movw	r20, r24
    22a4:	42 1b       	sub	r20, r18
    22a6:	53 0b       	sbc	r21, r19
    22a8:	2b 96       	adiw	r28, 0x0b	; 11
    22aa:	5f af       	std	Y+63, r21	; 0x3f
    22ac:	4e af       	std	Y+62, r20	; 0x3e
    22ae:	2b 97       	sbiw	r28, 0x0b	; 11
    22b0:	29 96       	adiw	r28, 0x09	; 9
    22b2:	1f ae       	std	Y+63, r1	; 0x3f
    22b4:	1e ae       	std	Y+62, r1	; 0x3e
    22b6:	29 97       	sbiw	r28, 0x09	; 9
    22b8:	8e 85       	ldd	r24, Y+14	; 0x0e
    22ba:	8a 32       	cpi	r24, 0x2A	; 42
    22bc:	31 f0       	breq	.+12     	; 0x22ca <__printf+0xc52>
    22be:	81 e0       	ldi	r24, 0x01	; 1
    22c0:	90 e0       	ldi	r25, 0x00	; 0
    22c2:	29 96       	adiw	r28, 0x09	; 9
    22c4:	9f af       	std	Y+63, r25	; 0x3f
    22c6:	8e af       	std	Y+62, r24	; 0x3e
    22c8:	29 97       	sbiw	r28, 0x09	; 9
    22ca:	2b 96       	adiw	r28, 0x0b	; 11
    22cc:	8e ad       	ldd	r24, Y+62	; 0x3e
    22ce:	9f ad       	ldd	r25, Y+63	; 0x3f
    22d0:	2b 97       	sbiw	r28, 0x0b	; 11
    22d2:	29 96       	adiw	r28, 0x09	; 9
    22d4:	2e ad       	ldd	r18, Y+62	; 0x3e
    22d6:	3f ad       	ldd	r19, Y+63	; 0x3f
    22d8:	29 97       	sbiw	r28, 0x09	; 9
    22da:	82 0f       	add	r24, r18
    22dc:	93 1f       	adc	r25, r19
    22de:	9c 8b       	std	Y+20, r25	; 0x14
    22e0:	8b 8b       	std	Y+19, r24	; 0x13
	
	char_p = "";
    22e2:	84 e1       	ldi	r24, 0x14	; 20
    22e4:	91 e0       	ldi	r25, 0x01	; 1
    22e6:	98 8b       	std	Y+16, r25	; 0x10
    22e8:	8f 87       	std	Y+15, r24	; 0x0f
	if( (flag & FLAG_ALT) && (number.value.u != 0) ){
    22ea:	8e 81       	ldd	r24, Y+6	; 0x06
    22ec:	9f 81       	ldd	r25, Y+7	; 0x07
    22ee:	80 71       	andi	r24, 0x10	; 16
    22f0:	90 70       	andi	r25, 0x00	; 0
    22f2:	00 97       	sbiw	r24, 0x00	; 0
    22f4:	09 f4       	brne	.+2      	; 0x22f8 <__printf+0xc80>
    22f6:	62 c0       	rjmp	.+196    	; 0x23bc <__printf+0xd44>
    22f8:	8c ad       	ldd	r24, Y+60	; 0x3c
    22fa:	9d ad       	ldd	r25, Y+61	; 0x3d
    22fc:	ae ad       	ldd	r26, Y+62	; 0x3e
    22fe:	bf ad       	ldd	r27, Y+63	; 0x3f
    2300:	00 97       	sbiw	r24, 0x00	; 0
    2302:	a1 05       	cpc	r26, r1
    2304:	b1 05       	cpc	r27, r1
    2306:	09 f4       	brne	.+2      	; 0x230a <__printf+0xc92>
    2308:	59 c0       	rjmp	.+178    	; 0x23bc <__printf+0xd44>
		switch(type){
    230a:	8a 81       	ldd	r24, Y+2	; 0x02
    230c:	48 2f       	mov	r20, r24
    230e:	50 e0       	ldi	r21, 0x00	; 0
    2310:	27 96       	adiw	r28, 0x07	; 7
    2312:	5f af       	std	Y+63, r21	; 0x3f
    2314:	4e af       	std	Y+62, r20	; 0x3e
    2316:	27 97       	sbiw	r28, 0x07	; 7
    2318:	27 96       	adiw	r28, 0x07	; 7
    231a:	8e ad       	ldd	r24, Y+62	; 0x3e
    231c:	9f ad       	ldd	r25, Y+63	; 0x3f
    231e:	27 97       	sbiw	r28, 0x07	; 7
    2320:	85 30       	cpi	r24, 0x05	; 5
    2322:	91 05       	cpc	r25, r1
    2324:	c1 f1       	breq	.+112    	; 0x2396 <__printf+0xd1e>
    2326:	27 96       	adiw	r28, 0x07	; 7
    2328:	2e ad       	ldd	r18, Y+62	; 0x3e
    232a:	3f ad       	ldd	r19, Y+63	; 0x3f
    232c:	27 97       	sbiw	r28, 0x07	; 7
    232e:	26 30       	cpi	r18, 0x06	; 6
    2330:	31 05       	cpc	r19, r1
    2332:	7c f4       	brge	.+30     	; 0x2352 <__printf+0xcda>
    2334:	27 96       	adiw	r28, 0x07	; 7
    2336:	4e ad       	ldd	r20, Y+62	; 0x3e
    2338:	5f ad       	ldd	r21, Y+63	; 0x3f
    233a:	27 97       	sbiw	r28, 0x07	; 7
    233c:	43 30       	cpi	r20, 0x03	; 3
    233e:	51 05       	cpc	r21, r1
    2340:	b1 f0       	breq	.+44     	; 0x236e <__printf+0xcf6>
    2342:	27 96       	adiw	r28, 0x07	; 7
    2344:	8e ad       	ldd	r24, Y+62	; 0x3e
    2346:	9f ad       	ldd	r25, Y+63	; 0x3f
    2348:	27 97       	sbiw	r28, 0x07	; 7
    234a:	84 30       	cpi	r24, 0x04	; 4
    234c:	91 05       	cpc	r25, r1
    234e:	c9 f0       	breq	.+50     	; 0x2382 <__printf+0xd0a>
    2350:	35 c0       	rjmp	.+106    	; 0x23bc <__printf+0xd44>
    2352:	27 96       	adiw	r28, 0x07	; 7
    2354:	2e ad       	ldd	r18, Y+62	; 0x3e
    2356:	3f ad       	ldd	r19, Y+63	; 0x3f
    2358:	27 97       	sbiw	r28, 0x07	; 7
    235a:	26 30       	cpi	r18, 0x06	; 6
    235c:	31 05       	cpc	r19, r1
    235e:	29 f1       	breq	.+74     	; 0x23aa <__printf+0xd32>
    2360:	27 96       	adiw	r28, 0x07	; 7
    2362:	4e ad       	ldd	r20, Y+62	; 0x3e
    2364:	5f ad       	ldd	r21, Y+63	; 0x3f
    2366:	27 97       	sbiw	r28, 0x07	; 7
    2368:	49 30       	cpi	r20, 0x09	; 9
    236a:	51 05       	cpc	r21, r1
    236c:	39 f5       	brne	.+78     	; 0x23bc <__printf+0xd44>
			case TYPE_POINTER:
			case TYPE_HEX_LC:
				char_p = "0x";
    236e:	85 e1       	ldi	r24, 0x15	; 21
    2370:	91 e0       	ldi	r25, 0x01	; 1
    2372:	98 8b       	std	Y+16, r25	; 0x10
    2374:	8f 87       	std	Y+15, r24	; 0x0f
				tmp+=2;
    2376:	8b 89       	ldd	r24, Y+19	; 0x13
    2378:	9c 89       	ldd	r25, Y+20	; 0x14
    237a:	02 96       	adiw	r24, 0x02	; 2
    237c:	9c 8b       	std	Y+20, r25	; 0x14
    237e:	8b 8b       	std	Y+19, r24	; 0x13
    2380:	1d c0       	rjmp	.+58     	; 0x23bc <__printf+0xd44>
				break;
			case TYPE_HEX_UC:
				char_p = "0X";
    2382:	88 e1       	ldi	r24, 0x18	; 24
    2384:	91 e0       	ldi	r25, 0x01	; 1
    2386:	98 8b       	std	Y+16, r25	; 0x10
    2388:	8f 87       	std	Y+15, r24	; 0x0f
				tmp+=2;
    238a:	8b 89       	ldd	r24, Y+19	; 0x13
    238c:	9c 89       	ldd	r25, Y+20	; 0x14
    238e:	02 96       	adiw	r24, 0x02	; 2
    2390:	9c 8b       	std	Y+20, r25	; 0x14
    2392:	8b 8b       	std	Y+19, r24	; 0x13
    2394:	13 c0       	rjmp	.+38     	; 0x23bc <__printf+0xd44>
				break;
			case TYPE_OCT:
				char_p = "0";
    2396:	8b e1       	ldi	r24, 0x1B	; 27
    2398:	91 e0       	ldi	r25, 0x01	; 1
    239a:	98 8b       	std	Y+16, r25	; 0x10
    239c:	8f 87       	std	Y+15, r24	; 0x0f
				tmp+=1;
    239e:	8b 89       	ldd	r24, Y+19	; 0x13
    23a0:	9c 89       	ldd	r25, Y+20	; 0x14
    23a2:	01 96       	adiw	r24, 0x01	; 1
    23a4:	9c 8b       	std	Y+20, r25	; 0x14
    23a6:	8b 8b       	std	Y+19, r24	; 0x13
    23a8:	09 c0       	rjmp	.+18     	; 0x23bc <__printf+0xd44>
				break;
			case TYPE_BIN:
				char_p = "0b";
    23aa:	8d e1       	ldi	r24, 0x1D	; 29
    23ac:	91 e0       	ldi	r25, 0x01	; 1
    23ae:	98 8b       	std	Y+16, r25	; 0x10
    23b0:	8f 87       	std	Y+15, r24	; 0x0f
				tmp+=2;
    23b2:	8b 89       	ldd	r24, Y+19	; 0x13
    23b4:	9c 89       	ldd	r25, Y+20	; 0x14
    23b6:	02 96       	adiw	r24, 0x02	; 2
    23b8:	9c 8b       	std	Y+20, r25	; 0x14
    23ba:	8b 8b       	std	Y+19, r24	; 0x13
		}
	}

	tmp = (tmp < width) ? (width - tmp) : 0;
    23bc:	2b 89       	ldd	r18, Y+19	; 0x13
    23be:	3c 89       	ldd	r19, Y+20	; 0x14
    23c0:	8c 81       	ldd	r24, Y+4	; 0x04
    23c2:	9d 81       	ldd	r25, Y+5	; 0x05
    23c4:	28 17       	cp	r18, r24
    23c6:	39 07       	cpc	r19, r25
    23c8:	64 f4       	brge	.+24     	; 0x23e2 <__printf+0xd6a>
    23ca:	2c 81       	ldd	r18, Y+4	; 0x04
    23cc:	3d 81       	ldd	r19, Y+5	; 0x05
    23ce:	8b 89       	ldd	r24, Y+19	; 0x13
    23d0:	9c 89       	ldd	r25, Y+20	; 0x14
    23d2:	a9 01       	movw	r20, r18
    23d4:	48 1b       	sub	r20, r24
    23d6:	59 0b       	sbc	r21, r25
    23d8:	25 96       	adiw	r28, 0x05	; 5
    23da:	5f af       	std	Y+63, r21	; 0x3f
    23dc:	4e af       	std	Y+62, r20	; 0x3e
    23de:	25 97       	sbiw	r28, 0x05	; 5
    23e0:	04 c0       	rjmp	.+8      	; 0x23ea <__printf+0xd72>
    23e2:	25 96       	adiw	r28, 0x05	; 5
    23e4:	1f ae       	std	Y+63, r1	; 0x3f
    23e6:	1e ae       	std	Y+62, r1	; 0x3e
    23e8:	25 97       	sbiw	r28, 0x05	; 5
    23ea:	25 96       	adiw	r28, 0x05	; 5
    23ec:	8e ad       	ldd	r24, Y+62	; 0x3e
    23ee:	9f ad       	ldd	r25, Y+63	; 0x3f
    23f0:	25 97       	sbiw	r28, 0x05	; 5
    23f2:	9c 8b       	std	Y+20, r25	; 0x14
    23f4:	8b 8b       	std	Y+19, r24	; 0x13
	if( flag & FLAG_ALEFT ){
    23f6:	8e 81       	ldd	r24, Y+6	; 0x06
    23f8:	9f 81       	ldd	r25, Y+7	; 0x07
    23fa:	81 70       	andi	r24, 0x01	; 1
    23fc:	90 70       	andi	r25, 0x00	; 0
    23fe:	88 23       	and	r24, r24
    2400:	09 f4       	brne	.+2      	; 0x2404 <__printf+0xd8c>
    2402:	68 c0       	rjmp	.+208    	; 0x24d4 <__printf+0xe5c>
		if(char_tmp != '*'){ OUTPUT(char_tmp);	output_cnt++; }
    2404:	8e 85       	ldd	r24, Y+14	; 0x0e
    2406:	8a 32       	cpi	r24, 0x2A	; 42
    2408:	01 f1       	breq	.+64     	; 0x244a <__printf+0xdd2>
    240a:	e0 91 4b 02 	lds	r30, 0x024B
    240e:	f0 91 4c 02 	lds	r31, 0x024C
    2412:	8e 85       	ldd	r24, Y+14	; 0x0e
    2414:	09 95       	icall
    2416:	88 85       	ldd	r24, Y+8	; 0x08
    2418:	99 85       	ldd	r25, Y+9	; 0x09
    241a:	01 96       	adiw	r24, 0x01	; 1
    241c:	99 87       	std	Y+9, r25	; 0x09
    241e:	88 87       	std	Y+8, r24	; 0x08
    2420:	14 c0       	rjmp	.+40     	; 0x244a <__printf+0xdd2>
		while(*char_p){ OUTPUT(*(char_p++));	output_cnt++; }	// output alternate form
    2422:	20 91 4b 02 	lds	r18, 0x024B
    2426:	30 91 4c 02 	lds	r19, 0x024C
    242a:	ef 85       	ldd	r30, Y+15	; 0x0f
    242c:	f8 89       	ldd	r31, Y+16	; 0x10
    242e:	40 81       	ld	r20, Z
    2430:	8f 85       	ldd	r24, Y+15	; 0x0f
    2432:	98 89       	ldd	r25, Y+16	; 0x10
    2434:	01 96       	adiw	r24, 0x01	; 1
    2436:	98 8b       	std	Y+16, r25	; 0x10
    2438:	8f 87       	std	Y+15, r24	; 0x0f
    243a:	84 2f       	mov	r24, r20
    243c:	f9 01       	movw	r30, r18
    243e:	09 95       	icall
    2440:	88 85       	ldd	r24, Y+8	; 0x08
    2442:	99 85       	ldd	r25, Y+9	; 0x09
    2444:	01 96       	adiw	r24, 0x01	; 1
    2446:	99 87       	std	Y+9, r25	; 0x09
    2448:	88 87       	std	Y+8, r24	; 0x08
    244a:	ef 85       	ldd	r30, Y+15	; 0x0f
    244c:	f8 89       	ldd	r31, Y+16	; 0x10
    244e:	80 81       	ld	r24, Z
    2450:	88 23       	and	r24, r24
    2452:	39 f7       	brne	.-50     	; 0x2422 <__printf+0xdaa>
    2454:	18 c0       	rjmp	.+48     	; 0x2486 <__printf+0xe0e>
		for(; i<NUM_BUF_SIZE; i++){ OUTPUT(num_buf[i]);	output_cnt++; }
    2456:	40 91 4b 02 	lds	r20, 0x024B
    245a:	50 91 4c 02 	lds	r21, 0x024C
    245e:	2f 89       	ldd	r18, Y+23	; 0x17
    2460:	38 8d       	ldd	r19, Y+24	; 0x18
    2462:	ce 01       	movw	r24, r28
    2464:	4b 96       	adiw	r24, 0x1b	; 27
    2466:	fc 01       	movw	r30, r24
    2468:	e2 0f       	add	r30, r18
    246a:	f3 1f       	adc	r31, r19
    246c:	80 81       	ld	r24, Z
    246e:	fa 01       	movw	r30, r20
    2470:	09 95       	icall
    2472:	88 85       	ldd	r24, Y+8	; 0x08
    2474:	99 85       	ldd	r25, Y+9	; 0x09
    2476:	01 96       	adiw	r24, 0x01	; 1
    2478:	99 87       	std	Y+9, r25	; 0x09
    247a:	88 87       	std	Y+8, r24	; 0x08
    247c:	8f 89       	ldd	r24, Y+23	; 0x17
    247e:	98 8d       	ldd	r25, Y+24	; 0x18
    2480:	01 96       	adiw	r24, 0x01	; 1
    2482:	98 8f       	std	Y+24, r25	; 0x18
    2484:	8f 8b       	std	Y+23, r24	; 0x17
    2486:	8f 89       	ldd	r24, Y+23	; 0x17
    2488:	98 8d       	ldd	r25, Y+24	; 0x18
    248a:	80 32       	cpi	r24, 0x20	; 32
    248c:	91 05       	cpc	r25, r1
    248e:	1c f3       	brlt	.-58     	; 0x2456 <__printf+0xdde>
    2490:	0b c0       	rjmp	.+22     	; 0x24a8 <__printf+0xe30>
		while(tmp--){ OUTPUT(' ');	output_cnt++; }
    2492:	e0 91 4b 02 	lds	r30, 0x024B
    2496:	f0 91 4c 02 	lds	r31, 0x024C
    249a:	80 e2       	ldi	r24, 0x20	; 32
    249c:	09 95       	icall
    249e:	88 85       	ldd	r24, Y+8	; 0x08
    24a0:	99 85       	ldd	r25, Y+9	; 0x09
    24a2:	01 96       	adiw	r24, 0x01	; 1
    24a4:	99 87       	std	Y+9, r25	; 0x09
    24a6:	88 87       	std	Y+8, r24	; 0x08
    24a8:	23 96       	adiw	r28, 0x03	; 3
    24aa:	1f ae       	std	Y+63, r1	; 0x3f
    24ac:	23 97       	sbiw	r28, 0x03	; 3
    24ae:	8b 89       	ldd	r24, Y+19	; 0x13
    24b0:	9c 89       	ldd	r25, Y+20	; 0x14
    24b2:	00 97       	sbiw	r24, 0x00	; 0
    24b4:	21 f0       	breq	.+8      	; 0x24be <__printf+0xe46>
    24b6:	91 e0       	ldi	r25, 0x01	; 1
    24b8:	23 96       	adiw	r28, 0x03	; 3
    24ba:	9f af       	std	Y+63, r25	; 0x3f
    24bc:	23 97       	sbiw	r28, 0x03	; 3
    24be:	8b 89       	ldd	r24, Y+19	; 0x13
    24c0:	9c 89       	ldd	r25, Y+20	; 0x14
    24c2:	01 97       	sbiw	r24, 0x01	; 1
    24c4:	9c 8b       	std	Y+20, r25	; 0x14
    24c6:	8b 8b       	std	Y+19, r24	; 0x13
    24c8:	23 96       	adiw	r28, 0x03	; 3
    24ca:	2f ad       	ldd	r18, Y+63	; 0x3f
    24cc:	23 97       	sbiw	r28, 0x03	; 3
    24ce:	22 23       	and	r18, r18
    24d0:	01 f7       	brne	.-64     	; 0x2492 <__printf+0xe1a>
    24d2:	a6 cc       	rjmp	.-1716   	; 0x1e20 <__printf+0x7a8>
	}else{
		if( flag & FLAG_ZERO ){
    24d4:	8e 81       	ldd	r24, Y+6	; 0x06
    24d6:	9f 81       	ldd	r25, Y+7	; 0x07
    24d8:	88 70       	andi	r24, 0x08	; 8
    24da:	90 70       	andi	r25, 0x00	; 0
    24dc:	00 97       	sbiw	r24, 0x00	; 0
    24de:	09 f4       	brne	.+2      	; 0x24e2 <__printf+0xe6a>
    24e0:	55 c0       	rjmp	.+170    	; 0x258c <__printf+0xf14>
			if(char_tmp != '*'){ OUTPUT(char_tmp);	output_cnt++; }
    24e2:	8e 85       	ldd	r24, Y+14	; 0x0e
    24e4:	8a 32       	cpi	r24, 0x2A	; 42
    24e6:	01 f1       	breq	.+64     	; 0x2528 <__printf+0xeb0>
    24e8:	e0 91 4b 02 	lds	r30, 0x024B
    24ec:	f0 91 4c 02 	lds	r31, 0x024C
    24f0:	8e 85       	ldd	r24, Y+14	; 0x0e
    24f2:	09 95       	icall
    24f4:	88 85       	ldd	r24, Y+8	; 0x08
    24f6:	99 85       	ldd	r25, Y+9	; 0x09
    24f8:	01 96       	adiw	r24, 0x01	; 1
    24fa:	99 87       	std	Y+9, r25	; 0x09
    24fc:	88 87       	std	Y+8, r24	; 0x08
    24fe:	14 c0       	rjmp	.+40     	; 0x2528 <__printf+0xeb0>
			while(*char_p){ OUTPUT(*(char_p++));	output_cnt++; }	// output alternate form
    2500:	20 91 4b 02 	lds	r18, 0x024B
    2504:	30 91 4c 02 	lds	r19, 0x024C
    2508:	ef 85       	ldd	r30, Y+15	; 0x0f
    250a:	f8 89       	ldd	r31, Y+16	; 0x10
    250c:	40 81       	ld	r20, Z
    250e:	8f 85       	ldd	r24, Y+15	; 0x0f
    2510:	98 89       	ldd	r25, Y+16	; 0x10
    2512:	01 96       	adiw	r24, 0x01	; 1
    2514:	98 8b       	std	Y+16, r25	; 0x10
    2516:	8f 87       	std	Y+15, r24	; 0x0f
    2518:	84 2f       	mov	r24, r20
    251a:	f9 01       	movw	r30, r18
    251c:	09 95       	icall
    251e:	88 85       	ldd	r24, Y+8	; 0x08
    2520:	99 85       	ldd	r25, Y+9	; 0x09
    2522:	01 96       	adiw	r24, 0x01	; 1
    2524:	99 87       	std	Y+9, r25	; 0x09
    2526:	88 87       	std	Y+8, r24	; 0x08
    2528:	ef 85       	ldd	r30, Y+15	; 0x0f
    252a:	f8 89       	ldd	r31, Y+16	; 0x10
    252c:	80 81       	ld	r24, Z
    252e:	88 23       	and	r24, r24
    2530:	39 f7       	brne	.-50     	; 0x2500 <__printf+0xe88>
    2532:	0b c0       	rjmp	.+22     	; 0x254a <__printf+0xed2>
			while(tmp--){ OUTPUT('0');				output_cnt++; }
    2534:	e0 91 4b 02 	lds	r30, 0x024B
    2538:	f0 91 4c 02 	lds	r31, 0x024C
    253c:	80 e3       	ldi	r24, 0x30	; 48
    253e:	09 95       	icall
    2540:	88 85       	ldd	r24, Y+8	; 0x08
    2542:	99 85       	ldd	r25, Y+9	; 0x09
    2544:	01 96       	adiw	r24, 0x01	; 1
    2546:	99 87       	std	Y+9, r25	; 0x09
    2548:	88 87       	std	Y+8, r24	; 0x08
    254a:	22 96       	adiw	r28, 0x02	; 2
    254c:	1f ae       	std	Y+63, r1	; 0x3f
    254e:	22 97       	sbiw	r28, 0x02	; 2
    2550:	8b 89       	ldd	r24, Y+19	; 0x13
    2552:	9c 89       	ldd	r25, Y+20	; 0x14
    2554:	00 97       	sbiw	r24, 0x00	; 0
    2556:	21 f0       	breq	.+8      	; 0x2560 <__printf+0xee8>
    2558:	31 e0       	ldi	r19, 0x01	; 1
    255a:	22 96       	adiw	r28, 0x02	; 2
    255c:	3f af       	std	Y+63, r19	; 0x3f
    255e:	22 97       	sbiw	r28, 0x02	; 2
    2560:	8b 89       	ldd	r24, Y+19	; 0x13
    2562:	9c 89       	ldd	r25, Y+20	; 0x14
    2564:	01 97       	sbiw	r24, 0x01	; 1
    2566:	9c 8b       	std	Y+20, r25	; 0x14
    2568:	8b 8b       	std	Y+19, r24	; 0x13
    256a:	22 96       	adiw	r28, 0x02	; 2
    256c:	4f ad       	ldd	r20, Y+63	; 0x3f
    256e:	22 97       	sbiw	r28, 0x02	; 2
    2570:	44 23       	and	r20, r20
    2572:	01 f7       	brne	.-64     	; 0x2534 <__printf+0xebc>
    2574:	61 c0       	rjmp	.+194    	; 0x2638 <__printf+0xfc0>
		}else{
			while(tmp--){ OUTPUT(' ');				output_cnt++; }
    2576:	e0 91 4b 02 	lds	r30, 0x024B
    257a:	f0 91 4c 02 	lds	r31, 0x024C
    257e:	80 e2       	ldi	r24, 0x20	; 32
    2580:	09 95       	icall
    2582:	88 85       	ldd	r24, Y+8	; 0x08
    2584:	99 85       	ldd	r25, Y+9	; 0x09
    2586:	01 96       	adiw	r24, 0x01	; 1
    2588:	99 87       	std	Y+9, r25	; 0x09
    258a:	88 87       	std	Y+8, r24	; 0x08
    258c:	21 96       	adiw	r28, 0x01	; 1
    258e:	1f ae       	std	Y+63, r1	; 0x3f
    2590:	21 97       	sbiw	r28, 0x01	; 1
    2592:	8b 89       	ldd	r24, Y+19	; 0x13
    2594:	9c 89       	ldd	r25, Y+20	; 0x14
    2596:	00 97       	sbiw	r24, 0x00	; 0
    2598:	21 f0       	breq	.+8      	; 0x25a2 <__printf+0xf2a>
    259a:	51 e0       	ldi	r21, 0x01	; 1
    259c:	21 96       	adiw	r28, 0x01	; 1
    259e:	5f af       	std	Y+63, r21	; 0x3f
    25a0:	21 97       	sbiw	r28, 0x01	; 1
    25a2:	8b 89       	ldd	r24, Y+19	; 0x13
    25a4:	9c 89       	ldd	r25, Y+20	; 0x14
    25a6:	01 97       	sbiw	r24, 0x01	; 1
    25a8:	9c 8b       	std	Y+20, r25	; 0x14
    25aa:	8b 8b       	std	Y+19, r24	; 0x13
    25ac:	21 96       	adiw	r28, 0x01	; 1
    25ae:	8f ad       	ldd	r24, Y+63	; 0x3f
    25b0:	21 97       	sbiw	r28, 0x01	; 1
    25b2:	88 23       	and	r24, r24
    25b4:	01 f7       	brne	.-64     	; 0x2576 <__printf+0xefe>
    25b6:	14 c0       	rjmp	.+40     	; 0x25e0 <__printf+0xf68>
			while(*char_p){ OUTPUT(*(char_p++));		output_cnt++; }	// output alternate form
    25b8:	20 91 4b 02 	lds	r18, 0x024B
    25bc:	30 91 4c 02 	lds	r19, 0x024C
    25c0:	ef 85       	ldd	r30, Y+15	; 0x0f
    25c2:	f8 89       	ldd	r31, Y+16	; 0x10
    25c4:	40 81       	ld	r20, Z
    25c6:	8f 85       	ldd	r24, Y+15	; 0x0f
    25c8:	98 89       	ldd	r25, Y+16	; 0x10
    25ca:	01 96       	adiw	r24, 0x01	; 1
    25cc:	98 8b       	std	Y+16, r25	; 0x10
    25ce:	8f 87       	std	Y+15, r24	; 0x0f
    25d0:	84 2f       	mov	r24, r20
    25d2:	f9 01       	movw	r30, r18
    25d4:	09 95       	icall
    25d6:	88 85       	ldd	r24, Y+8	; 0x08
    25d8:	99 85       	ldd	r25, Y+9	; 0x09
    25da:	01 96       	adiw	r24, 0x01	; 1
    25dc:	99 87       	std	Y+9, r25	; 0x09
    25de:	88 87       	std	Y+8, r24	; 0x08
    25e0:	ef 85       	ldd	r30, Y+15	; 0x0f
    25e2:	f8 89       	ldd	r31, Y+16	; 0x10
    25e4:	80 81       	ld	r24, Z
    25e6:	88 23       	and	r24, r24
    25e8:	39 f7       	brne	.-50     	; 0x25b8 <__printf+0xf40>
			if(char_tmp != '*'){ OUTPUT(char_tmp);	output_cnt++; }
    25ea:	8e 85       	ldd	r24, Y+14	; 0x0e
    25ec:	8a 32       	cpi	r24, 0x2A	; 42
    25ee:	21 f1       	breq	.+72     	; 0x2638 <__printf+0xfc0>
    25f0:	e0 91 4b 02 	lds	r30, 0x024B
    25f4:	f0 91 4c 02 	lds	r31, 0x024C
    25f8:	8e 85       	ldd	r24, Y+14	; 0x0e
    25fa:	09 95       	icall
    25fc:	88 85       	ldd	r24, Y+8	; 0x08
    25fe:	99 85       	ldd	r25, Y+9	; 0x09
    2600:	01 96       	adiw	r24, 0x01	; 1
    2602:	99 87       	std	Y+9, r25	; 0x09
    2604:	88 87       	std	Y+8, r24	; 0x08
    2606:	18 c0       	rjmp	.+48     	; 0x2638 <__printf+0xfc0>
		}
		for(; i<NUM_BUF_SIZE; i++){ OUTPUT(num_buf[i]);	output_cnt++; }
    2608:	40 91 4b 02 	lds	r20, 0x024B
    260c:	50 91 4c 02 	lds	r21, 0x024C
    2610:	2f 89       	ldd	r18, Y+23	; 0x17
    2612:	38 8d       	ldd	r19, Y+24	; 0x18
    2614:	ce 01       	movw	r24, r28
    2616:	4b 96       	adiw	r24, 0x1b	; 27
    2618:	fc 01       	movw	r30, r24
    261a:	e2 0f       	add	r30, r18
    261c:	f3 1f       	adc	r31, r19
    261e:	80 81       	ld	r24, Z
    2620:	fa 01       	movw	r30, r20
    2622:	09 95       	icall
    2624:	88 85       	ldd	r24, Y+8	; 0x08
    2626:	99 85       	ldd	r25, Y+9	; 0x09
    2628:	01 96       	adiw	r24, 0x01	; 1
    262a:	99 87       	std	Y+9, r25	; 0x09
    262c:	88 87       	std	Y+8, r24	; 0x08
    262e:	8f 89       	ldd	r24, Y+23	; 0x17
    2630:	98 8d       	ldd	r25, Y+24	; 0x18
    2632:	01 96       	adiw	r24, 0x01	; 1
    2634:	98 8f       	std	Y+24, r25	; 0x18
    2636:	8f 8b       	std	Y+23, r24	; 0x17
    2638:	8f 89       	ldd	r24, Y+23	; 0x17
    263a:	98 8d       	ldd	r25, Y+24	; 0x18
    263c:	80 32       	cpi	r24, 0x20	; 32
    263e:	91 05       	cpc	r25, r1
    2640:	1c f3       	brlt	.-58     	; 0x2608 <__printf+0xf90>
    2642:	ee cb       	rjmp	.-2084   	; 0x1e20 <__printf+0x7a8>
	}
	///////////////// output number ///////////////////
	
	goto finish_output_number_data;
    2644:	e6 96       	adiw	r28, 0x36	; 54
    2646:	8e ad       	ldd	r24, Y+62	; 0x3e
    2648:	9f ad       	ldd	r25, Y+63	; 0x3f
    264a:	e6 97       	sbiw	r28, 0x36	; 54
}
    264c:	cb 58       	subi	r28, 0x8B	; 139
    264e:	df 4f       	sbci	r29, 0xFF	; 255
    2650:	0f b6       	in	r0, 0x3f	; 63
    2652:	f8 94       	cli
    2654:	de bf       	out	0x3e, r29	; 62
    2656:	0f be       	out	0x3f, r0	; 63
    2658:	cd bf       	out	0x3d, r28	; 61
    265a:	cf 91       	pop	r28
    265c:	df 91       	pop	r29
    265e:	1f 91       	pop	r17
    2660:	0f 91       	pop	r16
    2662:	08 95       	ret

00002664 <uart_init>:
/// </summary>
/// <param name="uart_no">UARTの選択 0 または 1</param>
/// <param name="option">uart.h にあるUART設定用マクロを使う</param>
/// <param name="speed">通信速度.ボーレート[bps]を入れる</param>
int uart_init(int uart_no, unsigned char option, unsigned long speed)
{
    2664:	df 93       	push	r29
    2666:	cf 93       	push	r28
    2668:	cd b7       	in	r28, 0x3d	; 61
    266a:	de b7       	in	r29, 0x3e	; 62
    266c:	6d 97       	sbiw	r28, 0x1d	; 29
    266e:	0f b6       	in	r0, 0x3f	; 63
    2670:	f8 94       	cli
    2672:	de bf       	out	0x3e, r29	; 62
    2674:	0f be       	out	0x3f, r0	; 63
    2676:	cd bf       	out	0x3d, r28	; 61
    2678:	9a 8b       	std	Y+18, r25	; 0x12
    267a:	89 8b       	std	Y+17, r24	; 0x11
    267c:	6b 8b       	std	Y+19, r22	; 0x13
    267e:	2c 8b       	std	Y+20, r18	; 0x14
    2680:	3d 8b       	std	Y+21, r19	; 0x15
    2682:	4e 8b       	std	Y+22, r20	; 0x16
    2684:	5f 8b       	std	Y+23, r21	; 0x17
	volatile uint32_t i;
	uint32_t b;
	uint32_t x, y;
	
	x = PERIPHERAL_CLOCK_FREQ * 1000000;
    2686:	80 e0       	ldi	r24, 0x00	; 0
    2688:	92 e1       	ldi	r25, 0x12	; 18
    268a:	aa e7       	ldi	r26, 0x7A	; 122
    268c:	b0 e0       	ldi	r27, 0x00	; 0
    268e:	8d 83       	std	Y+5, r24	; 0x05
    2690:	9e 83       	std	Y+6, r25	; 0x06
    2692:	af 83       	std	Y+7, r26	; 0x07
    2694:	b8 87       	std	Y+8, r27	; 0x08
	y = 8 * speed;	// 倍速動作設定のため、ボーレートに 8 をかける
    2696:	8c 89       	ldd	r24, Y+20	; 0x14
    2698:	9d 89       	ldd	r25, Y+21	; 0x15
    269a:	ae 89       	ldd	r26, Y+22	; 0x16
    269c:	bf 89       	ldd	r27, Y+23	; 0x17
    269e:	88 0f       	add	r24, r24
    26a0:	99 1f       	adc	r25, r25
    26a2:	aa 1f       	adc	r26, r26
    26a4:	bb 1f       	adc	r27, r27
    26a6:	88 0f       	add	r24, r24
    26a8:	99 1f       	adc	r25, r25
    26aa:	aa 1f       	adc	r26, r26
    26ac:	bb 1f       	adc	r27, r27
    26ae:	88 0f       	add	r24, r24
    26b0:	99 1f       	adc	r25, r25
    26b2:	aa 1f       	adc	r26, r26
    26b4:	bb 1f       	adc	r27, r27
    26b6:	89 83       	std	Y+1, r24	; 0x01
    26b8:	9a 83       	std	Y+2, r25	; 0x02
    26ba:	ab 83       	std	Y+3, r26	; 0x03
    26bc:	bc 83       	std	Y+4, r27	; 0x04

	b = x / y -1;
    26be:	8d 81       	ldd	r24, Y+5	; 0x05
    26c0:	9e 81       	ldd	r25, Y+6	; 0x06
    26c2:	af 81       	ldd	r26, Y+7	; 0x07
    26c4:	b8 85       	ldd	r27, Y+8	; 0x08
    26c6:	29 81       	ldd	r18, Y+1	; 0x01
    26c8:	3a 81       	ldd	r19, Y+2	; 0x02
    26ca:	4b 81       	ldd	r20, Y+3	; 0x03
    26cc:	5c 81       	ldd	r21, Y+4	; 0x04
    26ce:	bc 01       	movw	r22, r24
    26d0:	cd 01       	movw	r24, r26
    26d2:	0e 94 b8 2a 	call	0x5570	; 0x5570 <__udivmodsi4>
    26d6:	da 01       	movw	r26, r20
    26d8:	c9 01       	movw	r24, r18
    26da:	01 97       	sbiw	r24, 0x01	; 1
    26dc:	a1 09       	sbc	r26, r1
    26de:	b1 09       	sbc	r27, r1
    26e0:	89 87       	std	Y+9, r24	; 0x09
    26e2:	9a 87       	std	Y+10, r25	; 0x0a
    26e4:	ab 87       	std	Y+11, r26	; 0x0b
    26e6:	bc 87       	std	Y+12, r27	; 0x0c

		
	switch( uart_no ){
    26e8:	89 89       	ldd	r24, Y+17	; 0x11
    26ea:	9a 89       	ldd	r25, Y+18	; 0x12
    26ec:	9d 8f       	std	Y+29, r25	; 0x1d
    26ee:	8c 8f       	std	Y+28, r24	; 0x1c
    26f0:	8c 8d       	ldd	r24, Y+28	; 0x1c
    26f2:	9d 8d       	ldd	r25, Y+29	; 0x1d
    26f4:	00 97       	sbiw	r24, 0x00	; 0
    26f6:	39 f0       	breq	.+14     	; 0x2706 <uart_init+0xa2>
    26f8:	8c 8d       	ldd	r24, Y+28	; 0x1c
    26fa:	9d 8d       	ldd	r25, Y+29	; 0x1d
    26fc:	81 30       	cpi	r24, 0x01	; 1
    26fe:	91 05       	cpc	r25, r1
    2700:	09 f4       	brne	.+2      	; 0x2704 <uart_init+0xa0>
    2702:	4c c0       	rjmp	.+152    	; 0x279c <uart_init+0x138>
    2704:	90 c0       	rjmp	.+288    	; 0x2826 <uart_init+0x1c2>
		case 0:
			sbi(UCSR0A,U2X0);			// 倍速許可
    2706:	ab e2       	ldi	r26, 0x2B	; 43
    2708:	b0 e0       	ldi	r27, 0x00	; 0
    270a:	eb e2       	ldi	r30, 0x2B	; 43
    270c:	f0 e0       	ldi	r31, 0x00	; 0
    270e:	80 81       	ld	r24, Z
    2710:	82 60       	ori	r24, 0x02	; 2
    2712:	8c 93       	st	X, r24

			UCSR0B = 0x00;
    2714:	ea e2       	ldi	r30, 0x2A	; 42
    2716:	f0 e0       	ldi	r31, 0x00	; 0
    2718:	10 82       	st	Z, r1
			UCSR0C |= 0x06;
    271a:	a5 e9       	ldi	r26, 0x95	; 149
    271c:	b0 e0       	ldi	r27, 0x00	; 0
    271e:	e5 e9       	ldi	r30, 0x95	; 149
    2720:	f0 e0       	ldi	r31, 0x00	; 0
    2722:	80 81       	ld	r24, Z
    2724:	86 60       	ori	r24, 0x06	; 6
    2726:	8c 93       	st	X, r24

			

			for(i=0; i<5000; i++);		// Wait
    2728:	1d 86       	std	Y+13, r1	; 0x0d
    272a:	1e 86       	std	Y+14, r1	; 0x0e
    272c:	1f 86       	std	Y+15, r1	; 0x0f
    272e:	18 8a       	std	Y+16, r1	; 0x10
    2730:	0b c0       	rjmp	.+22     	; 0x2748 <uart_init+0xe4>
    2732:	8d 85       	ldd	r24, Y+13	; 0x0d
    2734:	9e 85       	ldd	r25, Y+14	; 0x0e
    2736:	af 85       	ldd	r26, Y+15	; 0x0f
    2738:	b8 89       	ldd	r27, Y+16	; 0x10
    273a:	01 96       	adiw	r24, 0x01	; 1
    273c:	a1 1d       	adc	r26, r1
    273e:	b1 1d       	adc	r27, r1
    2740:	8d 87       	std	Y+13, r24	; 0x0d
    2742:	9e 87       	std	Y+14, r25	; 0x0e
    2744:	af 87       	std	Y+15, r26	; 0x0f
    2746:	b8 8b       	std	Y+16, r27	; 0x10
    2748:	8d 85       	ldd	r24, Y+13	; 0x0d
    274a:	9e 85       	ldd	r25, Y+14	; 0x0e
    274c:	af 85       	ldd	r26, Y+15	; 0x0f
    274e:	b8 89       	ldd	r27, Y+16	; 0x10
    2750:	88 38       	cpi	r24, 0x88	; 136
    2752:	23 e1       	ldi	r18, 0x13	; 19
    2754:	92 07       	cpc	r25, r18
    2756:	20 e0       	ldi	r18, 0x00	; 0
    2758:	a2 07       	cpc	r26, r18
    275a:	20 e0       	ldi	r18, 0x00	; 0
    275c:	b2 07       	cpc	r27, r18
    275e:	48 f3       	brcs	.-46     	; 0x2732 <uart_init+0xce>
			
			UCSR0B = option;					
    2760:	ea e2       	ldi	r30, 0x2A	; 42
    2762:	f0 e0       	ldi	r31, 0x00	; 0
    2764:	8b 89       	ldd	r24, Y+19	; 0x13
    2766:	80 83       	st	Z, r24

			UBRR0H = (unsigned char)(b>>8);
    2768:	e0 e9       	ldi	r30, 0x90	; 144
    276a:	f0 e0       	ldi	r31, 0x00	; 0
    276c:	89 85       	ldd	r24, Y+9	; 0x09
    276e:	9a 85       	ldd	r25, Y+10	; 0x0a
    2770:	ab 85       	ldd	r26, Y+11	; 0x0b
    2772:	bc 85       	ldd	r27, Y+12	; 0x0c
    2774:	89 2f       	mov	r24, r25
    2776:	9a 2f       	mov	r25, r26
    2778:	ab 2f       	mov	r26, r27
    277a:	bb 27       	eor	r27, r27
    277c:	80 83       	st	Z, r24
	 		UBRR0L = (unsigned char)b;		
    277e:	e9 e2       	ldi	r30, 0x29	; 41
    2780:	f0 e0       	ldi	r31, 0x00	; 0
    2782:	89 85       	ldd	r24, Y+9	; 0x09
    2784:	80 83       	st	Z, r24

			UCSR0A;						// DummyRead
    2786:	eb e2       	ldi	r30, 0x2B	; 43
    2788:	f0 e0       	ldi	r31, 0x00	; 0
    278a:	80 81       	ld	r24, Z
			UCSR0A &= 0xe3;				// Clear Error Flag
    278c:	ab e2       	ldi	r26, 0x2B	; 43
    278e:	b0 e0       	ldi	r27, 0x00	; 0
    2790:	eb e2       	ldi	r30, 0x2B	; 43
    2792:	f0 e0       	ldi	r31, 0x00	; 0
    2794:	80 81       	ld	r24, Z
    2796:	83 7e       	andi	r24, 0xE3	; 227
    2798:	8c 93       	st	X, r24
    279a:	4a c0       	rjmp	.+148    	; 0x2830 <uart_init+0x1cc>
			break;
		case 1:
			sbi(UCSR1A,U2X1);			// 倍速許可
    279c:	ab e9       	ldi	r26, 0x9B	; 155
    279e:	b0 e0       	ldi	r27, 0x00	; 0
    27a0:	eb e9       	ldi	r30, 0x9B	; 155
    27a2:	f0 e0       	ldi	r31, 0x00	; 0
    27a4:	80 81       	ld	r24, Z
    27a6:	82 60       	ori	r24, 0x02	; 2
    27a8:	8c 93       	st	X, r24

			UBRR1H = (unsigned char)(b>>8);
    27aa:	e8 e9       	ldi	r30, 0x98	; 152
    27ac:	f0 e0       	ldi	r31, 0x00	; 0
    27ae:	89 85       	ldd	r24, Y+9	; 0x09
    27b0:	9a 85       	ldd	r25, Y+10	; 0x0a
    27b2:	ab 85       	ldd	r26, Y+11	; 0x0b
    27b4:	bc 85       	ldd	r27, Y+12	; 0x0c
    27b6:	89 2f       	mov	r24, r25
    27b8:	9a 2f       	mov	r25, r26
    27ba:	ab 2f       	mov	r26, r27
    27bc:	bb 27       	eor	r27, r27
    27be:	80 83       	st	Z, r24
	 		UBRR1L = (unsigned char)b;	 
    27c0:	e9 e9       	ldi	r30, 0x99	; 153
    27c2:	f0 e0       	ldi	r31, 0x00	; 0
    27c4:	89 85       	ldd	r24, Y+9	; 0x09
    27c6:	80 83       	st	Z, r24

			for(i=0; i<5000; i++);		// Wait
    27c8:	1d 86       	std	Y+13, r1	; 0x0d
    27ca:	1e 86       	std	Y+14, r1	; 0x0e
    27cc:	1f 86       	std	Y+15, r1	; 0x0f
    27ce:	18 8a       	std	Y+16, r1	; 0x10
    27d0:	0b c0       	rjmp	.+22     	; 0x27e8 <uart_init+0x184>
    27d2:	8d 85       	ldd	r24, Y+13	; 0x0d
    27d4:	9e 85       	ldd	r25, Y+14	; 0x0e
    27d6:	af 85       	ldd	r26, Y+15	; 0x0f
    27d8:	b8 89       	ldd	r27, Y+16	; 0x10
    27da:	01 96       	adiw	r24, 0x01	; 1
    27dc:	a1 1d       	adc	r26, r1
    27de:	b1 1d       	adc	r27, r1
    27e0:	8d 87       	std	Y+13, r24	; 0x0d
    27e2:	9e 87       	std	Y+14, r25	; 0x0e
    27e4:	af 87       	std	Y+15, r26	; 0x0f
    27e6:	b8 8b       	std	Y+16, r27	; 0x10
    27e8:	8d 85       	ldd	r24, Y+13	; 0x0d
    27ea:	9e 85       	ldd	r25, Y+14	; 0x0e
    27ec:	af 85       	ldd	r26, Y+15	; 0x0f
    27ee:	b8 89       	ldd	r27, Y+16	; 0x10
    27f0:	88 38       	cpi	r24, 0x88	; 136
    27f2:	23 e1       	ldi	r18, 0x13	; 19
    27f4:	92 07       	cpc	r25, r18
    27f6:	20 e0       	ldi	r18, 0x00	; 0
    27f8:	a2 07       	cpc	r26, r18
    27fa:	20 e0       	ldi	r18, 0x00	; 0
    27fc:	b2 07       	cpc	r27, r18
    27fe:	48 f3       	brcs	.-46     	; 0x27d2 <uart_init+0x16e>
			
			UCSR1B |= option;
    2800:	aa e9       	ldi	r26, 0x9A	; 154
    2802:	b0 e0       	ldi	r27, 0x00	; 0
    2804:	ea e9       	ldi	r30, 0x9A	; 154
    2806:	f0 e0       	ldi	r31, 0x00	; 0
    2808:	90 81       	ld	r25, Z
    280a:	8b 89       	ldd	r24, Y+19	; 0x13
    280c:	89 2b       	or	r24, r25
    280e:	8c 93       	st	X, r24
			UCSR1A;						// DummyRead
    2810:	eb e9       	ldi	r30, 0x9B	; 155
    2812:	f0 e0       	ldi	r31, 0x00	; 0
    2814:	80 81       	ld	r24, Z
			UCSR1A &= 0xe3;				// Clear Error Flag
    2816:	ab e9       	ldi	r26, 0x9B	; 155
    2818:	b0 e0       	ldi	r27, 0x00	; 0
    281a:	eb e9       	ldi	r30, 0x9B	; 155
    281c:	f0 e0       	ldi	r31, 0x00	; 0
    281e:	80 81       	ld	r24, Z
    2820:	83 7e       	andi	r24, 0xE3	; 227
    2822:	8c 93       	st	X, r24
    2824:	05 c0       	rjmp	.+10     	; 0x2830 <uart_init+0x1cc>
			break;
		default:
			return -1;
    2826:	8f ef       	ldi	r24, 0xFF	; 255
    2828:	9f ef       	ldi	r25, 0xFF	; 255
    282a:	99 8f       	std	Y+25, r25	; 0x19
    282c:	88 8f       	std	Y+24, r24	; 0x18
    282e:	02 c0       	rjmp	.+4      	; 0x2834 <uart_init+0x1d0>
	}

	return 0;
    2830:	19 8e       	std	Y+25, r1	; 0x19
    2832:	18 8e       	std	Y+24, r1	; 0x18
    2834:	88 8d       	ldd	r24, Y+24	; 0x18
    2836:	99 8d       	ldd	r25, Y+25	; 0x19
}
    2838:	6d 96       	adiw	r28, 0x1d	; 29
    283a:	0f b6       	in	r0, 0x3f	; 63
    283c:	f8 94       	cli
    283e:	de bf       	out	0x3e, r29	; 62
    2840:	0f be       	out	0x3f, r0	; 63
    2842:	cd bf       	out	0x3d, r28	; 61
    2844:	cf 91       	pop	r28
    2846:	df 91       	pop	r29
    2848:	08 95       	ret

0000284a <uart_setbuffer>:

void uart_setbuffer(int uart_no, int dir, unsigned char *buf, int size)
{
    284a:	df 93       	push	r29
    284c:	cf 93       	push	r28
    284e:	cd b7       	in	r28, 0x3d	; 61
    2850:	de b7       	in	r29, 0x3e	; 62
    2852:	28 97       	sbiw	r28, 0x08	; 8
    2854:	0f b6       	in	r0, 0x3f	; 63
    2856:	f8 94       	cli
    2858:	de bf       	out	0x3e, r29	; 62
    285a:	0f be       	out	0x3f, r0	; 63
    285c:	cd bf       	out	0x3d, r28	; 61
    285e:	9a 83       	std	Y+2, r25	; 0x02
    2860:	89 83       	std	Y+1, r24	; 0x01
    2862:	7c 83       	std	Y+4, r23	; 0x04
    2864:	6b 83       	std	Y+3, r22	; 0x03
    2866:	5e 83       	std	Y+6, r21	; 0x06
    2868:	4d 83       	std	Y+5, r20	; 0x05
    286a:	38 87       	std	Y+8, r19	; 0x08
    286c:	2f 83       	std	Y+7, r18	; 0x07
	if( uart_no<0 || uart_no>=UART_NUM)	return;
    286e:	89 81       	ldd	r24, Y+1	; 0x01
    2870:	9a 81       	ldd	r25, Y+2	; 0x02
    2872:	99 23       	and	r25, r25
    2874:	64 f1       	brlt	.+88     	; 0x28ce <uart_setbuffer+0x84>
    2876:	89 81       	ldd	r24, Y+1	; 0x01
    2878:	9a 81       	ldd	r25, Y+2	; 0x02
    287a:	82 30       	cpi	r24, 0x02	; 2
    287c:	91 05       	cpc	r25, r1
    287e:	3c f5       	brge	.+78     	; 0x28ce <uart_setbuffer+0x84>
	
	RingInit(&(__uartbuf[uart_no][dir]), buf, size);
    2880:	61 ee       	ldi	r22, 0xE1	; 225
    2882:	72 e0       	ldi	r23, 0x02	; 2
    2884:	89 81       	ldd	r24, Y+1	; 0x01
    2886:	9a 81       	ldd	r25, Y+2	; 0x02
    2888:	9c 01       	movw	r18, r24
    288a:	22 0f       	add	r18, r18
    288c:	33 1f       	adc	r19, r19
    288e:	c9 01       	movw	r24, r18
    2890:	88 0f       	add	r24, r24
    2892:	99 1f       	adc	r25, r25
    2894:	88 0f       	add	r24, r24
    2896:	99 1f       	adc	r25, r25
    2898:	88 0f       	add	r24, r24
    289a:	99 1f       	adc	r25, r25
    289c:	a9 01       	movw	r20, r18
    289e:	48 0f       	add	r20, r24
    28a0:	59 1f       	adc	r21, r25
    28a2:	2b 81       	ldd	r18, Y+3	; 0x03
    28a4:	3c 81       	ldd	r19, Y+4	; 0x04
    28a6:	c9 01       	movw	r24, r18
    28a8:	88 0f       	add	r24, r24
    28aa:	99 1f       	adc	r25, r25
    28ac:	88 0f       	add	r24, r24
    28ae:	99 1f       	adc	r25, r25
    28b0:	88 0f       	add	r24, r24
    28b2:	99 1f       	adc	r25, r25
    28b4:	82 0f       	add	r24, r18
    28b6:	93 1f       	adc	r25, r19
    28b8:	84 0f       	add	r24, r20
    28ba:	95 1f       	adc	r25, r21
    28bc:	86 0f       	add	r24, r22
    28be:	97 1f       	adc	r25, r23
    28c0:	4f 81       	ldd	r20, Y+7	; 0x07
    28c2:	58 85       	ldd	r21, Y+8	; 0x08
    28c4:	2d 81       	ldd	r18, Y+5	; 0x05
    28c6:	3e 81       	ldd	r19, Y+6	; 0x06
    28c8:	b9 01       	movw	r22, r18
    28ca:	0e 94 65 24 	call	0x48ca	; 0x48ca <RingInit>
}
    28ce:	28 96       	adiw	r28, 0x08	; 8
    28d0:	0f b6       	in	r0, 0x3f	; 63
    28d2:	f8 94       	cli
    28d4:	de bf       	out	0x3e, r29	; 62
    28d6:	0f be       	out	0x3f, r0	; 63
    28d8:	cd bf       	out	0x3d, r28	; 61
    28da:	cf 91       	pop	r28
    28dc:	df 91       	pop	r29
    28de:	08 95       	ret

000028e0 <uart0_getchar>:

unsigned char uart0_getchar(void)
{
    28e0:	df 93       	push	r29
    28e2:	cf 93       	push	r28
    28e4:	cd b7       	in	r28, 0x3d	; 61
    28e6:	de b7       	in	r29, 0x3e	; 62
	while( !bit_is_set(UCSR0A,RXC0) );
    28e8:	eb e2       	ldi	r30, 0x2B	; 43
    28ea:	f0 e0       	ldi	r31, 0x00	; 0
    28ec:	80 81       	ld	r24, Z
    28ee:	88 23       	and	r24, r24
    28f0:	dc f7       	brge	.-10     	; 0x28e8 <uart0_getchar+0x8>
	cbi(UCSR0A,RXC0);
    28f2:	ab e2       	ldi	r26, 0x2B	; 43
    28f4:	b0 e0       	ldi	r27, 0x00	; 0
    28f6:	eb e2       	ldi	r30, 0x2B	; 43
    28f8:	f0 e0       	ldi	r31, 0x00	; 0
    28fa:	80 81       	ld	r24, Z
    28fc:	8f 77       	andi	r24, 0x7F	; 127
    28fe:	8c 93       	st	X, r24
	return UDR0;
    2900:	ec e2       	ldi	r30, 0x2C	; 44
    2902:	f0 e0       	ldi	r31, 0x00	; 0
    2904:	80 81       	ld	r24, Z
}
    2906:	cf 91       	pop	r28
    2908:	df 91       	pop	r29
    290a:	08 95       	ret

0000290c <uart0_putchar>:

int uart0_putchar(unsigned char c)
{/*
    290c:	df 93       	push	r29
    290e:	cf 93       	push	r28
    2910:	0f 92       	push	r0
    2912:	cd b7       	in	r28, 0x3d	; 61
    2914:	de b7       	in	r29, 0x3e	; 62
    2916:	89 83       	std	Y+1, r24	; 0x01
	}
#elif (UART0_LINE_FEED == CR_CODE)				// CR
	if( c == '\n' )		c = '\r';
#elif (UART0_LINE_FEED == LF_CODE)
#endif*/
	while( !bit_is_set(UCSR0A,UDRE0) );
    2918:	eb e2       	ldi	r30, 0x2B	; 43
    291a:	f0 e0       	ldi	r31, 0x00	; 0
    291c:	80 81       	ld	r24, Z
    291e:	88 2f       	mov	r24, r24
    2920:	90 e0       	ldi	r25, 0x00	; 0
    2922:	80 72       	andi	r24, 0x20	; 32
    2924:	90 70       	andi	r25, 0x00	; 0
    2926:	00 97       	sbiw	r24, 0x00	; 0
    2928:	b9 f3       	breq	.-18     	; 0x2918 <uart0_putchar+0xc>
	UDR0 = c;
    292a:	ec e2       	ldi	r30, 0x2C	; 44
    292c:	f0 e0       	ldi	r31, 0x00	; 0
    292e:	89 81       	ldd	r24, Y+1	; 0x01
    2930:	80 83       	st	Z, r24
	cbi(UCSR0A,UDRE0);
    2932:	ab e2       	ldi	r26, 0x2B	; 43
    2934:	b0 e0       	ldi	r27, 0x00	; 0
    2936:	eb e2       	ldi	r30, 0x2B	; 43
    2938:	f0 e0       	ldi	r31, 0x00	; 0
    293a:	80 81       	ld	r24, Z
    293c:	8f 7d       	andi	r24, 0xDF	; 223
    293e:	8c 93       	st	X, r24
	return 0;
    2940:	80 e0       	ldi	r24, 0x00	; 0
    2942:	90 e0       	ldi	r25, 0x00	; 0
}
    2944:	0f 90       	pop	r0
    2946:	cf 91       	pop	r28
    2948:	df 91       	pop	r29
    294a:	08 95       	ret

0000294c <uart1_putchar>:

int uart1_putchar(char c)
{
    294c:	df 93       	push	r29
    294e:	cf 93       	push	r28
    2950:	0f 92       	push	r0
    2952:	cd b7       	in	r28, 0x3d	; 61
    2954:	de b7       	in	r29, 0x3e	; 62
    2956:	89 83       	std	Y+1, r24	; 0x01
#if (UART1_LINE_FEED == CR_CODE | LF_CODE)		// CRLF
	if( c == '\n' ){
    2958:	89 81       	ldd	r24, Y+1	; 0x01
    295a:	8a 30       	cpi	r24, 0x0A	; 10
    295c:	a1 f4       	brne	.+40     	; 0x2986 <uart1_putchar+0x3a>
		while( !bit_is_set(UCSR1A,UDRE1) );
    295e:	eb e9       	ldi	r30, 0x9B	; 155
    2960:	f0 e0       	ldi	r31, 0x00	; 0
    2962:	80 81       	ld	r24, Z
    2964:	88 2f       	mov	r24, r24
    2966:	90 e0       	ldi	r25, 0x00	; 0
    2968:	80 72       	andi	r24, 0x20	; 32
    296a:	90 70       	andi	r25, 0x00	; 0
    296c:	00 97       	sbiw	r24, 0x00	; 0
    296e:	b9 f3       	breq	.-18     	; 0x295e <uart1_putchar+0x12>
		UDR1 = '\r';
    2970:	ec e9       	ldi	r30, 0x9C	; 156
    2972:	f0 e0       	ldi	r31, 0x00	; 0
    2974:	8d e0       	ldi	r24, 0x0D	; 13
    2976:	80 83       	st	Z, r24
		cbi(UCSR1A,UDRE1);
    2978:	ab e9       	ldi	r26, 0x9B	; 155
    297a:	b0 e0       	ldi	r27, 0x00	; 0
    297c:	eb e9       	ldi	r30, 0x9B	; 155
    297e:	f0 e0       	ldi	r31, 0x00	; 0
    2980:	80 81       	ld	r24, Z
    2982:	8f 7d       	andi	r24, 0xDF	; 223
    2984:	8c 93       	st	X, r24
	}
#elif (UART1_LINE_FEED == CR_CODE)				// CR
	if( c == '\n' )		c = '\r';
#elif (UART1_LINE_FEED == LF_CODE)
#endif
	while( !bit_is_set(UCSR1A,UDRE1) );
    2986:	eb e9       	ldi	r30, 0x9B	; 155
    2988:	f0 e0       	ldi	r31, 0x00	; 0
    298a:	80 81       	ld	r24, Z
    298c:	88 2f       	mov	r24, r24
    298e:	90 e0       	ldi	r25, 0x00	; 0
    2990:	80 72       	andi	r24, 0x20	; 32
    2992:	90 70       	andi	r25, 0x00	; 0
    2994:	00 97       	sbiw	r24, 0x00	; 0
    2996:	b9 f3       	breq	.-18     	; 0x2986 <uart1_putchar+0x3a>
	UDR1 = c;
    2998:	ec e9       	ldi	r30, 0x9C	; 156
    299a:	f0 e0       	ldi	r31, 0x00	; 0
    299c:	89 81       	ldd	r24, Y+1	; 0x01
    299e:	80 83       	st	Z, r24
	cbi(UCSR1A,UDRE1);
    29a0:	ab e9       	ldi	r26, 0x9B	; 155
    29a2:	b0 e0       	ldi	r27, 0x00	; 0
    29a4:	eb e9       	ldi	r30, 0x9B	; 155
    29a6:	f0 e0       	ldi	r31, 0x00	; 0
    29a8:	80 81       	ld	r24, Z
    29aa:	8f 7d       	andi	r24, 0xDF	; 223
    29ac:	8c 93       	st	X, r24

	return 0;
    29ae:	80 e0       	ldi	r24, 0x00	; 0
    29b0:	90 e0       	ldi	r25, 0x00	; 0
}
    29b2:	0f 90       	pop	r0
    29b4:	cf 91       	pop	r28
    29b6:	df 91       	pop	r29
    29b8:	08 95       	ret

000029ba <uart0_buf_putchar>:

int uart0_buf_putchar(char c)
{
    29ba:	df 93       	push	r29
    29bc:	cf 93       	push	r28
    29be:	00 d0       	rcall	.+0      	; 0x29c0 <uart0_buf_putchar+0x6>
    29c0:	0f 92       	push	r0
    29c2:	cd b7       	in	r28, 0x3d	; 61
    29c4:	de b7       	in	r29, 0x3e	; 62
    29c6:	8b 83       	std	Y+3, r24	; 0x03
	int ret;
	
	ret = 0;
    29c8:	1a 82       	std	Y+2, r1	; 0x02
    29ca:	19 82       	std	Y+1, r1	; 0x01
	_uart_interrupt_status = SREG;
    29cc:	ef e5       	ldi	r30, 0x5F	; 95
    29ce:	f0 e0       	ldi	r31, 0x00	; 0
    29d0:	80 81       	ld	r24, Z
    29d2:	80 93 4d 02 	sts	0x024D, r24
	cli();
    29d6:	f8 94       	cli
	
#if (UART0_LINE_FEED == CR_CODE | LF_CODE)		// CRLF
	if( c == '\n' ){
    29d8:	8b 81       	ldd	r24, Y+3	; 0x03
    29da:	8a 30       	cpi	r24, 0x0A	; 10
    29dc:	69 f4       	brne	.+26     	; 0x29f8 <uart0_buf_putchar+0x3e>
		if( !RingPut(&__uartbuf[0][TX], '\r') ){
    29de:	81 ee       	ldi	r24, 0xE1	; 225
    29e0:	92 e0       	ldi	r25, 0x02	; 2
    29e2:	09 96       	adiw	r24, 0x09	; 9
    29e4:	6d e0       	ldi	r22, 0x0D	; 13
    29e6:	0e 94 93 24 	call	0x4926	; 0x4926 <RingPut>
    29ea:	00 97       	sbiw	r24, 0x00	; 0
    29ec:	29 f4       	brne	.+10     	; 0x29f8 <uart0_buf_putchar+0x3e>
			ret = -1;	// Buffer Full
    29ee:	8f ef       	ldi	r24, 0xFF	; 255
    29f0:	9f ef       	ldi	r25, 0xFF	; 255
    29f2:	9a 83       	std	Y+2, r25	; 0x02
    29f4:	89 83       	std	Y+1, r24	; 0x01
    29f6:	13 c0       	rjmp	.+38     	; 0x2a1e <uart0_buf_putchar+0x64>
#elif (UART0_LINE_FEED == CR_CODE)				// CR
	if( c == '\n' )		c = '\r';
#elif (UART0_LINE_FEED == LF_CODE)
#endif

	if( !RingPut(&__uartbuf[0][TX], c) ){
    29f8:	81 ee       	ldi	r24, 0xE1	; 225
    29fa:	92 e0       	ldi	r25, 0x02	; 2
    29fc:	09 96       	adiw	r24, 0x09	; 9
    29fe:	6b 81       	ldd	r22, Y+3	; 0x03
    2a00:	0e 94 93 24 	call	0x4926	; 0x4926 <RingPut>
    2a04:	00 97       	sbiw	r24, 0x00	; 0
    2a06:	21 f4       	brne	.+8      	; 0x2a10 <uart0_buf_putchar+0x56>
		ret = -1;	// Buffer Full
    2a08:	8f ef       	ldi	r24, 0xFF	; 255
    2a0a:	9f ef       	ldi	r25, 0xFF	; 255
    2a0c:	9a 83       	std	Y+2, r25	; 0x02
    2a0e:	89 83       	std	Y+1, r24	; 0x01
	}
	start_uart0tx_interrupt();
    2a10:	aa e2       	ldi	r26, 0x2A	; 42
    2a12:	b0 e0       	ldi	r27, 0x00	; 0
    2a14:	ea e2       	ldi	r30, 0x2A	; 42
    2a16:	f0 e0       	ldi	r31, 0x00	; 0
    2a18:	80 81       	ld	r24, Z
    2a1a:	80 62       	ori	r24, 0x20	; 32
    2a1c:	8c 93       	st	X, r24
	
#if (UART0_LINE_FEED == CR_CODE | LF_CODE)		// CRLF
_exit_uart0_buf_putchar:
#endif
	SREG = _uart_interrupt_status;
    2a1e:	ef e5       	ldi	r30, 0x5F	; 95
    2a20:	f0 e0       	ldi	r31, 0x00	; 0
    2a22:	80 91 4d 02 	lds	r24, 0x024D
    2a26:	80 83       	st	Z, r24

	return ret;
    2a28:	89 81       	ldd	r24, Y+1	; 0x01
    2a2a:	9a 81       	ldd	r25, Y+2	; 0x02
}
    2a2c:	0f 90       	pop	r0
    2a2e:	0f 90       	pop	r0
    2a30:	0f 90       	pop	r0
    2a32:	cf 91       	pop	r28
    2a34:	df 91       	pop	r29
    2a36:	08 95       	ret

00002a38 <uart1_buf_putchar>:

int uart1_buf_putchar(char c)
{
    2a38:	df 93       	push	r29
    2a3a:	cf 93       	push	r28
    2a3c:	00 d0       	rcall	.+0      	; 0x2a3e <uart1_buf_putchar+0x6>
    2a3e:	0f 92       	push	r0
    2a40:	cd b7       	in	r28, 0x3d	; 61
    2a42:	de b7       	in	r29, 0x3e	; 62
    2a44:	8b 83       	std	Y+3, r24	; 0x03
	int ret;
	
	ret = 0;
    2a46:	1a 82       	std	Y+2, r1	; 0x02
    2a48:	19 82       	std	Y+1, r1	; 0x01
	_uart_interrupt_status = SREG;
    2a4a:	ef e5       	ldi	r30, 0x5F	; 95
    2a4c:	f0 e0       	ldi	r31, 0x00	; 0
    2a4e:	80 81       	ld	r24, Z
    2a50:	80 93 4d 02 	sts	0x024D, r24
	cli();
    2a54:	f8 94       	cli
	
#if (UART1_LINE_FEED == CR_CODE | LF_CODE)		// CRLF
	if( c == '\n' ){
    2a56:	8b 81       	ldd	r24, Y+3	; 0x03
    2a58:	8a 30       	cpi	r24, 0x0A	; 10
    2a5a:	69 f4       	brne	.+26     	; 0x2a76 <uart1_buf_putchar+0x3e>
		if( !RingPut(&__uartbuf[1][TX], '\r') ){
    2a5c:	81 ee       	ldi	r24, 0xE1	; 225
    2a5e:	92 e0       	ldi	r25, 0x02	; 2
    2a60:	4b 96       	adiw	r24, 0x1b	; 27
    2a62:	6d e0       	ldi	r22, 0x0D	; 13
    2a64:	0e 94 93 24 	call	0x4926	; 0x4926 <RingPut>
    2a68:	00 97       	sbiw	r24, 0x00	; 0
    2a6a:	29 f4       	brne	.+10     	; 0x2a76 <uart1_buf_putchar+0x3e>
			ret = -1;	// Buffer Full
    2a6c:	8f ef       	ldi	r24, 0xFF	; 255
    2a6e:	9f ef       	ldi	r25, 0xFF	; 255
    2a70:	9a 83       	std	Y+2, r25	; 0x02
    2a72:	89 83       	std	Y+1, r24	; 0x01
    2a74:	13 c0       	rjmp	.+38     	; 0x2a9c <uart1_buf_putchar+0x64>
	}
#elif (UART1_LINE_FEED == CR_CODE)				// CR
	if( c == '\n' )		c = '\r';
#elif (UART1_LINE_FEED == LF_CODE)
#endif
	if( !RingPut(&__uartbuf[1][TX], c) ){
    2a76:	81 ee       	ldi	r24, 0xE1	; 225
    2a78:	92 e0       	ldi	r25, 0x02	; 2
    2a7a:	4b 96       	adiw	r24, 0x1b	; 27
    2a7c:	6b 81       	ldd	r22, Y+3	; 0x03
    2a7e:	0e 94 93 24 	call	0x4926	; 0x4926 <RingPut>
    2a82:	00 97       	sbiw	r24, 0x00	; 0
    2a84:	21 f4       	brne	.+8      	; 0x2a8e <uart1_buf_putchar+0x56>
		ret = -1;	// Buffer Full
    2a86:	8f ef       	ldi	r24, 0xFF	; 255
    2a88:	9f ef       	ldi	r25, 0xFF	; 255
    2a8a:	9a 83       	std	Y+2, r25	; 0x02
    2a8c:	89 83       	std	Y+1, r24	; 0x01
	}
	start_uart1tx_interrupt();
    2a8e:	aa e9       	ldi	r26, 0x9A	; 154
    2a90:	b0 e0       	ldi	r27, 0x00	; 0
    2a92:	ea e9       	ldi	r30, 0x9A	; 154
    2a94:	f0 e0       	ldi	r31, 0x00	; 0
    2a96:	80 81       	ld	r24, Z
    2a98:	80 62       	ori	r24, 0x20	; 32
    2a9a:	8c 93       	st	X, r24

	
#if (UART1_LINE_FEED == CR_CODE | LF_CODE)		// CRLF
_exit_uart1_buf_putchar:
#endif
	SREG = _uart_interrupt_status;
    2a9c:	ef e5       	ldi	r30, 0x5F	; 95
    2a9e:	f0 e0       	ldi	r31, 0x00	; 0
    2aa0:	80 91 4d 02 	lds	r24, 0x024D
    2aa4:	80 83       	st	Z, r24

	return ret;
    2aa6:	89 81       	ldd	r24, Y+1	; 0x01
    2aa8:	9a 81       	ldd	r25, Y+2	; 0x02
}
    2aaa:	0f 90       	pop	r0
    2aac:	0f 90       	pop	r0
    2aae:	0f 90       	pop	r0
    2ab0:	cf 91       	pop	r28
    2ab2:	df 91       	pop	r29
    2ab4:	08 95       	ret

00002ab6 <__vector_19>:


ISR(USART0_UDRE_vect)
{
    2ab6:	1f 92       	push	r1
    2ab8:	0f 92       	push	r0
    2aba:	0f b6       	in	r0, 0x3f	; 63
    2abc:	0f 92       	push	r0
    2abe:	00 90 5b 00 	lds	r0, 0x005B
    2ac2:	0f 92       	push	r0
    2ac4:	11 24       	eor	r1, r1
    2ac6:	2f 93       	push	r18
    2ac8:	3f 93       	push	r19
    2aca:	4f 93       	push	r20
    2acc:	5f 93       	push	r21
    2ace:	6f 93       	push	r22
    2ad0:	7f 93       	push	r23
    2ad2:	8f 93       	push	r24
    2ad4:	9f 93       	push	r25
    2ad6:	af 93       	push	r26
    2ad8:	bf 93       	push	r27
    2ada:	ef 93       	push	r30
    2adc:	ff 93       	push	r31
    2ade:	df 93       	push	r29
    2ae0:	cf 93       	push	r28
    2ae2:	0f 92       	push	r0
    2ae4:	cd b7       	in	r28, 0x3d	; 61
    2ae6:	de b7       	in	r29, 0x3e	; 62
	unsigned char c;

	if( RingGet(&__uartbuf[0][TX], &c) ){
    2ae8:	81 ee       	ldi	r24, 0xE1	; 225
    2aea:	92 e0       	ldi	r25, 0x02	; 2
    2aec:	09 96       	adiw	r24, 0x09	; 9
    2aee:	9e 01       	movw	r18, r28
    2af0:	2f 5f       	subi	r18, 0xFF	; 255
    2af2:	3f 4f       	sbci	r19, 0xFF	; 255
    2af4:	b9 01       	movw	r22, r18
    2af6:	0e 94 e6 24 	call	0x49cc	; 0x49cc <RingGet>
    2afa:	00 97       	sbiw	r24, 0x00	; 0
    2afc:	61 f0       	breq	.+24     	; 0x2b16 <__vector_19+0x60>
		UDR0 = c;
    2afe:	ec e2       	ldi	r30, 0x2C	; 44
    2b00:	f0 e0       	ldi	r31, 0x00	; 0
    2b02:	89 81       	ldd	r24, Y+1	; 0x01
    2b04:	80 83       	st	Z, r24
		cbi(UCSR0A,UDRE0);			// UDREクリア
    2b06:	ab e2       	ldi	r26, 0x2B	; 43
    2b08:	b0 e0       	ldi	r27, 0x00	; 0
    2b0a:	eb e2       	ldi	r30, 0x2B	; 43
    2b0c:	f0 e0       	ldi	r31, 0x00	; 0
    2b0e:	80 81       	ld	r24, Z
    2b10:	8f 7d       	andi	r24, 0xDF	; 223
    2b12:	8c 93       	st	X, r24
    2b14:	0e c0       	rjmp	.+28     	; 0x2b32 <__vector_19+0x7c>
	}else{
		stop_uart0tx_interrupt();
    2b16:	aa e2       	ldi	r26, 0x2A	; 42
    2b18:	b0 e0       	ldi	r27, 0x00	; 0
    2b1a:	ea e2       	ldi	r30, 0x2A	; 42
    2b1c:	f0 e0       	ldi	r31, 0x00	; 0
    2b1e:	80 81       	ld	r24, Z
    2b20:	8f 7d       	andi	r24, 0xDF	; 223
    2b22:	8c 93       	st	X, r24
		cbi(UCSR0A,UDRE0);
    2b24:	ab e2       	ldi	r26, 0x2B	; 43
    2b26:	b0 e0       	ldi	r27, 0x00	; 0
    2b28:	eb e2       	ldi	r30, 0x2B	; 43
    2b2a:	f0 e0       	ldi	r31, 0x00	; 0
    2b2c:	80 81       	ld	r24, Z
    2b2e:	8f 7d       	andi	r24, 0xDF	; 223
    2b30:	8c 93       	st	X, r24
	}
}
    2b32:	0f 90       	pop	r0
    2b34:	cf 91       	pop	r28
    2b36:	df 91       	pop	r29
    2b38:	ff 91       	pop	r31
    2b3a:	ef 91       	pop	r30
    2b3c:	bf 91       	pop	r27
    2b3e:	af 91       	pop	r26
    2b40:	9f 91       	pop	r25
    2b42:	8f 91       	pop	r24
    2b44:	7f 91       	pop	r23
    2b46:	6f 91       	pop	r22
    2b48:	5f 91       	pop	r21
    2b4a:	4f 91       	pop	r20
    2b4c:	3f 91       	pop	r19
    2b4e:	2f 91       	pop	r18
    2b50:	0f 90       	pop	r0
    2b52:	00 92 5b 00 	sts	0x005B, r0
    2b56:	0f 90       	pop	r0
    2b58:	0f be       	out	0x3f, r0	; 63
    2b5a:	0f 90       	pop	r0
    2b5c:	1f 90       	pop	r1
    2b5e:	18 95       	reti

00002b60 <__vector_31>:

ISR(USART1_UDRE_vect)
{
    2b60:	1f 92       	push	r1
    2b62:	0f 92       	push	r0
    2b64:	0f b6       	in	r0, 0x3f	; 63
    2b66:	0f 92       	push	r0
    2b68:	00 90 5b 00 	lds	r0, 0x005B
    2b6c:	0f 92       	push	r0
    2b6e:	11 24       	eor	r1, r1
    2b70:	2f 93       	push	r18
    2b72:	3f 93       	push	r19
    2b74:	4f 93       	push	r20
    2b76:	5f 93       	push	r21
    2b78:	6f 93       	push	r22
    2b7a:	7f 93       	push	r23
    2b7c:	8f 93       	push	r24
    2b7e:	9f 93       	push	r25
    2b80:	af 93       	push	r26
    2b82:	bf 93       	push	r27
    2b84:	ef 93       	push	r30
    2b86:	ff 93       	push	r31
    2b88:	df 93       	push	r29
    2b8a:	cf 93       	push	r28
    2b8c:	0f 92       	push	r0
    2b8e:	cd b7       	in	r28, 0x3d	; 61
    2b90:	de b7       	in	r29, 0x3e	; 62
	unsigned char c;
	
	if( RingGet(&__uartbuf[1][TX], &c) ){
    2b92:	81 ee       	ldi	r24, 0xE1	; 225
    2b94:	92 e0       	ldi	r25, 0x02	; 2
    2b96:	4b 96       	adiw	r24, 0x1b	; 27
    2b98:	9e 01       	movw	r18, r28
    2b9a:	2f 5f       	subi	r18, 0xFF	; 255
    2b9c:	3f 4f       	sbci	r19, 0xFF	; 255
    2b9e:	b9 01       	movw	r22, r18
    2ba0:	0e 94 e6 24 	call	0x49cc	; 0x49cc <RingGet>
    2ba4:	00 97       	sbiw	r24, 0x00	; 0
    2ba6:	61 f0       	breq	.+24     	; 0x2bc0 <__vector_31+0x60>
		UDR1 = c;
    2ba8:	ec e9       	ldi	r30, 0x9C	; 156
    2baa:	f0 e0       	ldi	r31, 0x00	; 0
    2bac:	89 81       	ldd	r24, Y+1	; 0x01
    2bae:	80 83       	st	Z, r24
		cbi(UCSR1A,UDRE1);			// UDREクリア
    2bb0:	ab e9       	ldi	r26, 0x9B	; 155
    2bb2:	b0 e0       	ldi	r27, 0x00	; 0
    2bb4:	eb e9       	ldi	r30, 0x9B	; 155
    2bb6:	f0 e0       	ldi	r31, 0x00	; 0
    2bb8:	80 81       	ld	r24, Z
    2bba:	8f 7d       	andi	r24, 0xDF	; 223
    2bbc:	8c 93       	st	X, r24
    2bbe:	0e c0       	rjmp	.+28     	; 0x2bdc <__vector_31+0x7c>
	}else{
		stop_uart1tx_interrupt();
    2bc0:	aa e9       	ldi	r26, 0x9A	; 154
    2bc2:	b0 e0       	ldi	r27, 0x00	; 0
    2bc4:	ea e9       	ldi	r30, 0x9A	; 154
    2bc6:	f0 e0       	ldi	r31, 0x00	; 0
    2bc8:	80 81       	ld	r24, Z
    2bca:	8f 7d       	andi	r24, 0xDF	; 223
    2bcc:	8c 93       	st	X, r24
		cbi(UCSR1A,UDRE1);
    2bce:	ab e9       	ldi	r26, 0x9B	; 155
    2bd0:	b0 e0       	ldi	r27, 0x00	; 0
    2bd2:	eb e9       	ldi	r30, 0x9B	; 155
    2bd4:	f0 e0       	ldi	r31, 0x00	; 0
    2bd6:	80 81       	ld	r24, Z
    2bd8:	8f 7d       	andi	r24, 0xDF	; 223
    2bda:	8c 93       	st	X, r24
	}
}
    2bdc:	0f 90       	pop	r0
    2bde:	cf 91       	pop	r28
    2be0:	df 91       	pop	r29
    2be2:	ff 91       	pop	r31
    2be4:	ef 91       	pop	r30
    2be6:	bf 91       	pop	r27
    2be8:	af 91       	pop	r26
    2bea:	9f 91       	pop	r25
    2bec:	8f 91       	pop	r24
    2bee:	7f 91       	pop	r23
    2bf0:	6f 91       	pop	r22
    2bf2:	5f 91       	pop	r21
    2bf4:	4f 91       	pop	r20
    2bf6:	3f 91       	pop	r19
    2bf8:	2f 91       	pop	r18
    2bfa:	0f 90       	pop	r0
    2bfc:	00 92 5b 00 	sts	0x005B, r0
    2c00:	0f 90       	pop	r0
    2c02:	0f be       	out	0x3f, r0	; 63
    2c04:	0f 90       	pop	r0
    2c06:	1f 90       	pop	r1
    2c08:	18 95       	reti

00002c0a <__vector_18>:

ISR(USART0_RX_vect)
{
    2c0a:	1f 92       	push	r1
    2c0c:	0f 92       	push	r0
    2c0e:	0f b6       	in	r0, 0x3f	; 63
    2c10:	0f 92       	push	r0
    2c12:	00 90 5b 00 	lds	r0, 0x005B
    2c16:	0f 92       	push	r0
    2c18:	11 24       	eor	r1, r1
    2c1a:	2f 93       	push	r18
    2c1c:	3f 93       	push	r19
    2c1e:	4f 93       	push	r20
    2c20:	5f 93       	push	r21
    2c22:	6f 93       	push	r22
    2c24:	7f 93       	push	r23
    2c26:	8f 93       	push	r24
    2c28:	9f 93       	push	r25
    2c2a:	af 93       	push	r26
    2c2c:	bf 93       	push	r27
    2c2e:	ef 93       	push	r30
    2c30:	ff 93       	push	r31
    2c32:	df 93       	push	r29
    2c34:	cf 93       	push	r28
    2c36:	cd b7       	in	r28, 0x3d	; 61
    2c38:	de b7       	in	r29, 0x3e	; 62
	RingPut(&(__uartbuf[0][0]), UDR0);
    2c3a:	81 ee       	ldi	r24, 0xE1	; 225
    2c3c:	92 e0       	ldi	r25, 0x02	; 2
    2c3e:	ec e2       	ldi	r30, 0x2C	; 44
    2c40:	f0 e0       	ldi	r31, 0x00	; 0
    2c42:	20 81       	ld	r18, Z
    2c44:	62 2f       	mov	r22, r18
    2c46:	0e 94 93 24 	call	0x4926	; 0x4926 <RingPut>
}
    2c4a:	cf 91       	pop	r28
    2c4c:	df 91       	pop	r29
    2c4e:	ff 91       	pop	r31
    2c50:	ef 91       	pop	r30
    2c52:	bf 91       	pop	r27
    2c54:	af 91       	pop	r26
    2c56:	9f 91       	pop	r25
    2c58:	8f 91       	pop	r24
    2c5a:	7f 91       	pop	r23
    2c5c:	6f 91       	pop	r22
    2c5e:	5f 91       	pop	r21
    2c60:	4f 91       	pop	r20
    2c62:	3f 91       	pop	r19
    2c64:	2f 91       	pop	r18
    2c66:	0f 90       	pop	r0
    2c68:	00 92 5b 00 	sts	0x005B, r0
    2c6c:	0f 90       	pop	r0
    2c6e:	0f be       	out	0x3f, r0	; 63
    2c70:	0f 90       	pop	r0
    2c72:	1f 90       	pop	r1
    2c74:	18 95       	reti

00002c76 <__vector_30>:

ISR(USART1_RX_vect)
{
    2c76:	1f 92       	push	r1
    2c78:	0f 92       	push	r0
    2c7a:	0f b6       	in	r0, 0x3f	; 63
    2c7c:	0f 92       	push	r0
    2c7e:	00 90 5b 00 	lds	r0, 0x005B
    2c82:	0f 92       	push	r0
    2c84:	11 24       	eor	r1, r1
    2c86:	2f 93       	push	r18
    2c88:	3f 93       	push	r19
    2c8a:	4f 93       	push	r20
    2c8c:	5f 93       	push	r21
    2c8e:	6f 93       	push	r22
    2c90:	7f 93       	push	r23
    2c92:	8f 93       	push	r24
    2c94:	9f 93       	push	r25
    2c96:	af 93       	push	r26
    2c98:	bf 93       	push	r27
    2c9a:	ef 93       	push	r30
    2c9c:	ff 93       	push	r31
    2c9e:	df 93       	push	r29
    2ca0:	cf 93       	push	r28
    2ca2:	cd b7       	in	r28, 0x3d	; 61
    2ca4:	de b7       	in	r29, 0x3e	; 62
	RingPut(&(__uartbuf[1][0]), UDR1);
    2ca6:	83 ef       	ldi	r24, 0xF3	; 243
    2ca8:	92 e0       	ldi	r25, 0x02	; 2
    2caa:	ec e9       	ldi	r30, 0x9C	; 156
    2cac:	f0 e0       	ldi	r31, 0x00	; 0
    2cae:	20 81       	ld	r18, Z
    2cb0:	62 2f       	mov	r22, r18
    2cb2:	0e 94 93 24 	call	0x4926	; 0x4926 <RingPut>
}
    2cb6:	cf 91       	pop	r28
    2cb8:	df 91       	pop	r29
    2cba:	ff 91       	pop	r31
    2cbc:	ef 91       	pop	r30
    2cbe:	bf 91       	pop	r27
    2cc0:	af 91       	pop	r26
    2cc2:	9f 91       	pop	r25
    2cc4:	8f 91       	pop	r24
    2cc6:	7f 91       	pop	r23
    2cc8:	6f 91       	pop	r22
    2cca:	5f 91       	pop	r21
    2ccc:	4f 91       	pop	r20
    2cce:	3f 91       	pop	r19
    2cd0:	2f 91       	pop	r18
    2cd2:	0f 90       	pop	r0
    2cd4:	00 92 5b 00 	sts	0x005B, r0
    2cd8:	0f 90       	pop	r0
    2cda:	0f be       	out	0x3f, r0	; 63
    2cdc:	0f 90       	pop	r0
    2cde:	1f 90       	pop	r1
    2ce0:	18 95       	reti

00002ce2 <MU2_SetTxHandler>:
static unsigned char phase = 0;
static          char rx_buf[MU2_RX_BUF_SIZE];
static unsigned char rx_count;
static unsigned char i;

__inline__ void MU2_SetTxHandler(int (*fp)(unsigned char)){__mu2_tx_char=fp;}
    2ce2:	df 93       	push	r29
    2ce4:	cf 93       	push	r28
    2ce6:	00 d0       	rcall	.+0      	; 0x2ce8 <MU2_SetTxHandler+0x6>
    2ce8:	cd b7       	in	r28, 0x3d	; 61
    2cea:	de b7       	in	r29, 0x3e	; 62
    2cec:	9a 83       	std	Y+2, r25	; 0x02
    2cee:	89 83       	std	Y+1, r24	; 0x01
    2cf0:	89 81       	ldd	r24, Y+1	; 0x01
    2cf2:	9a 81       	ldd	r25, Y+2	; 0x02
    2cf4:	90 93 46 03 	sts	0x0346, r25
    2cf8:	80 93 45 03 	sts	0x0345, r24
    2cfc:	0f 90       	pop	r0
    2cfe:	0f 90       	pop	r0
    2d00:	cf 91       	pop	r28
    2d02:	df 91       	pop	r29
    2d04:	08 95       	ret

00002d06 <MU2_SetRxHandler>:
__inline__ void MU2_SetRxHandler(int (*fp)(unsigned char *)){__mu2_rx_char=fp;}
    2d06:	df 93       	push	r29
    2d08:	cf 93       	push	r28
    2d0a:	00 d0       	rcall	.+0      	; 0x2d0c <MU2_SetRxHandler+0x6>
    2d0c:	cd b7       	in	r28, 0x3d	; 61
    2d0e:	de b7       	in	r29, 0x3e	; 62
    2d10:	9a 83       	std	Y+2, r25	; 0x02
    2d12:	89 83       	std	Y+1, r24	; 0x01
    2d14:	89 81       	ldd	r24, Y+1	; 0x01
    2d16:	9a 81       	ldd	r25, Y+2	; 0x02
    2d18:	90 93 4b 03 	sts	0x034B, r25
    2d1c:	80 93 4a 03 	sts	0x034A, r24
    2d20:	0f 90       	pop	r0
    2d22:	0f 90       	pop	r0
    2d24:	cf 91       	pop	r28
    2d26:	df 91       	pop	r29
    2d28:	08 95       	ret

00002d2a <MU2_TxChar>:
__inline__ int MU2_TxChar(unsigned char c){ return (*__mu2_tx_char)(c);	}
    2d2a:	df 93       	push	r29
    2d2c:	cf 93       	push	r28
    2d2e:	0f 92       	push	r0
    2d30:	cd b7       	in	r28, 0x3d	; 61
    2d32:	de b7       	in	r29, 0x3e	; 62
    2d34:	89 83       	std	Y+1, r24	; 0x01
    2d36:	e0 91 45 03 	lds	r30, 0x0345
    2d3a:	f0 91 46 03 	lds	r31, 0x0346
    2d3e:	89 81       	ldd	r24, Y+1	; 0x01
    2d40:	09 95       	icall
    2d42:	0f 90       	pop	r0
    2d44:	cf 91       	pop	r28
    2d46:	df 91       	pop	r29
    2d48:	08 95       	ret

00002d4a <MU2_RxChar>:
__inline__ int MU2_RxChar(unsigned char *c){ return (*__mu2_rx_char)(c); }
    2d4a:	df 93       	push	r29
    2d4c:	cf 93       	push	r28
    2d4e:	00 d0       	rcall	.+0      	; 0x2d50 <MU2_RxChar+0x6>
    2d50:	cd b7       	in	r28, 0x3d	; 61
    2d52:	de b7       	in	r29, 0x3e	; 62
    2d54:	9a 83       	std	Y+2, r25	; 0x02
    2d56:	89 83       	std	Y+1, r24	; 0x01
    2d58:	e0 91 4a 03 	lds	r30, 0x034A
    2d5c:	f0 91 4b 03 	lds	r31, 0x034B
    2d60:	89 81       	ldd	r24, Y+1	; 0x01
    2d62:	9a 81       	ldd	r25, Y+2	; 0x02
    2d64:	09 95       	icall
    2d66:	0f 90       	pop	r0
    2d68:	0f 90       	pop	r0
    2d6a:	cf 91       	pop	r28
    2d6c:	df 91       	pop	r29
    2d6e:	08 95       	ret

00002d70 <MU2_CheckCommand>:
	return tmp;
}


int MU2_CheckCommand(char *prefix1, char *prefix2)
{
    2d70:	df 93       	push	r29
    2d72:	cf 93       	push	r28
    2d74:	00 d0       	rcall	.+0      	; 0x2d76 <MU2_CheckCommand+0x6>
    2d76:	00 d0       	rcall	.+0      	; 0x2d78 <MU2_CheckCommand+0x8>
    2d78:	00 d0       	rcall	.+0      	; 0x2d7a <MU2_CheckCommand+0xa>
    2d7a:	cd b7       	in	r28, 0x3d	; 61
    2d7c:	de b7       	in	r29, 0x3e	; 62
    2d7e:	9a 83       	std	Y+2, r25	; 0x02
    2d80:	89 83       	std	Y+1, r24	; 0x01
    2d82:	7c 83       	std	Y+4, r23	; 0x04
    2d84:	6b 83       	std	Y+3, r22	; 0x03
	if( (prefix1[0] == prefix2[0]) && (prefix1[1] == prefix2[1]) ){
    2d86:	e9 81       	ldd	r30, Y+1	; 0x01
    2d88:	fa 81       	ldd	r31, Y+2	; 0x02
    2d8a:	90 81       	ld	r25, Z
    2d8c:	eb 81       	ldd	r30, Y+3	; 0x03
    2d8e:	fc 81       	ldd	r31, Y+4	; 0x04
    2d90:	80 81       	ld	r24, Z
    2d92:	98 17       	cp	r25, r24
    2d94:	79 f4       	brne	.+30     	; 0x2db4 <MU2_CheckCommand+0x44>
    2d96:	89 81       	ldd	r24, Y+1	; 0x01
    2d98:	9a 81       	ldd	r25, Y+2	; 0x02
    2d9a:	fc 01       	movw	r30, r24
    2d9c:	31 96       	adiw	r30, 0x01	; 1
    2d9e:	20 81       	ld	r18, Z
    2da0:	8b 81       	ldd	r24, Y+3	; 0x03
    2da2:	9c 81       	ldd	r25, Y+4	; 0x04
    2da4:	fc 01       	movw	r30, r24
    2da6:	31 96       	adiw	r30, 0x01	; 1
    2da8:	80 81       	ld	r24, Z
    2daa:	28 17       	cp	r18, r24
    2dac:	19 f4       	brne	.+6      	; 0x2db4 <MU2_CheckCommand+0x44>
		return 0;
    2dae:	1e 82       	std	Y+6, r1	; 0x06
    2db0:	1d 82       	std	Y+5, r1	; 0x05
    2db2:	04 c0       	rjmp	.+8      	; 0x2dbc <MU2_CheckCommand+0x4c>
	}else{
		return -1;
    2db4:	8f ef       	ldi	r24, 0xFF	; 255
    2db6:	9f ef       	ldi	r25, 0xFF	; 255
    2db8:	9e 83       	std	Y+6, r25	; 0x06
    2dba:	8d 83       	std	Y+5, r24	; 0x05
    2dbc:	8d 81       	ldd	r24, Y+5	; 0x05
    2dbe:	9e 81       	ldd	r25, Y+6	; 0x06
	}
}
    2dc0:	26 96       	adiw	r28, 0x06	; 6
    2dc2:	0f b6       	in	r0, 0x3f	; 63
    2dc4:	f8 94       	cli
    2dc6:	de bf       	out	0x3e, r29	; 62
    2dc8:	0f be       	out	0x3f, r0	; 63
    2dca:	cd bf       	out	0x3d, r28	; 61
    2dcc:	cf 91       	pop	r28
    2dce:	df 91       	pop	r29
    2dd0:	08 95       	ret

00002dd2 <MU2_Command>:


int MU2_Command( char *cmd, char *value, unsigned char value_len )
{
    2dd2:	df 93       	push	r29
    2dd4:	cf 93       	push	r28
    2dd6:	00 d0       	rcall	.+0      	; 0x2dd8 <MU2_Command+0x6>
    2dd8:	00 d0       	rcall	.+0      	; 0x2dda <MU2_Command+0x8>
    2dda:	00 d0       	rcall	.+0      	; 0x2ddc <MU2_Command+0xa>
    2ddc:	cd b7       	in	r28, 0x3d	; 61
    2dde:	de b7       	in	r29, 0x3e	; 62
    2de0:	9a 83       	std	Y+2, r25	; 0x02
    2de2:	89 83       	std	Y+1, r24	; 0x01
    2de4:	7c 83       	std	Y+4, r23	; 0x04
    2de6:	6b 83       	std	Y+3, r22	; 0x03
    2de8:	4d 83       	std	Y+5, r20	; 0x05

	// Prefix
	MU2_TxChar('@');
    2dea:	80 e4       	ldi	r24, 0x40	; 64
    2dec:	0e 94 95 16 	call	0x2d2a	; 0x2d2a <MU2_TxChar>

	// Command Name
	MU2_TxChar( cmd[0] );
    2df0:	e9 81       	ldd	r30, Y+1	; 0x01
    2df2:	fa 81       	ldd	r31, Y+2	; 0x02
    2df4:	80 81       	ld	r24, Z
    2df6:	0e 94 95 16 	call	0x2d2a	; 0x2d2a <MU2_TxChar>
	MU2_TxChar( cmd[1] );
    2dfa:	89 81       	ldd	r24, Y+1	; 0x01
    2dfc:	9a 81       	ldd	r25, Y+2	; 0x02
    2dfe:	fc 01       	movw	r30, r24
    2e00:	31 96       	adiw	r30, 0x01	; 1
    2e02:	80 81       	ld	r24, Z
    2e04:	0e 94 95 16 	call	0x2d2a	; 0x2d2a <MU2_TxChar>
    2e08:	0b c0       	rjmp	.+22     	; 0x2e20 <MU2_Command+0x4e>

	// Value 1
	while( value_len-- )	MU2_TxChar( *value++ );
    2e0a:	eb 81       	ldd	r30, Y+3	; 0x03
    2e0c:	fc 81       	ldd	r31, Y+4	; 0x04
    2e0e:	20 81       	ld	r18, Z
    2e10:	8b 81       	ldd	r24, Y+3	; 0x03
    2e12:	9c 81       	ldd	r25, Y+4	; 0x04
    2e14:	01 96       	adiw	r24, 0x01	; 1
    2e16:	9c 83       	std	Y+4, r25	; 0x04
    2e18:	8b 83       	std	Y+3, r24	; 0x03
    2e1a:	82 2f       	mov	r24, r18
    2e1c:	0e 94 95 16 	call	0x2d2a	; 0x2d2a <MU2_TxChar>
    2e20:	8d 81       	ldd	r24, Y+5	; 0x05
    2e22:	8e 83       	std	Y+6, r24	; 0x06
    2e24:	8e 81       	ldd	r24, Y+6	; 0x06
    2e26:	88 23       	and	r24, r24
    2e28:	11 f0       	breq	.+4      	; 0x2e2e <MU2_Command+0x5c>
    2e2a:	81 e0       	ldi	r24, 0x01	; 1
    2e2c:	8e 83       	std	Y+6, r24	; 0x06
    2e2e:	8e 81       	ldd	r24, Y+6	; 0x06
    2e30:	9d 81       	ldd	r25, Y+5	; 0x05
    2e32:	91 50       	subi	r25, 0x01	; 1
    2e34:	9d 83       	std	Y+5, r25	; 0x05
    2e36:	88 23       	and	r24, r24
    2e38:	41 f7       	brne	.-48     	; 0x2e0a <MU2_Command+0x38>

	// Terminator
	MU2_TxChar('\r');	MU2_TxChar('\n');
    2e3a:	8d e0       	ldi	r24, 0x0D	; 13
    2e3c:	0e 94 95 16 	call	0x2d2a	; 0x2d2a <MU2_TxChar>
    2e40:	8a e0       	ldi	r24, 0x0A	; 10
    2e42:	0e 94 95 16 	call	0x2d2a	; 0x2d2a <MU2_TxChar>

	return 0;
    2e46:	80 e0       	ldi	r24, 0x00	; 0
    2e48:	90 e0       	ldi	r25, 0x00	; 0
}
    2e4a:	26 96       	adiw	r28, 0x06	; 6
    2e4c:	0f b6       	in	r0, 0x3f	; 63
    2e4e:	f8 94       	cli
    2e50:	de bf       	out	0x3e, r29	; 62
    2e52:	0f be       	out	0x3f, r0	; 63
    2e54:	cd bf       	out	0x3d, r28	; 61
    2e56:	cf 91       	pop	r28
    2e58:	df 91       	pop	r29
    2e5a:	08 95       	ret

00002e5c <MU2_Response>:


int MU2_Response(char rx_data,char *prefix, char *value)
{
    2e5c:	df 93       	push	r29
    2e5e:	cf 93       	push	r28
    2e60:	cd b7       	in	r28, 0x3d	; 61
    2e62:	de b7       	in	r29, 0x3e	; 62
    2e64:	29 97       	sbiw	r28, 0x09	; 9
    2e66:	0f b6       	in	r0, 0x3f	; 63
    2e68:	f8 94       	cli
    2e6a:	de bf       	out	0x3e, r29	; 62
    2e6c:	0f be       	out	0x3f, r0	; 63
    2e6e:	cd bf       	out	0x3d, r28	; 61
    2e70:	89 83       	std	Y+1, r24	; 0x01
    2e72:	7b 83       	std	Y+3, r23	; 0x03
    2e74:	6a 83       	std	Y+2, r22	; 0x02
    2e76:	5d 83       	std	Y+5, r21	; 0x05
    2e78:	4c 83       	std	Y+4, r20	; 0x04
    switch(phase){
    2e7a:	80 91 4e 02 	lds	r24, 0x024E
    2e7e:	28 2f       	mov	r18, r24
    2e80:	30 e0       	ldi	r19, 0x00	; 0
    2e82:	39 87       	std	Y+9, r19	; 0x09
    2e84:	28 87       	std	Y+8, r18	; 0x08
    2e86:	88 85       	ldd	r24, Y+8	; 0x08
    2e88:	99 85       	ldd	r25, Y+9	; 0x09
    2e8a:	00 97       	sbiw	r24, 0x00	; 0
    2e8c:	31 f0       	breq	.+12     	; 0x2e9a <MU2_Response+0x3e>
    2e8e:	28 85       	ldd	r18, Y+8	; 0x08
    2e90:	39 85       	ldd	r19, Y+9	; 0x09
    2e92:	21 30       	cpi	r18, 0x01	; 1
    2e94:	31 05       	cpc	r19, r1
    2e96:	59 f0       	breq	.+22     	; 0x2eae <MU2_Response+0x52>
    2e98:	47 c0       	rjmp	.+142    	; 0x2f28 <MU2_Response+0xcc>
        case 0:
            if(rx_data=='*')
    2e9a:	89 81       	ldd	r24, Y+1	; 0x01
    2e9c:	8a 32       	cpi	r24, 0x2A	; 42
    2e9e:	09 f0       	breq	.+2      	; 0x2ea2 <MU2_Response+0x46>
    2ea0:	43 c0       	rjmp	.+134    	; 0x2f28 <MU2_Response+0xcc>
                {
                    rx_count = 0;
    2ea2:	10 92 8f 02 	sts	0x028F, r1
                    phase = 1;
    2ea6:	81 e0       	ldi	r24, 0x01	; 1
    2ea8:	80 93 4e 02 	sts	0x024E, r24
    2eac:	3d c0       	rjmp	.+122    	; 0x2f28 <MU2_Response+0xcc>
                }
            break;
        case 1:
            if( rx_data == '\n' ){
    2eae:	89 81       	ldd	r24, Y+1	; 0x01
    2eb0:	8a 30       	cpi	r24, 0x0A	; 10
    2eb2:	d1 f5       	brne	.+116    	; 0x2f28 <MU2_Response+0xcc>
                if( rx_buf[rx_count-1] == '\r')
    2eb4:	80 91 8f 02 	lds	r24, 0x028F
    2eb8:	88 2f       	mov	r24, r24
    2eba:	90 e0       	ldi	r25, 0x00	; 0
    2ebc:	01 97       	sbiw	r24, 0x01	; 1
    2ebe:	fc 01       	movw	r30, r24
    2ec0:	e1 5b       	subi	r30, 0xB1	; 177
    2ec2:	fd 4f       	sbci	r31, 0xFD	; 253
    2ec4:	80 81       	ld	r24, Z
    2ec6:	8d 30       	cpi	r24, 0x0D	; 13
    2ec8:	79 f5       	brne	.+94     	; 0x2f28 <MU2_Response+0xcc>
                    {
                        for(i=3;i<rx_count-1;i++,value++)
    2eca:	83 e0       	ldi	r24, 0x03	; 3
    2ecc:	80 93 90 02 	sts	0x0290, r24
    2ed0:	15 c0       	rjmp	.+42     	; 0x2efc <MU2_Response+0xa0>
                            {
                                *value = rx_buf[i];
    2ed2:	80 91 90 02 	lds	r24, 0x0290
    2ed6:	88 2f       	mov	r24, r24
    2ed8:	90 e0       	ldi	r25, 0x00	; 0
    2eda:	fc 01       	movw	r30, r24
    2edc:	e1 5b       	subi	r30, 0xB1	; 177
    2ede:	fd 4f       	sbci	r31, 0xFD	; 253
    2ee0:	80 81       	ld	r24, Z
    2ee2:	ec 81       	ldd	r30, Y+4	; 0x04
    2ee4:	fd 81       	ldd	r31, Y+5	; 0x05
    2ee6:	80 83       	st	Z, r24
            break;
        case 1:
            if( rx_data == '\n' ){
                if( rx_buf[rx_count-1] == '\r')
                    {
                        for(i=3;i<rx_count-1;i++,value++)
    2ee8:	80 91 90 02 	lds	r24, 0x0290
    2eec:	8f 5f       	subi	r24, 0xFF	; 255
    2eee:	80 93 90 02 	sts	0x0290, r24
    2ef2:	8c 81       	ldd	r24, Y+4	; 0x04
    2ef4:	9d 81       	ldd	r25, Y+5	; 0x05
    2ef6:	01 96       	adiw	r24, 0x01	; 1
    2ef8:	9d 83       	std	Y+5, r25	; 0x05
    2efa:	8c 83       	std	Y+4, r24	; 0x04
    2efc:	80 91 90 02 	lds	r24, 0x0290
    2f00:	28 2f       	mov	r18, r24
    2f02:	30 e0       	ldi	r19, 0x00	; 0
    2f04:	80 91 8f 02 	lds	r24, 0x028F
    2f08:	88 2f       	mov	r24, r24
    2f0a:	90 e0       	ldi	r25, 0x00	; 0
    2f0c:	01 97       	sbiw	r24, 0x01	; 1
    2f0e:	28 17       	cp	r18, r24
    2f10:	39 07       	cpc	r19, r25
    2f12:	fc f2       	brlt	.-66     	; 0x2ed2 <MU2_Response+0x76>
                            {
                                *value = rx_buf[i];
                            }
                        *value = '\0';
    2f14:	ec 81       	ldd	r30, Y+4	; 0x04
    2f16:	fd 81       	ldd	r31, Y+5	; 0x05
    2f18:	10 82       	st	Z, r1
                        phase = 0;
    2f1a:	10 92 4e 02 	sts	0x024E, r1
                        return 1;
    2f1e:	81 e0       	ldi	r24, 0x01	; 1
    2f20:	90 e0       	ldi	r25, 0x00	; 0
    2f22:	9f 83       	std	Y+7, r25	; 0x07
    2f24:	8e 83       	std	Y+6, r24	; 0x06
    2f26:	0f c0       	rjmp	.+30     	; 0x2f46 <MU2_Response+0xea>
                    }
            }
            break;
    }

    rx_buf[rx_count++] = rx_data;
    2f28:	20 91 8f 02 	lds	r18, 0x028F
    2f2c:	82 2f       	mov	r24, r18
    2f2e:	90 e0       	ldi	r25, 0x00	; 0
    2f30:	fc 01       	movw	r30, r24
    2f32:	e1 5b       	subi	r30, 0xB1	; 177
    2f34:	fd 4f       	sbci	r31, 0xFD	; 253
    2f36:	89 81       	ldd	r24, Y+1	; 0x01
    2f38:	80 83       	st	Z, r24
    2f3a:	82 2f       	mov	r24, r18
    2f3c:	8f 5f       	subi	r24, 0xFF	; 255
    2f3e:	80 93 8f 02 	sts	0x028F, r24

    return 0;
    2f42:	1f 82       	std	Y+7, r1	; 0x07
    2f44:	1e 82       	std	Y+6, r1	; 0x06
    2f46:	8e 81       	ldd	r24, Y+6	; 0x06
    2f48:	9f 81       	ldd	r25, Y+7	; 0x07
}
    2f4a:	29 96       	adiw	r28, 0x09	; 9
    2f4c:	0f b6       	in	r0, 0x3f	; 63
    2f4e:	f8 94       	cli
    2f50:	de bf       	out	0x3e, r29	; 62
    2f52:	0f be       	out	0x3f, r0	; 63
    2f54:	cd bf       	out	0x3d, r28	; 61
    2f56:	cf 91       	pop	r28
    2f58:	df 91       	pop	r29
    2f5a:	08 95       	ret

00002f5c <MU2_SendData>:

int MU2_SendData(unsigned char *data, unsigned char len)
{
    2f5c:	0f 93       	push	r16
    2f5e:	1f 93       	push	r17
    2f60:	df 93       	push	r29
    2f62:	cf 93       	push	r28
    2f64:	cd b7       	in	r28, 0x3d	; 61
    2f66:	de b7       	in	r29, 0x3e	; 62
    2f68:	c7 57       	subi	r28, 0x77	; 119
    2f6a:	d0 40       	sbci	r29, 0x00	; 0
    2f6c:	0f b6       	in	r0, 0x3f	; 63
    2f6e:	f8 94       	cli
    2f70:	de bf       	out	0x3e, r29	; 62
    2f72:	0f be       	out	0x3f, r0	; 63
    2f74:	cd bf       	out	0x3d, r28	; 61
    2f76:	fe 01       	movw	r30, r28
    2f78:	ec 58       	subi	r30, 0x8C	; 140
    2f7a:	ff 4f       	sbci	r31, 0xFF	; 255
    2f7c:	91 83       	std	Z+1, r25	; 0x01
    2f7e:	80 83       	st	Z, r24
    2f80:	fe 01       	movw	r30, r28
    2f82:	ea 58       	subi	r30, 0x8A	; 138
    2f84:	ff 4f       	sbci	r31, 0xFF	; 255
    2f86:	60 83       	st	Z, r22
	char size[3];

	// Prefix
	MU2_TxChar('@');_delay_ms(SENDTIME);
    2f88:	80 e4       	ldi	r24, 0x40	; 64
    2f8a:	0e 94 95 16 	call	0x2d2a	; 0x2d2a <MU2_TxChar>
    2f8e:	fe 01       	movw	r30, r28
    2f90:	e3 59       	subi	r30, 0x93	; 147
    2f92:	ff 4f       	sbci	r31, 0xFF	; 255
    2f94:	80 e0       	ldi	r24, 0x00	; 0
    2f96:	90 e0       	ldi	r25, 0x00	; 0
    2f98:	a0 ea       	ldi	r26, 0xA0	; 160
    2f9a:	b0 e4       	ldi	r27, 0x40	; 64
    2f9c:	80 83       	st	Z, r24
    2f9e:	91 83       	std	Z+1, r25	; 0x01
    2fa0:	a2 83       	std	Z+2, r26	; 0x02
    2fa2:	b3 83       	std	Z+3, r27	; 0x03
 */
void
_delay_ms(double __ms)
{
	uint16_t __ticks;
	double __tmp = ((F_CPU) / 4e3) * __ms;
    2fa4:	8e 01       	movw	r16, r28
    2fa6:	07 59       	subi	r16, 0x97	; 151
    2fa8:	1f 4f       	sbci	r17, 0xFF	; 255
    2faa:	fe 01       	movw	r30, r28
    2fac:	e3 59       	subi	r30, 0x93	; 147
    2fae:	ff 4f       	sbci	r31, 0xFF	; 255
    2fb0:	60 81       	ld	r22, Z
    2fb2:	71 81       	ldd	r23, Z+1	; 0x01
    2fb4:	82 81       	ldd	r24, Z+2	; 0x02
    2fb6:	93 81       	ldd	r25, Z+3	; 0x03
    2fb8:	20 e0       	ldi	r18, 0x00	; 0
    2fba:	30 e0       	ldi	r19, 0x00	; 0
    2fbc:	4a e7       	ldi	r20, 0x7A	; 122
    2fbe:	53 e4       	ldi	r21, 0x43	; 67
    2fc0:	0e 94 28 27 	call	0x4e50	; 0x4e50 <__mulsf3>
    2fc4:	dc 01       	movw	r26, r24
    2fc6:	cb 01       	movw	r24, r22
    2fc8:	f8 01       	movw	r30, r16
    2fca:	80 83       	st	Z, r24
    2fcc:	91 83       	std	Z+1, r25	; 0x01
    2fce:	a2 83       	std	Z+2, r26	; 0x02
    2fd0:	b3 83       	std	Z+3, r27	; 0x03
	if (__tmp < 1.0)
    2fd2:	fe 01       	movw	r30, r28
    2fd4:	e7 59       	subi	r30, 0x97	; 151
    2fd6:	ff 4f       	sbci	r31, 0xFF	; 255
    2fd8:	60 81       	ld	r22, Z
    2fda:	71 81       	ldd	r23, Z+1	; 0x01
    2fdc:	82 81       	ldd	r24, Z+2	; 0x02
    2fde:	93 81       	ldd	r25, Z+3	; 0x03
    2fe0:	20 e0       	ldi	r18, 0x00	; 0
    2fe2:	30 e0       	ldi	r19, 0x00	; 0
    2fe4:	40 e8       	ldi	r20, 0x80	; 128
    2fe6:	5f e3       	ldi	r21, 0x3F	; 63
    2fe8:	0e 94 82 28 	call	0x5104	; 0x5104 <__ltsf2>
    2fec:	88 23       	and	r24, r24
    2fee:	44 f4       	brge	.+16     	; 0x3000 <MU2_SendData+0xa4>
		__ticks = 1;
    2ff0:	fe 01       	movw	r30, r28
    2ff2:	e9 59       	subi	r30, 0x99	; 153
    2ff4:	ff 4f       	sbci	r31, 0xFF	; 255
    2ff6:	81 e0       	ldi	r24, 0x01	; 1
    2ff8:	90 e0       	ldi	r25, 0x00	; 0
    2ffa:	91 83       	std	Z+1, r25	; 0x01
    2ffc:	80 83       	st	Z, r24
    2ffe:	64 c0       	rjmp	.+200    	; 0x30c8 <MU2_SendData+0x16c>
	else if (__tmp > 65535)
    3000:	fe 01       	movw	r30, r28
    3002:	e7 59       	subi	r30, 0x97	; 151
    3004:	ff 4f       	sbci	r31, 0xFF	; 255
    3006:	60 81       	ld	r22, Z
    3008:	71 81       	ldd	r23, Z+1	; 0x01
    300a:	82 81       	ldd	r24, Z+2	; 0x02
    300c:	93 81       	ldd	r25, Z+3	; 0x03
    300e:	20 e0       	ldi	r18, 0x00	; 0
    3010:	3f ef       	ldi	r19, 0xFF	; 255
    3012:	4f e7       	ldi	r20, 0x7F	; 127
    3014:	57 e4       	ldi	r21, 0x47	; 71
    3016:	0e 94 22 28 	call	0x5044	; 0x5044 <__gtsf2>
    301a:	18 16       	cp	r1, r24
    301c:	0c f0       	brlt	.+2      	; 0x3020 <MU2_SendData+0xc4>
    301e:	43 c0       	rjmp	.+134    	; 0x30a6 <MU2_SendData+0x14a>
	{
		//	__ticks = requested delay in 1/10 ms
		__ticks = (uint16_t) (__ms * 10.0);
    3020:	fe 01       	movw	r30, r28
    3022:	e3 59       	subi	r30, 0x93	; 147
    3024:	ff 4f       	sbci	r31, 0xFF	; 255
    3026:	60 81       	ld	r22, Z
    3028:	71 81       	ldd	r23, Z+1	; 0x01
    302a:	82 81       	ldd	r24, Z+2	; 0x02
    302c:	93 81       	ldd	r25, Z+3	; 0x03
    302e:	20 e0       	ldi	r18, 0x00	; 0
    3030:	30 e0       	ldi	r19, 0x00	; 0
    3032:	40 e2       	ldi	r20, 0x20	; 32
    3034:	51 e4       	ldi	r21, 0x41	; 65
    3036:	0e 94 28 27 	call	0x4e50	; 0x4e50 <__mulsf3>
    303a:	dc 01       	movw	r26, r24
    303c:	cb 01       	movw	r24, r22
    303e:	8e 01       	movw	r16, r28
    3040:	09 59       	subi	r16, 0x99	; 153
    3042:	1f 4f       	sbci	r17, 0xFF	; 255
    3044:	bc 01       	movw	r22, r24
    3046:	cd 01       	movw	r24, r26
    3048:	0e 94 52 25 	call	0x4aa4	; 0x4aa4 <__fixunssfsi>
    304c:	dc 01       	movw	r26, r24
    304e:	cb 01       	movw	r24, r22
    3050:	f8 01       	movw	r30, r16
    3052:	91 83       	std	Z+1, r25	; 0x01
    3054:	80 83       	st	Z, r24
    3056:	1f c0       	rjmp	.+62     	; 0x3096 <MU2_SendData+0x13a>
    3058:	fe 01       	movw	r30, r28
    305a:	eb 59       	subi	r30, 0x9B	; 155
    305c:	ff 4f       	sbci	r31, 0xFF	; 255
    305e:	89 e1       	ldi	r24, 0x19	; 25
    3060:	90 e0       	ldi	r25, 0x00	; 0
    3062:	91 83       	std	Z+1, r25	; 0x01
    3064:	80 83       	st	Z, r24
    3066:	fe 01       	movw	r30, r28
    3068:	eb 59       	subi	r30, 0x9B	; 155
    306a:	ff 4f       	sbci	r31, 0xFF	; 255
    306c:	80 81       	ld	r24, Z
    306e:	91 81       	ldd	r25, Z+1	; 0x01
    3070:	01 97       	sbiw	r24, 0x01	; 1
    3072:	f1 f7       	brne	.-4      	; 0x3070 <MU2_SendData+0x114>
    3074:	fe 01       	movw	r30, r28
    3076:	eb 59       	subi	r30, 0x9B	; 155
    3078:	ff 4f       	sbci	r31, 0xFF	; 255
    307a:	91 83       	std	Z+1, r25	; 0x01
    307c:	80 83       	st	Z, r24
		while(__ticks)
		{
			// wait 1/10 ms
			_delay_loop_2(((F_CPU) / 4e3) / 10);
			__ticks --;
    307e:	de 01       	movw	r26, r28
    3080:	a9 59       	subi	r26, 0x99	; 153
    3082:	bf 4f       	sbci	r27, 0xFF	; 255
    3084:	fe 01       	movw	r30, r28
    3086:	e9 59       	subi	r30, 0x99	; 153
    3088:	ff 4f       	sbci	r31, 0xFF	; 255
    308a:	80 81       	ld	r24, Z
    308c:	91 81       	ldd	r25, Z+1	; 0x01
    308e:	01 97       	sbiw	r24, 0x01	; 1
    3090:	11 96       	adiw	r26, 0x01	; 1
    3092:	9c 93       	st	X, r25
    3094:	8e 93       	st	-X, r24
		__ticks = 1;
	else if (__tmp > 65535)
	{
		//	__ticks = requested delay in 1/10 ms
		__ticks = (uint16_t) (__ms * 10.0);
		while(__ticks)
    3096:	fe 01       	movw	r30, r28
    3098:	e9 59       	subi	r30, 0x99	; 153
    309a:	ff 4f       	sbci	r31, 0xFF	; 255
    309c:	80 81       	ld	r24, Z
    309e:	91 81       	ldd	r25, Z+1	; 0x01
    30a0:	00 97       	sbiw	r24, 0x00	; 0
    30a2:	d1 f6       	brne	.-76     	; 0x3058 <MU2_SendData+0xfc>
    30a4:	27 c0       	rjmp	.+78     	; 0x30f4 <MU2_SendData+0x198>
			__ticks --;
		}
		return;
	}
	else
		__ticks = (uint16_t)__tmp;
    30a6:	8e 01       	movw	r16, r28
    30a8:	09 59       	subi	r16, 0x99	; 153
    30aa:	1f 4f       	sbci	r17, 0xFF	; 255
    30ac:	fe 01       	movw	r30, r28
    30ae:	e7 59       	subi	r30, 0x97	; 151
    30b0:	ff 4f       	sbci	r31, 0xFF	; 255
    30b2:	60 81       	ld	r22, Z
    30b4:	71 81       	ldd	r23, Z+1	; 0x01
    30b6:	82 81       	ldd	r24, Z+2	; 0x02
    30b8:	93 81       	ldd	r25, Z+3	; 0x03
    30ba:	0e 94 52 25 	call	0x4aa4	; 0x4aa4 <__fixunssfsi>
    30be:	dc 01       	movw	r26, r24
    30c0:	cb 01       	movw	r24, r22
    30c2:	f8 01       	movw	r30, r16
    30c4:	91 83       	std	Z+1, r25	; 0x01
    30c6:	80 83       	st	Z, r24
    30c8:	de 01       	movw	r26, r28
    30ca:	ad 59       	subi	r26, 0x9D	; 157
    30cc:	bf 4f       	sbci	r27, 0xFF	; 255
    30ce:	fe 01       	movw	r30, r28
    30d0:	e9 59       	subi	r30, 0x99	; 153
    30d2:	ff 4f       	sbci	r31, 0xFF	; 255
    30d4:	80 81       	ld	r24, Z
    30d6:	91 81       	ldd	r25, Z+1	; 0x01
    30d8:	8d 93       	st	X+, r24
    30da:	9c 93       	st	X, r25
    30dc:	fe 01       	movw	r30, r28
    30de:	ed 59       	subi	r30, 0x9D	; 157
    30e0:	ff 4f       	sbci	r31, 0xFF	; 255
    30e2:	80 81       	ld	r24, Z
    30e4:	91 81       	ldd	r25, Z+1	; 0x01
    30e6:	01 97       	sbiw	r24, 0x01	; 1
    30e8:	f1 f7       	brne	.-4      	; 0x30e6 <MU2_SendData+0x18a>
    30ea:	fe 01       	movw	r30, r28
    30ec:	ed 59       	subi	r30, 0x9D	; 157
    30ee:	ff 4f       	sbci	r31, 0xFF	; 255
    30f0:	91 83       	std	Z+1, r25	; 0x01
    30f2:	80 83       	st	Z, r24
	// Command Name
	MU2_TxChar('D');	MU2_TxChar('T');_delay_ms(SENDTIME);
    30f4:	84 e4       	ldi	r24, 0x44	; 68
    30f6:	0e 94 95 16 	call	0x2d2a	; 0x2d2a <MU2_TxChar>
    30fa:	84 e5       	ldi	r24, 0x54	; 84
    30fc:	0e 94 95 16 	call	0x2d2a	; 0x2d2a <MU2_TxChar>
    3100:	fe 01       	movw	r30, r28
    3102:	e1 5a       	subi	r30, 0xA1	; 161
    3104:	ff 4f       	sbci	r31, 0xFF	; 255
    3106:	80 e0       	ldi	r24, 0x00	; 0
    3108:	90 e0       	ldi	r25, 0x00	; 0
    310a:	a0 ea       	ldi	r26, 0xA0	; 160
    310c:	b0 e4       	ldi	r27, 0x40	; 64
    310e:	80 83       	st	Z, r24
    3110:	91 83       	std	Z+1, r25	; 0x01
    3112:	a2 83       	std	Z+2, r26	; 0x02
    3114:	b3 83       	std	Z+3, r27	; 0x03
 */
void
_delay_ms(double __ms)
{
	uint16_t __ticks;
	double __tmp = ((F_CPU) / 4e3) * __ms;
    3116:	8e 01       	movw	r16, r28
    3118:	05 5a       	subi	r16, 0xA5	; 165
    311a:	1f 4f       	sbci	r17, 0xFF	; 255
    311c:	fe 01       	movw	r30, r28
    311e:	e1 5a       	subi	r30, 0xA1	; 161
    3120:	ff 4f       	sbci	r31, 0xFF	; 255
    3122:	60 81       	ld	r22, Z
    3124:	71 81       	ldd	r23, Z+1	; 0x01
    3126:	82 81       	ldd	r24, Z+2	; 0x02
    3128:	93 81       	ldd	r25, Z+3	; 0x03
    312a:	20 e0       	ldi	r18, 0x00	; 0
    312c:	30 e0       	ldi	r19, 0x00	; 0
    312e:	4a e7       	ldi	r20, 0x7A	; 122
    3130:	53 e4       	ldi	r21, 0x43	; 67
    3132:	0e 94 28 27 	call	0x4e50	; 0x4e50 <__mulsf3>
    3136:	dc 01       	movw	r26, r24
    3138:	cb 01       	movw	r24, r22
    313a:	f8 01       	movw	r30, r16
    313c:	80 83       	st	Z, r24
    313e:	91 83       	std	Z+1, r25	; 0x01
    3140:	a2 83       	std	Z+2, r26	; 0x02
    3142:	b3 83       	std	Z+3, r27	; 0x03
	if (__tmp < 1.0)
    3144:	fe 01       	movw	r30, r28
    3146:	e5 5a       	subi	r30, 0xA5	; 165
    3148:	ff 4f       	sbci	r31, 0xFF	; 255
    314a:	60 81       	ld	r22, Z
    314c:	71 81       	ldd	r23, Z+1	; 0x01
    314e:	82 81       	ldd	r24, Z+2	; 0x02
    3150:	93 81       	ldd	r25, Z+3	; 0x03
    3152:	20 e0       	ldi	r18, 0x00	; 0
    3154:	30 e0       	ldi	r19, 0x00	; 0
    3156:	40 e8       	ldi	r20, 0x80	; 128
    3158:	5f e3       	ldi	r21, 0x3F	; 63
    315a:	0e 94 82 28 	call	0x5104	; 0x5104 <__ltsf2>
    315e:	88 23       	and	r24, r24
    3160:	44 f4       	brge	.+16     	; 0x3172 <MU2_SendData+0x216>
		__ticks = 1;
    3162:	fe 01       	movw	r30, r28
    3164:	e7 5a       	subi	r30, 0xA7	; 167
    3166:	ff 4f       	sbci	r31, 0xFF	; 255
    3168:	81 e0       	ldi	r24, 0x01	; 1
    316a:	90 e0       	ldi	r25, 0x00	; 0
    316c:	91 83       	std	Z+1, r25	; 0x01
    316e:	80 83       	st	Z, r24
    3170:	64 c0       	rjmp	.+200    	; 0x323a <MU2_SendData+0x2de>
	else if (__tmp > 65535)
    3172:	fe 01       	movw	r30, r28
    3174:	e5 5a       	subi	r30, 0xA5	; 165
    3176:	ff 4f       	sbci	r31, 0xFF	; 255
    3178:	60 81       	ld	r22, Z
    317a:	71 81       	ldd	r23, Z+1	; 0x01
    317c:	82 81       	ldd	r24, Z+2	; 0x02
    317e:	93 81       	ldd	r25, Z+3	; 0x03
    3180:	20 e0       	ldi	r18, 0x00	; 0
    3182:	3f ef       	ldi	r19, 0xFF	; 255
    3184:	4f e7       	ldi	r20, 0x7F	; 127
    3186:	57 e4       	ldi	r21, 0x47	; 71
    3188:	0e 94 22 28 	call	0x5044	; 0x5044 <__gtsf2>
    318c:	18 16       	cp	r1, r24
    318e:	0c f0       	brlt	.+2      	; 0x3192 <MU2_SendData+0x236>
    3190:	43 c0       	rjmp	.+134    	; 0x3218 <MU2_SendData+0x2bc>
	{
		//	__ticks = requested delay in 1/10 ms
		__ticks = (uint16_t) (__ms * 10.0);
    3192:	fe 01       	movw	r30, r28
    3194:	e1 5a       	subi	r30, 0xA1	; 161
    3196:	ff 4f       	sbci	r31, 0xFF	; 255
    3198:	60 81       	ld	r22, Z
    319a:	71 81       	ldd	r23, Z+1	; 0x01
    319c:	82 81       	ldd	r24, Z+2	; 0x02
    319e:	93 81       	ldd	r25, Z+3	; 0x03
    31a0:	20 e0       	ldi	r18, 0x00	; 0
    31a2:	30 e0       	ldi	r19, 0x00	; 0
    31a4:	40 e2       	ldi	r20, 0x20	; 32
    31a6:	51 e4       	ldi	r21, 0x41	; 65
    31a8:	0e 94 28 27 	call	0x4e50	; 0x4e50 <__mulsf3>
    31ac:	dc 01       	movw	r26, r24
    31ae:	cb 01       	movw	r24, r22
    31b0:	8e 01       	movw	r16, r28
    31b2:	07 5a       	subi	r16, 0xA7	; 167
    31b4:	1f 4f       	sbci	r17, 0xFF	; 255
    31b6:	bc 01       	movw	r22, r24
    31b8:	cd 01       	movw	r24, r26
    31ba:	0e 94 52 25 	call	0x4aa4	; 0x4aa4 <__fixunssfsi>
    31be:	dc 01       	movw	r26, r24
    31c0:	cb 01       	movw	r24, r22
    31c2:	f8 01       	movw	r30, r16
    31c4:	91 83       	std	Z+1, r25	; 0x01
    31c6:	80 83       	st	Z, r24
    31c8:	1f c0       	rjmp	.+62     	; 0x3208 <MU2_SendData+0x2ac>
    31ca:	fe 01       	movw	r30, r28
    31cc:	e9 5a       	subi	r30, 0xA9	; 169
    31ce:	ff 4f       	sbci	r31, 0xFF	; 255
    31d0:	89 e1       	ldi	r24, 0x19	; 25
    31d2:	90 e0       	ldi	r25, 0x00	; 0
    31d4:	91 83       	std	Z+1, r25	; 0x01
    31d6:	80 83       	st	Z, r24
    31d8:	fe 01       	movw	r30, r28
    31da:	e9 5a       	subi	r30, 0xA9	; 169
    31dc:	ff 4f       	sbci	r31, 0xFF	; 255
    31de:	80 81       	ld	r24, Z
    31e0:	91 81       	ldd	r25, Z+1	; 0x01
    31e2:	01 97       	sbiw	r24, 0x01	; 1
    31e4:	f1 f7       	brne	.-4      	; 0x31e2 <MU2_SendData+0x286>
    31e6:	fe 01       	movw	r30, r28
    31e8:	e9 5a       	subi	r30, 0xA9	; 169
    31ea:	ff 4f       	sbci	r31, 0xFF	; 255
    31ec:	91 83       	std	Z+1, r25	; 0x01
    31ee:	80 83       	st	Z, r24
		while(__ticks)
		{
			// wait 1/10 ms
			_delay_loop_2(((F_CPU) / 4e3) / 10);
			__ticks --;
    31f0:	de 01       	movw	r26, r28
    31f2:	a7 5a       	subi	r26, 0xA7	; 167
    31f4:	bf 4f       	sbci	r27, 0xFF	; 255
    31f6:	fe 01       	movw	r30, r28
    31f8:	e7 5a       	subi	r30, 0xA7	; 167
    31fa:	ff 4f       	sbci	r31, 0xFF	; 255
    31fc:	80 81       	ld	r24, Z
    31fe:	91 81       	ldd	r25, Z+1	; 0x01
    3200:	01 97       	sbiw	r24, 0x01	; 1
    3202:	11 96       	adiw	r26, 0x01	; 1
    3204:	9c 93       	st	X, r25
    3206:	8e 93       	st	-X, r24
		__ticks = 1;
	else if (__tmp > 65535)
	{
		//	__ticks = requested delay in 1/10 ms
		__ticks = (uint16_t) (__ms * 10.0);
		while(__ticks)
    3208:	fe 01       	movw	r30, r28
    320a:	e7 5a       	subi	r30, 0xA7	; 167
    320c:	ff 4f       	sbci	r31, 0xFF	; 255
    320e:	80 81       	ld	r24, Z
    3210:	91 81       	ldd	r25, Z+1	; 0x01
    3212:	00 97       	sbiw	r24, 0x00	; 0
    3214:	d1 f6       	brne	.-76     	; 0x31ca <MU2_SendData+0x26e>
    3216:	27 c0       	rjmp	.+78     	; 0x3266 <MU2_SendData+0x30a>
			__ticks --;
		}
		return;
	}
	else
		__ticks = (uint16_t)__tmp;
    3218:	8e 01       	movw	r16, r28
    321a:	07 5a       	subi	r16, 0xA7	; 167
    321c:	1f 4f       	sbci	r17, 0xFF	; 255
    321e:	fe 01       	movw	r30, r28
    3220:	e5 5a       	subi	r30, 0xA5	; 165
    3222:	ff 4f       	sbci	r31, 0xFF	; 255
    3224:	60 81       	ld	r22, Z
    3226:	71 81       	ldd	r23, Z+1	; 0x01
    3228:	82 81       	ldd	r24, Z+2	; 0x02
    322a:	93 81       	ldd	r25, Z+3	; 0x03
    322c:	0e 94 52 25 	call	0x4aa4	; 0x4aa4 <__fixunssfsi>
    3230:	dc 01       	movw	r26, r24
    3232:	cb 01       	movw	r24, r22
    3234:	f8 01       	movw	r30, r16
    3236:	91 83       	std	Z+1, r25	; 0x01
    3238:	80 83       	st	Z, r24
    323a:	de 01       	movw	r26, r28
    323c:	ab 5a       	subi	r26, 0xAB	; 171
    323e:	bf 4f       	sbci	r27, 0xFF	; 255
    3240:	fe 01       	movw	r30, r28
    3242:	e7 5a       	subi	r30, 0xA7	; 167
    3244:	ff 4f       	sbci	r31, 0xFF	; 255
    3246:	80 81       	ld	r24, Z
    3248:	91 81       	ldd	r25, Z+1	; 0x01
    324a:	8d 93       	st	X+, r24
    324c:	9c 93       	st	X, r25
    324e:	fe 01       	movw	r30, r28
    3250:	eb 5a       	subi	r30, 0xAB	; 171
    3252:	ff 4f       	sbci	r31, 0xFF	; 255
    3254:	80 81       	ld	r24, Z
    3256:	91 81       	ldd	r25, Z+1	; 0x01
    3258:	01 97       	sbiw	r24, 0x01	; 1
    325a:	f1 f7       	brne	.-4      	; 0x3258 <MU2_SendData+0x2fc>
    325c:	fe 01       	movw	r30, r28
    325e:	eb 5a       	subi	r30, 0xAB	; 171
    3260:	ff 4f       	sbci	r31, 0xFF	; 255
    3262:	91 83       	std	Z+1, r25	; 0x01
    3264:	80 83       	st	Z, r24

	// Data Size
	Byte2Str(len, size);_delay_ms(SENDTIME);
    3266:	fe 01       	movw	r30, r28
    3268:	ea 58       	subi	r30, 0x8A	; 138
    326a:	ff 4f       	sbci	r31, 0xFF	; 255
    326c:	9e 01       	movw	r18, r28
    326e:	2f 58       	subi	r18, 0x8F	; 143
    3270:	3f 4f       	sbci	r19, 0xFF	; 255
    3272:	80 81       	ld	r24, Z
    3274:	b9 01       	movw	r22, r18
    3276:	0e 94 91 1c 	call	0x3922	; 0x3922 <Byte2Str>
    327a:	fe 01       	movw	r30, r28
    327c:	ef 5a       	subi	r30, 0xAF	; 175
    327e:	ff 4f       	sbci	r31, 0xFF	; 255
    3280:	80 e0       	ldi	r24, 0x00	; 0
    3282:	90 e0       	ldi	r25, 0x00	; 0
    3284:	a0 ea       	ldi	r26, 0xA0	; 160
    3286:	b0 e4       	ldi	r27, 0x40	; 64
    3288:	80 83       	st	Z, r24
    328a:	91 83       	std	Z+1, r25	; 0x01
    328c:	a2 83       	std	Z+2, r26	; 0x02
    328e:	b3 83       	std	Z+3, r27	; 0x03
 */
void
_delay_ms(double __ms)
{
	uint16_t __ticks;
	double __tmp = ((F_CPU) / 4e3) * __ms;
    3290:	8e 01       	movw	r16, r28
    3292:	03 5b       	subi	r16, 0xB3	; 179
    3294:	1f 4f       	sbci	r17, 0xFF	; 255
    3296:	fe 01       	movw	r30, r28
    3298:	ef 5a       	subi	r30, 0xAF	; 175
    329a:	ff 4f       	sbci	r31, 0xFF	; 255
    329c:	60 81       	ld	r22, Z
    329e:	71 81       	ldd	r23, Z+1	; 0x01
    32a0:	82 81       	ldd	r24, Z+2	; 0x02
    32a2:	93 81       	ldd	r25, Z+3	; 0x03
    32a4:	20 e0       	ldi	r18, 0x00	; 0
    32a6:	30 e0       	ldi	r19, 0x00	; 0
    32a8:	4a e7       	ldi	r20, 0x7A	; 122
    32aa:	53 e4       	ldi	r21, 0x43	; 67
    32ac:	0e 94 28 27 	call	0x4e50	; 0x4e50 <__mulsf3>
    32b0:	dc 01       	movw	r26, r24
    32b2:	cb 01       	movw	r24, r22
    32b4:	f8 01       	movw	r30, r16
    32b6:	80 83       	st	Z, r24
    32b8:	91 83       	std	Z+1, r25	; 0x01
    32ba:	a2 83       	std	Z+2, r26	; 0x02
    32bc:	b3 83       	std	Z+3, r27	; 0x03
	if (__tmp < 1.0)
    32be:	fe 01       	movw	r30, r28
    32c0:	e3 5b       	subi	r30, 0xB3	; 179
    32c2:	ff 4f       	sbci	r31, 0xFF	; 255
    32c4:	60 81       	ld	r22, Z
    32c6:	71 81       	ldd	r23, Z+1	; 0x01
    32c8:	82 81       	ldd	r24, Z+2	; 0x02
    32ca:	93 81       	ldd	r25, Z+3	; 0x03
    32cc:	20 e0       	ldi	r18, 0x00	; 0
    32ce:	30 e0       	ldi	r19, 0x00	; 0
    32d0:	40 e8       	ldi	r20, 0x80	; 128
    32d2:	5f e3       	ldi	r21, 0x3F	; 63
    32d4:	0e 94 82 28 	call	0x5104	; 0x5104 <__ltsf2>
    32d8:	88 23       	and	r24, r24
    32da:	44 f4       	brge	.+16     	; 0x32ec <MU2_SendData+0x390>
		__ticks = 1;
    32dc:	fe 01       	movw	r30, r28
    32de:	e5 5b       	subi	r30, 0xB5	; 181
    32e0:	ff 4f       	sbci	r31, 0xFF	; 255
    32e2:	81 e0       	ldi	r24, 0x01	; 1
    32e4:	90 e0       	ldi	r25, 0x00	; 0
    32e6:	91 83       	std	Z+1, r25	; 0x01
    32e8:	80 83       	st	Z, r24
    32ea:	64 c0       	rjmp	.+200    	; 0x33b4 <MU2_SendData+0x458>
	else if (__tmp > 65535)
    32ec:	fe 01       	movw	r30, r28
    32ee:	e3 5b       	subi	r30, 0xB3	; 179
    32f0:	ff 4f       	sbci	r31, 0xFF	; 255
    32f2:	60 81       	ld	r22, Z
    32f4:	71 81       	ldd	r23, Z+1	; 0x01
    32f6:	82 81       	ldd	r24, Z+2	; 0x02
    32f8:	93 81       	ldd	r25, Z+3	; 0x03
    32fa:	20 e0       	ldi	r18, 0x00	; 0
    32fc:	3f ef       	ldi	r19, 0xFF	; 255
    32fe:	4f e7       	ldi	r20, 0x7F	; 127
    3300:	57 e4       	ldi	r21, 0x47	; 71
    3302:	0e 94 22 28 	call	0x5044	; 0x5044 <__gtsf2>
    3306:	18 16       	cp	r1, r24
    3308:	0c f0       	brlt	.+2      	; 0x330c <MU2_SendData+0x3b0>
    330a:	43 c0       	rjmp	.+134    	; 0x3392 <MU2_SendData+0x436>
	{
		//	__ticks = requested delay in 1/10 ms
		__ticks = (uint16_t) (__ms * 10.0);
    330c:	fe 01       	movw	r30, r28
    330e:	ef 5a       	subi	r30, 0xAF	; 175
    3310:	ff 4f       	sbci	r31, 0xFF	; 255
    3312:	60 81       	ld	r22, Z
    3314:	71 81       	ldd	r23, Z+1	; 0x01
    3316:	82 81       	ldd	r24, Z+2	; 0x02
    3318:	93 81       	ldd	r25, Z+3	; 0x03
    331a:	20 e0       	ldi	r18, 0x00	; 0
    331c:	30 e0       	ldi	r19, 0x00	; 0
    331e:	40 e2       	ldi	r20, 0x20	; 32
    3320:	51 e4       	ldi	r21, 0x41	; 65
    3322:	0e 94 28 27 	call	0x4e50	; 0x4e50 <__mulsf3>
    3326:	dc 01       	movw	r26, r24
    3328:	cb 01       	movw	r24, r22
    332a:	8e 01       	movw	r16, r28
    332c:	05 5b       	subi	r16, 0xB5	; 181
    332e:	1f 4f       	sbci	r17, 0xFF	; 255
    3330:	bc 01       	movw	r22, r24
    3332:	cd 01       	movw	r24, r26
    3334:	0e 94 52 25 	call	0x4aa4	; 0x4aa4 <__fixunssfsi>
    3338:	dc 01       	movw	r26, r24
    333a:	cb 01       	movw	r24, r22
    333c:	f8 01       	movw	r30, r16
    333e:	91 83       	std	Z+1, r25	; 0x01
    3340:	80 83       	st	Z, r24
    3342:	1f c0       	rjmp	.+62     	; 0x3382 <MU2_SendData+0x426>
    3344:	fe 01       	movw	r30, r28
    3346:	e7 5b       	subi	r30, 0xB7	; 183
    3348:	ff 4f       	sbci	r31, 0xFF	; 255
    334a:	89 e1       	ldi	r24, 0x19	; 25
    334c:	90 e0       	ldi	r25, 0x00	; 0
    334e:	91 83       	std	Z+1, r25	; 0x01
    3350:	80 83       	st	Z, r24
    3352:	fe 01       	movw	r30, r28
    3354:	e7 5b       	subi	r30, 0xB7	; 183
    3356:	ff 4f       	sbci	r31, 0xFF	; 255
    3358:	80 81       	ld	r24, Z
    335a:	91 81       	ldd	r25, Z+1	; 0x01
    335c:	01 97       	sbiw	r24, 0x01	; 1
    335e:	f1 f7       	brne	.-4      	; 0x335c <MU2_SendData+0x400>
    3360:	fe 01       	movw	r30, r28
    3362:	e7 5b       	subi	r30, 0xB7	; 183
    3364:	ff 4f       	sbci	r31, 0xFF	; 255
    3366:	91 83       	std	Z+1, r25	; 0x01
    3368:	80 83       	st	Z, r24
		while(__ticks)
		{
			// wait 1/10 ms
			_delay_loop_2(((F_CPU) / 4e3) / 10);
			__ticks --;
    336a:	de 01       	movw	r26, r28
    336c:	a5 5b       	subi	r26, 0xB5	; 181
    336e:	bf 4f       	sbci	r27, 0xFF	; 255
    3370:	fe 01       	movw	r30, r28
    3372:	e5 5b       	subi	r30, 0xB5	; 181
    3374:	ff 4f       	sbci	r31, 0xFF	; 255
    3376:	80 81       	ld	r24, Z
    3378:	91 81       	ldd	r25, Z+1	; 0x01
    337a:	01 97       	sbiw	r24, 0x01	; 1
    337c:	11 96       	adiw	r26, 0x01	; 1
    337e:	9c 93       	st	X, r25
    3380:	8e 93       	st	-X, r24
		__ticks = 1;
	else if (__tmp > 65535)
	{
		//	__ticks = requested delay in 1/10 ms
		__ticks = (uint16_t) (__ms * 10.0);
		while(__ticks)
    3382:	fe 01       	movw	r30, r28
    3384:	e5 5b       	subi	r30, 0xB5	; 181
    3386:	ff 4f       	sbci	r31, 0xFF	; 255
    3388:	80 81       	ld	r24, Z
    338a:	91 81       	ldd	r25, Z+1	; 0x01
    338c:	00 97       	sbiw	r24, 0x00	; 0
    338e:	d1 f6       	brne	.-76     	; 0x3344 <MU2_SendData+0x3e8>
    3390:	27 c0       	rjmp	.+78     	; 0x33e0 <MU2_SendData+0x484>
			__ticks --;
		}
		return;
	}
	else
		__ticks = (uint16_t)__tmp;
    3392:	8e 01       	movw	r16, r28
    3394:	05 5b       	subi	r16, 0xB5	; 181
    3396:	1f 4f       	sbci	r17, 0xFF	; 255
    3398:	fe 01       	movw	r30, r28
    339a:	e3 5b       	subi	r30, 0xB3	; 179
    339c:	ff 4f       	sbci	r31, 0xFF	; 255
    339e:	60 81       	ld	r22, Z
    33a0:	71 81       	ldd	r23, Z+1	; 0x01
    33a2:	82 81       	ldd	r24, Z+2	; 0x02
    33a4:	93 81       	ldd	r25, Z+3	; 0x03
    33a6:	0e 94 52 25 	call	0x4aa4	; 0x4aa4 <__fixunssfsi>
    33aa:	dc 01       	movw	r26, r24
    33ac:	cb 01       	movw	r24, r22
    33ae:	f8 01       	movw	r30, r16
    33b0:	91 83       	std	Z+1, r25	; 0x01
    33b2:	80 83       	st	Z, r24
    33b4:	de 01       	movw	r26, r28
    33b6:	a9 5b       	subi	r26, 0xB9	; 185
    33b8:	bf 4f       	sbci	r27, 0xFF	; 255
    33ba:	fe 01       	movw	r30, r28
    33bc:	e5 5b       	subi	r30, 0xB5	; 181
    33be:	ff 4f       	sbci	r31, 0xFF	; 255
    33c0:	80 81       	ld	r24, Z
    33c2:	91 81       	ldd	r25, Z+1	; 0x01
    33c4:	8d 93       	st	X+, r24
    33c6:	9c 93       	st	X, r25
    33c8:	fe 01       	movw	r30, r28
    33ca:	e9 5b       	subi	r30, 0xB9	; 185
    33cc:	ff 4f       	sbci	r31, 0xFF	; 255
    33ce:	80 81       	ld	r24, Z
    33d0:	91 81       	ldd	r25, Z+1	; 0x01
    33d2:	01 97       	sbiw	r24, 0x01	; 1
    33d4:	f1 f7       	brne	.-4      	; 0x33d2 <MU2_SendData+0x476>
    33d6:	fe 01       	movw	r30, r28
    33d8:	e9 5b       	subi	r30, 0xB9	; 185
    33da:	ff 4f       	sbci	r31, 0xFF	; 255
    33dc:	91 83       	std	Z+1, r25	; 0x01
    33de:	80 83       	st	Z, r24
	MU2_TxChar(size[0]);_delay_ms(SENDTIME);
    33e0:	fe 01       	movw	r30, r28
    33e2:	ef 58       	subi	r30, 0x8F	; 143
    33e4:	ff 4f       	sbci	r31, 0xFF	; 255
    33e6:	80 81       	ld	r24, Z
    33e8:	0e 94 95 16 	call	0x2d2a	; 0x2d2a <MU2_TxChar>
    33ec:	fe 01       	movw	r30, r28
    33ee:	ed 5b       	subi	r30, 0xBD	; 189
    33f0:	ff 4f       	sbci	r31, 0xFF	; 255
    33f2:	80 e0       	ldi	r24, 0x00	; 0
    33f4:	90 e0       	ldi	r25, 0x00	; 0
    33f6:	a0 ea       	ldi	r26, 0xA0	; 160
    33f8:	b0 e4       	ldi	r27, 0x40	; 64
    33fa:	80 83       	st	Z, r24
    33fc:	91 83       	std	Z+1, r25	; 0x01
    33fe:	a2 83       	std	Z+2, r26	; 0x02
    3400:	b3 83       	std	Z+3, r27	; 0x03
 */
void
_delay_ms(double __ms)
{
	uint16_t __ticks;
	double __tmp = ((F_CPU) / 4e3) * __ms;
    3402:	8e 01       	movw	r16, r28
    3404:	01 5c       	subi	r16, 0xC1	; 193
    3406:	1f 4f       	sbci	r17, 0xFF	; 255
    3408:	fe 01       	movw	r30, r28
    340a:	ed 5b       	subi	r30, 0xBD	; 189
    340c:	ff 4f       	sbci	r31, 0xFF	; 255
    340e:	60 81       	ld	r22, Z
    3410:	71 81       	ldd	r23, Z+1	; 0x01
    3412:	82 81       	ldd	r24, Z+2	; 0x02
    3414:	93 81       	ldd	r25, Z+3	; 0x03
    3416:	20 e0       	ldi	r18, 0x00	; 0
    3418:	30 e0       	ldi	r19, 0x00	; 0
    341a:	4a e7       	ldi	r20, 0x7A	; 122
    341c:	53 e4       	ldi	r21, 0x43	; 67
    341e:	0e 94 28 27 	call	0x4e50	; 0x4e50 <__mulsf3>
    3422:	dc 01       	movw	r26, r24
    3424:	cb 01       	movw	r24, r22
    3426:	f8 01       	movw	r30, r16
    3428:	80 83       	st	Z, r24
    342a:	91 83       	std	Z+1, r25	; 0x01
    342c:	a2 83       	std	Z+2, r26	; 0x02
    342e:	b3 83       	std	Z+3, r27	; 0x03
	if (__tmp < 1.0)
    3430:	fe 01       	movw	r30, r28
    3432:	ff 96       	adiw	r30, 0x3f	; 63
    3434:	60 81       	ld	r22, Z
    3436:	71 81       	ldd	r23, Z+1	; 0x01
    3438:	82 81       	ldd	r24, Z+2	; 0x02
    343a:	93 81       	ldd	r25, Z+3	; 0x03
    343c:	20 e0       	ldi	r18, 0x00	; 0
    343e:	30 e0       	ldi	r19, 0x00	; 0
    3440:	40 e8       	ldi	r20, 0x80	; 128
    3442:	5f e3       	ldi	r21, 0x3F	; 63
    3444:	0e 94 82 28 	call	0x5104	; 0x5104 <__ltsf2>
    3448:	88 23       	and	r24, r24
    344a:	2c f4       	brge	.+10     	; 0x3456 <MU2_SendData+0x4fa>
		__ticks = 1;
    344c:	81 e0       	ldi	r24, 0x01	; 1
    344e:	90 e0       	ldi	r25, 0x00	; 0
    3450:	9e af       	std	Y+62, r25	; 0x3e
    3452:	8d af       	std	Y+61, r24	; 0x3d
    3454:	46 c0       	rjmp	.+140    	; 0x34e2 <MU2_SendData+0x586>
	else if (__tmp > 65535)
    3456:	fe 01       	movw	r30, r28
    3458:	ff 96       	adiw	r30, 0x3f	; 63
    345a:	60 81       	ld	r22, Z
    345c:	71 81       	ldd	r23, Z+1	; 0x01
    345e:	82 81       	ldd	r24, Z+2	; 0x02
    3460:	93 81       	ldd	r25, Z+3	; 0x03
    3462:	20 e0       	ldi	r18, 0x00	; 0
    3464:	3f ef       	ldi	r19, 0xFF	; 255
    3466:	4f e7       	ldi	r20, 0x7F	; 127
    3468:	57 e4       	ldi	r21, 0x47	; 71
    346a:	0e 94 22 28 	call	0x5044	; 0x5044 <__gtsf2>
    346e:	18 16       	cp	r1, r24
    3470:	64 f5       	brge	.+88     	; 0x34ca <MU2_SendData+0x56e>
	{
		//	__ticks = requested delay in 1/10 ms
		__ticks = (uint16_t) (__ms * 10.0);
    3472:	fe 01       	movw	r30, r28
    3474:	ed 5b       	subi	r30, 0xBD	; 189
    3476:	ff 4f       	sbci	r31, 0xFF	; 255
    3478:	60 81       	ld	r22, Z
    347a:	71 81       	ldd	r23, Z+1	; 0x01
    347c:	82 81       	ldd	r24, Z+2	; 0x02
    347e:	93 81       	ldd	r25, Z+3	; 0x03
    3480:	20 e0       	ldi	r18, 0x00	; 0
    3482:	30 e0       	ldi	r19, 0x00	; 0
    3484:	40 e2       	ldi	r20, 0x20	; 32
    3486:	51 e4       	ldi	r21, 0x41	; 65
    3488:	0e 94 28 27 	call	0x4e50	; 0x4e50 <__mulsf3>
    348c:	dc 01       	movw	r26, r24
    348e:	cb 01       	movw	r24, r22
    3490:	bc 01       	movw	r22, r24
    3492:	cd 01       	movw	r24, r26
    3494:	0e 94 52 25 	call	0x4aa4	; 0x4aa4 <__fixunssfsi>
    3498:	dc 01       	movw	r26, r24
    349a:	cb 01       	movw	r24, r22
    349c:	9e af       	std	Y+62, r25	; 0x3e
    349e:	8d af       	std	Y+61, r24	; 0x3d
    34a0:	0f c0       	rjmp	.+30     	; 0x34c0 <MU2_SendData+0x564>
    34a2:	89 e1       	ldi	r24, 0x19	; 25
    34a4:	90 e0       	ldi	r25, 0x00	; 0
    34a6:	9c af       	std	Y+60, r25	; 0x3c
    34a8:	8b af       	std	Y+59, r24	; 0x3b
    34aa:	8b ad       	ldd	r24, Y+59	; 0x3b
    34ac:	9c ad       	ldd	r25, Y+60	; 0x3c
    34ae:	01 97       	sbiw	r24, 0x01	; 1
    34b0:	f1 f7       	brne	.-4      	; 0x34ae <MU2_SendData+0x552>
    34b2:	9c af       	std	Y+60, r25	; 0x3c
    34b4:	8b af       	std	Y+59, r24	; 0x3b
		while(__ticks)
		{
			// wait 1/10 ms
			_delay_loop_2(((F_CPU) / 4e3) / 10);
			__ticks --;
    34b6:	8d ad       	ldd	r24, Y+61	; 0x3d
    34b8:	9e ad       	ldd	r25, Y+62	; 0x3e
    34ba:	01 97       	sbiw	r24, 0x01	; 1
    34bc:	9e af       	std	Y+62, r25	; 0x3e
    34be:	8d af       	std	Y+61, r24	; 0x3d
		__ticks = 1;
	else if (__tmp > 65535)
	{
		//	__ticks = requested delay in 1/10 ms
		__ticks = (uint16_t) (__ms * 10.0);
		while(__ticks)
    34c0:	8d ad       	ldd	r24, Y+61	; 0x3d
    34c2:	9e ad       	ldd	r25, Y+62	; 0x3e
    34c4:	00 97       	sbiw	r24, 0x00	; 0
    34c6:	69 f7       	brne	.-38     	; 0x34a2 <MU2_SendData+0x546>
    34c8:	16 c0       	rjmp	.+44     	; 0x34f6 <MU2_SendData+0x59a>
			__ticks --;
		}
		return;
	}
	else
		__ticks = (uint16_t)__tmp;
    34ca:	fe 01       	movw	r30, r28
    34cc:	ff 96       	adiw	r30, 0x3f	; 63
    34ce:	60 81       	ld	r22, Z
    34d0:	71 81       	ldd	r23, Z+1	; 0x01
    34d2:	82 81       	ldd	r24, Z+2	; 0x02
    34d4:	93 81       	ldd	r25, Z+3	; 0x03
    34d6:	0e 94 52 25 	call	0x4aa4	; 0x4aa4 <__fixunssfsi>
    34da:	dc 01       	movw	r26, r24
    34dc:	cb 01       	movw	r24, r22
    34de:	9e af       	std	Y+62, r25	; 0x3e
    34e0:	8d af       	std	Y+61, r24	; 0x3d
    34e2:	8d ad       	ldd	r24, Y+61	; 0x3d
    34e4:	9e ad       	ldd	r25, Y+62	; 0x3e
    34e6:	9a af       	std	Y+58, r25	; 0x3a
    34e8:	89 af       	std	Y+57, r24	; 0x39
    34ea:	89 ad       	ldd	r24, Y+57	; 0x39
    34ec:	9a ad       	ldd	r25, Y+58	; 0x3a
    34ee:	01 97       	sbiw	r24, 0x01	; 1
    34f0:	f1 f7       	brne	.-4      	; 0x34ee <MU2_SendData+0x592>
    34f2:	9a af       	std	Y+58, r25	; 0x3a
    34f4:	89 af       	std	Y+57, r24	; 0x39
	MU2_TxChar(size[1]);_delay_ms(SENDTIME);
    34f6:	fe 01       	movw	r30, r28
    34f8:	ef 58       	subi	r30, 0x8F	; 143
    34fa:	ff 4f       	sbci	r31, 0xFF	; 255
    34fc:	81 81       	ldd	r24, Z+1	; 0x01
    34fe:	0e 94 95 16 	call	0x2d2a	; 0x2d2a <MU2_TxChar>
    3502:	80 e0       	ldi	r24, 0x00	; 0
    3504:	90 e0       	ldi	r25, 0x00	; 0
    3506:	a0 ea       	ldi	r26, 0xA0	; 160
    3508:	b0 e4       	ldi	r27, 0x40	; 64
    350a:	8d ab       	std	Y+53, r24	; 0x35
    350c:	9e ab       	std	Y+54, r25	; 0x36
    350e:	af ab       	std	Y+55, r26	; 0x37
    3510:	b8 af       	std	Y+56, r27	; 0x38
 */
void
_delay_ms(double __ms)
{
	uint16_t __ticks;
	double __tmp = ((F_CPU) / 4e3) * __ms;
    3512:	6d a9       	ldd	r22, Y+53	; 0x35
    3514:	7e a9       	ldd	r23, Y+54	; 0x36
    3516:	8f a9       	ldd	r24, Y+55	; 0x37
    3518:	98 ad       	ldd	r25, Y+56	; 0x38
    351a:	20 e0       	ldi	r18, 0x00	; 0
    351c:	30 e0       	ldi	r19, 0x00	; 0
    351e:	4a e7       	ldi	r20, 0x7A	; 122
    3520:	53 e4       	ldi	r21, 0x43	; 67
    3522:	0e 94 28 27 	call	0x4e50	; 0x4e50 <__mulsf3>
    3526:	dc 01       	movw	r26, r24
    3528:	cb 01       	movw	r24, r22
    352a:	89 ab       	std	Y+49, r24	; 0x31
    352c:	9a ab       	std	Y+50, r25	; 0x32
    352e:	ab ab       	std	Y+51, r26	; 0x33
    3530:	bc ab       	std	Y+52, r27	; 0x34
	if (__tmp < 1.0)
    3532:	69 a9       	ldd	r22, Y+49	; 0x31
    3534:	7a a9       	ldd	r23, Y+50	; 0x32
    3536:	8b a9       	ldd	r24, Y+51	; 0x33
    3538:	9c a9       	ldd	r25, Y+52	; 0x34
    353a:	20 e0       	ldi	r18, 0x00	; 0
    353c:	30 e0       	ldi	r19, 0x00	; 0
    353e:	40 e8       	ldi	r20, 0x80	; 128
    3540:	5f e3       	ldi	r21, 0x3F	; 63
    3542:	0e 94 82 28 	call	0x5104	; 0x5104 <__ltsf2>
    3546:	88 23       	and	r24, r24
    3548:	2c f4       	brge	.+10     	; 0x3554 <MU2_SendData+0x5f8>
		__ticks = 1;
    354a:	81 e0       	ldi	r24, 0x01	; 1
    354c:	90 e0       	ldi	r25, 0x00	; 0
    354e:	98 ab       	std	Y+48, r25	; 0x30
    3550:	8f a7       	std	Y+47, r24	; 0x2f
    3552:	3f c0       	rjmp	.+126    	; 0x35d2 <MU2_SendData+0x676>
	else if (__tmp > 65535)
    3554:	69 a9       	ldd	r22, Y+49	; 0x31
    3556:	7a a9       	ldd	r23, Y+50	; 0x32
    3558:	8b a9       	ldd	r24, Y+51	; 0x33
    355a:	9c a9       	ldd	r25, Y+52	; 0x34
    355c:	20 e0       	ldi	r18, 0x00	; 0
    355e:	3f ef       	ldi	r19, 0xFF	; 255
    3560:	4f e7       	ldi	r20, 0x7F	; 127
    3562:	57 e4       	ldi	r21, 0x47	; 71
    3564:	0e 94 22 28 	call	0x5044	; 0x5044 <__gtsf2>
    3568:	18 16       	cp	r1, r24
    356a:	4c f5       	brge	.+82     	; 0x35be <MU2_SendData+0x662>
	{
		//	__ticks = requested delay in 1/10 ms
		__ticks = (uint16_t) (__ms * 10.0);
    356c:	6d a9       	ldd	r22, Y+53	; 0x35
    356e:	7e a9       	ldd	r23, Y+54	; 0x36
    3570:	8f a9       	ldd	r24, Y+55	; 0x37
    3572:	98 ad       	ldd	r25, Y+56	; 0x38
    3574:	20 e0       	ldi	r18, 0x00	; 0
    3576:	30 e0       	ldi	r19, 0x00	; 0
    3578:	40 e2       	ldi	r20, 0x20	; 32
    357a:	51 e4       	ldi	r21, 0x41	; 65
    357c:	0e 94 28 27 	call	0x4e50	; 0x4e50 <__mulsf3>
    3580:	dc 01       	movw	r26, r24
    3582:	cb 01       	movw	r24, r22
    3584:	bc 01       	movw	r22, r24
    3586:	cd 01       	movw	r24, r26
    3588:	0e 94 52 25 	call	0x4aa4	; 0x4aa4 <__fixunssfsi>
    358c:	dc 01       	movw	r26, r24
    358e:	cb 01       	movw	r24, r22
    3590:	98 ab       	std	Y+48, r25	; 0x30
    3592:	8f a7       	std	Y+47, r24	; 0x2f
    3594:	0f c0       	rjmp	.+30     	; 0x35b4 <MU2_SendData+0x658>
    3596:	89 e1       	ldi	r24, 0x19	; 25
    3598:	90 e0       	ldi	r25, 0x00	; 0
    359a:	9e a7       	std	Y+46, r25	; 0x2e
    359c:	8d a7       	std	Y+45, r24	; 0x2d
    359e:	8d a5       	ldd	r24, Y+45	; 0x2d
    35a0:	9e a5       	ldd	r25, Y+46	; 0x2e
    35a2:	01 97       	sbiw	r24, 0x01	; 1
    35a4:	f1 f7       	brne	.-4      	; 0x35a2 <MU2_SendData+0x646>
    35a6:	9e a7       	std	Y+46, r25	; 0x2e
    35a8:	8d a7       	std	Y+45, r24	; 0x2d
		while(__ticks)
		{
			// wait 1/10 ms
			_delay_loop_2(((F_CPU) / 4e3) / 10);
			__ticks --;
    35aa:	8f a5       	ldd	r24, Y+47	; 0x2f
    35ac:	98 a9       	ldd	r25, Y+48	; 0x30
    35ae:	01 97       	sbiw	r24, 0x01	; 1
    35b0:	98 ab       	std	Y+48, r25	; 0x30
    35b2:	8f a7       	std	Y+47, r24	; 0x2f
		__ticks = 1;
	else if (__tmp > 65535)
	{
		//	__ticks = requested delay in 1/10 ms
		__ticks = (uint16_t) (__ms * 10.0);
		while(__ticks)
    35b4:	8f a5       	ldd	r24, Y+47	; 0x2f
    35b6:	98 a9       	ldd	r25, Y+48	; 0x30
    35b8:	00 97       	sbiw	r24, 0x00	; 0
    35ba:	69 f7       	brne	.-38     	; 0x3596 <MU2_SendData+0x63a>
    35bc:	9b c0       	rjmp	.+310    	; 0x36f4 <MU2_SendData+0x798>
			__ticks --;
		}
		return;
	}
	else
		__ticks = (uint16_t)__tmp;
    35be:	69 a9       	ldd	r22, Y+49	; 0x31
    35c0:	7a a9       	ldd	r23, Y+50	; 0x32
    35c2:	8b a9       	ldd	r24, Y+51	; 0x33
    35c4:	9c a9       	ldd	r25, Y+52	; 0x34
    35c6:	0e 94 52 25 	call	0x4aa4	; 0x4aa4 <__fixunssfsi>
    35ca:	dc 01       	movw	r26, r24
    35cc:	cb 01       	movw	r24, r22
    35ce:	98 ab       	std	Y+48, r25	; 0x30
    35d0:	8f a7       	std	Y+47, r24	; 0x2f
    35d2:	8f a5       	ldd	r24, Y+47	; 0x2f
    35d4:	98 a9       	ldd	r25, Y+48	; 0x30
    35d6:	9c a7       	std	Y+44, r25	; 0x2c
    35d8:	8b a7       	std	Y+43, r24	; 0x2b
    35da:	8b a5       	ldd	r24, Y+43	; 0x2b
    35dc:	9c a5       	ldd	r25, Y+44	; 0x2c
    35de:	01 97       	sbiw	r24, 0x01	; 1
    35e0:	f1 f7       	brne	.-4      	; 0x35de <MU2_SendData+0x682>
    35e2:	9c a7       	std	Y+44, r25	; 0x2c
    35e4:	8b a7       	std	Y+43, r24	; 0x2b
    35e6:	86 c0       	rjmp	.+268    	; 0x36f4 <MU2_SendData+0x798>

	// Data
	while( len-- ){
		MU2_TxChar(*data);
    35e8:	fe 01       	movw	r30, r28
    35ea:	ec 58       	subi	r30, 0x8C	; 140
    35ec:	ff 4f       	sbci	r31, 0xFF	; 255
    35ee:	01 90       	ld	r0, Z+
    35f0:	f0 81       	ld	r31, Z
    35f2:	e0 2d       	mov	r30, r0
    35f4:	80 81       	ld	r24, Z
    35f6:	0e 94 95 16 	call	0x2d2a	; 0x2d2a <MU2_TxChar>
		data++;_delay_ms(SENDTIME);
    35fa:	de 01       	movw	r26, r28
    35fc:	ac 58       	subi	r26, 0x8C	; 140
    35fe:	bf 4f       	sbci	r27, 0xFF	; 255
    3600:	fe 01       	movw	r30, r28
    3602:	ec 58       	subi	r30, 0x8C	; 140
    3604:	ff 4f       	sbci	r31, 0xFF	; 255
    3606:	80 81       	ld	r24, Z
    3608:	91 81       	ldd	r25, Z+1	; 0x01
    360a:	01 96       	adiw	r24, 0x01	; 1
    360c:	8d 93       	st	X+, r24
    360e:	9c 93       	st	X, r25
    3610:	80 e0       	ldi	r24, 0x00	; 0
    3612:	90 e0       	ldi	r25, 0x00	; 0
    3614:	a0 ea       	ldi	r26, 0xA0	; 160
    3616:	b0 e4       	ldi	r27, 0x40	; 64
    3618:	8f a3       	std	Y+39, r24	; 0x27
    361a:	98 a7       	std	Y+40, r25	; 0x28
    361c:	a9 a7       	std	Y+41, r26	; 0x29
    361e:	ba a7       	std	Y+42, r27	; 0x2a
 */
void
_delay_ms(double __ms)
{
	uint16_t __ticks;
	double __tmp = ((F_CPU) / 4e3) * __ms;
    3620:	6f a1       	ldd	r22, Y+39	; 0x27
    3622:	78 a5       	ldd	r23, Y+40	; 0x28
    3624:	89 a5       	ldd	r24, Y+41	; 0x29
    3626:	9a a5       	ldd	r25, Y+42	; 0x2a
    3628:	20 e0       	ldi	r18, 0x00	; 0
    362a:	30 e0       	ldi	r19, 0x00	; 0
    362c:	4a e7       	ldi	r20, 0x7A	; 122
    362e:	53 e4       	ldi	r21, 0x43	; 67
    3630:	0e 94 28 27 	call	0x4e50	; 0x4e50 <__mulsf3>
    3634:	dc 01       	movw	r26, r24
    3636:	cb 01       	movw	r24, r22
    3638:	8b a3       	std	Y+35, r24	; 0x23
    363a:	9c a3       	std	Y+36, r25	; 0x24
    363c:	ad a3       	std	Y+37, r26	; 0x25
    363e:	be a3       	std	Y+38, r27	; 0x26
	if (__tmp < 1.0)
    3640:	6b a1       	ldd	r22, Y+35	; 0x23
    3642:	7c a1       	ldd	r23, Y+36	; 0x24
    3644:	8d a1       	ldd	r24, Y+37	; 0x25
    3646:	9e a1       	ldd	r25, Y+38	; 0x26
    3648:	20 e0       	ldi	r18, 0x00	; 0
    364a:	30 e0       	ldi	r19, 0x00	; 0
    364c:	40 e8       	ldi	r20, 0x80	; 128
    364e:	5f e3       	ldi	r21, 0x3F	; 63
    3650:	0e 94 82 28 	call	0x5104	; 0x5104 <__ltsf2>
    3654:	88 23       	and	r24, r24
    3656:	2c f4       	brge	.+10     	; 0x3662 <MU2_SendData+0x706>
		__ticks = 1;
    3658:	81 e0       	ldi	r24, 0x01	; 1
    365a:	90 e0       	ldi	r25, 0x00	; 0
    365c:	9a a3       	std	Y+34, r25	; 0x22
    365e:	89 a3       	std	Y+33, r24	; 0x21
    3660:	3f c0       	rjmp	.+126    	; 0x36e0 <MU2_SendData+0x784>
	else if (__tmp > 65535)
    3662:	6b a1       	ldd	r22, Y+35	; 0x23
    3664:	7c a1       	ldd	r23, Y+36	; 0x24
    3666:	8d a1       	ldd	r24, Y+37	; 0x25
    3668:	9e a1       	ldd	r25, Y+38	; 0x26
    366a:	20 e0       	ldi	r18, 0x00	; 0
    366c:	3f ef       	ldi	r19, 0xFF	; 255
    366e:	4f e7       	ldi	r20, 0x7F	; 127
    3670:	57 e4       	ldi	r21, 0x47	; 71
    3672:	0e 94 22 28 	call	0x5044	; 0x5044 <__gtsf2>
    3676:	18 16       	cp	r1, r24
    3678:	4c f5       	brge	.+82     	; 0x36cc <MU2_SendData+0x770>
	{
		//	__ticks = requested delay in 1/10 ms
		__ticks = (uint16_t) (__ms * 10.0);
    367a:	6f a1       	ldd	r22, Y+39	; 0x27
    367c:	78 a5       	ldd	r23, Y+40	; 0x28
    367e:	89 a5       	ldd	r24, Y+41	; 0x29
    3680:	9a a5       	ldd	r25, Y+42	; 0x2a
    3682:	20 e0       	ldi	r18, 0x00	; 0
    3684:	30 e0       	ldi	r19, 0x00	; 0
    3686:	40 e2       	ldi	r20, 0x20	; 32
    3688:	51 e4       	ldi	r21, 0x41	; 65
    368a:	0e 94 28 27 	call	0x4e50	; 0x4e50 <__mulsf3>
    368e:	dc 01       	movw	r26, r24
    3690:	cb 01       	movw	r24, r22
    3692:	bc 01       	movw	r22, r24
    3694:	cd 01       	movw	r24, r26
    3696:	0e 94 52 25 	call	0x4aa4	; 0x4aa4 <__fixunssfsi>
    369a:	dc 01       	movw	r26, r24
    369c:	cb 01       	movw	r24, r22
    369e:	9a a3       	std	Y+34, r25	; 0x22
    36a0:	89 a3       	std	Y+33, r24	; 0x21
    36a2:	0f c0       	rjmp	.+30     	; 0x36c2 <MU2_SendData+0x766>
    36a4:	89 e1       	ldi	r24, 0x19	; 25
    36a6:	90 e0       	ldi	r25, 0x00	; 0
    36a8:	98 a3       	std	Y+32, r25	; 0x20
    36aa:	8f 8f       	std	Y+31, r24	; 0x1f
    36ac:	8f 8d       	ldd	r24, Y+31	; 0x1f
    36ae:	98 a1       	ldd	r25, Y+32	; 0x20
    36b0:	01 97       	sbiw	r24, 0x01	; 1
    36b2:	f1 f7       	brne	.-4      	; 0x36b0 <MU2_SendData+0x754>
    36b4:	98 a3       	std	Y+32, r25	; 0x20
    36b6:	8f 8f       	std	Y+31, r24	; 0x1f
		while(__ticks)
		{
			// wait 1/10 ms
			_delay_loop_2(((F_CPU) / 4e3) / 10);
			__ticks --;
    36b8:	89 a1       	ldd	r24, Y+33	; 0x21
    36ba:	9a a1       	ldd	r25, Y+34	; 0x22
    36bc:	01 97       	sbiw	r24, 0x01	; 1
    36be:	9a a3       	std	Y+34, r25	; 0x22
    36c0:	89 a3       	std	Y+33, r24	; 0x21
		__ticks = 1;
	else if (__tmp > 65535)
	{
		//	__ticks = requested delay in 1/10 ms
		__ticks = (uint16_t) (__ms * 10.0);
		while(__ticks)
    36c2:	89 a1       	ldd	r24, Y+33	; 0x21
    36c4:	9a a1       	ldd	r25, Y+34	; 0x22
    36c6:	00 97       	sbiw	r24, 0x00	; 0
    36c8:	69 f7       	brne	.-38     	; 0x36a4 <MU2_SendData+0x748>
    36ca:	14 c0       	rjmp	.+40     	; 0x36f4 <MU2_SendData+0x798>
			__ticks --;
		}
		return;
	}
	else
		__ticks = (uint16_t)__tmp;
    36cc:	6b a1       	ldd	r22, Y+35	; 0x23
    36ce:	7c a1       	ldd	r23, Y+36	; 0x24
    36d0:	8d a1       	ldd	r24, Y+37	; 0x25
    36d2:	9e a1       	ldd	r25, Y+38	; 0x26
    36d4:	0e 94 52 25 	call	0x4aa4	; 0x4aa4 <__fixunssfsi>
    36d8:	dc 01       	movw	r26, r24
    36da:	cb 01       	movw	r24, r22
    36dc:	9a a3       	std	Y+34, r25	; 0x22
    36de:	89 a3       	std	Y+33, r24	; 0x21
    36e0:	89 a1       	ldd	r24, Y+33	; 0x21
    36e2:	9a a1       	ldd	r25, Y+34	; 0x22
    36e4:	9e 8f       	std	Y+30, r25	; 0x1e
    36e6:	8d 8f       	std	Y+29, r24	; 0x1d
    36e8:	8d 8d       	ldd	r24, Y+29	; 0x1d
    36ea:	9e 8d       	ldd	r25, Y+30	; 0x1e
    36ec:	01 97       	sbiw	r24, 0x01	; 1
    36ee:	f1 f7       	brne	.-4      	; 0x36ec <MU2_SendData+0x790>
    36f0:	9e 8f       	std	Y+30, r25	; 0x1e
    36f2:	8d 8f       	std	Y+29, r24	; 0x1d
	Byte2Str(len, size);_delay_ms(SENDTIME);
	MU2_TxChar(size[0]);_delay_ms(SENDTIME);
	MU2_TxChar(size[1]);_delay_ms(SENDTIME);

	// Data
	while( len-- ){
    36f4:	fe 01       	movw	r30, r28
    36f6:	ea 58       	subi	r30, 0x8A	; 138
    36f8:	ff 4f       	sbci	r31, 0xFF	; 255
    36fa:	80 81       	ld	r24, Z
    36fc:	e8 96       	adiw	r28, 0x38	; 56
    36fe:	8f af       	std	Y+63, r24	; 0x3f
    3700:	e8 97       	sbiw	r28, 0x38	; 56
    3702:	e8 96       	adiw	r28, 0x38	; 56
    3704:	ef ad       	ldd	r30, Y+63	; 0x3f
    3706:	e8 97       	sbiw	r28, 0x38	; 56
    3708:	ee 23       	and	r30, r30
    370a:	21 f0       	breq	.+8      	; 0x3714 <MU2_SendData+0x7b8>
    370c:	f1 e0       	ldi	r31, 0x01	; 1
    370e:	e8 96       	adiw	r28, 0x38	; 56
    3710:	ff af       	std	Y+63, r31	; 0x3f
    3712:	e8 97       	sbiw	r28, 0x38	; 56
    3714:	e8 96       	adiw	r28, 0x38	; 56
    3716:	9f ad       	ldd	r25, Y+63	; 0x3f
    3718:	e8 97       	sbiw	r28, 0x38	; 56
    371a:	de 01       	movw	r26, r28
    371c:	aa 58       	subi	r26, 0x8A	; 138
    371e:	bf 4f       	sbci	r27, 0xFF	; 255
    3720:	fe 01       	movw	r30, r28
    3722:	ea 58       	subi	r30, 0x8A	; 138
    3724:	ff 4f       	sbci	r31, 0xFF	; 255
    3726:	80 81       	ld	r24, Z
    3728:	81 50       	subi	r24, 0x01	; 1
    372a:	8c 93       	st	X, r24
    372c:	99 23       	and	r25, r25
    372e:	09 f0       	breq	.+2      	; 0x3732 <MU2_SendData+0x7d6>
    3730:	5b cf       	rjmp	.-330    	; 0x35e8 <MU2_SendData+0x68c>
		MU2_TxChar(*data);
		data++;_delay_ms(SENDTIME);
	}

	// Terminator
	MU2_TxChar('\r');_delay_ms(SENDTIME);
    3732:	8d e0       	ldi	r24, 0x0D	; 13
    3734:	0e 94 95 16 	call	0x2d2a	; 0x2d2a <MU2_TxChar>
    3738:	80 e0       	ldi	r24, 0x00	; 0
    373a:	90 e0       	ldi	r25, 0x00	; 0
    373c:	a0 ea       	ldi	r26, 0xA0	; 160
    373e:	b0 e4       	ldi	r27, 0x40	; 64
    3740:	89 8f       	std	Y+25, r24	; 0x19
    3742:	9a 8f       	std	Y+26, r25	; 0x1a
    3744:	ab 8f       	std	Y+27, r26	; 0x1b
    3746:	bc 8f       	std	Y+28, r27	; 0x1c
 */
void
_delay_ms(double __ms)
{
	uint16_t __ticks;
	double __tmp = ((F_CPU) / 4e3) * __ms;
    3748:	69 8d       	ldd	r22, Y+25	; 0x19
    374a:	7a 8d       	ldd	r23, Y+26	; 0x1a
    374c:	8b 8d       	ldd	r24, Y+27	; 0x1b
    374e:	9c 8d       	ldd	r25, Y+28	; 0x1c
    3750:	20 e0       	ldi	r18, 0x00	; 0
    3752:	30 e0       	ldi	r19, 0x00	; 0
    3754:	4a e7       	ldi	r20, 0x7A	; 122
    3756:	53 e4       	ldi	r21, 0x43	; 67
    3758:	0e 94 28 27 	call	0x4e50	; 0x4e50 <__mulsf3>
    375c:	dc 01       	movw	r26, r24
    375e:	cb 01       	movw	r24, r22
    3760:	8d 8b       	std	Y+21, r24	; 0x15
    3762:	9e 8b       	std	Y+22, r25	; 0x16
    3764:	af 8b       	std	Y+23, r26	; 0x17
    3766:	b8 8f       	std	Y+24, r27	; 0x18
	if (__tmp < 1.0)
    3768:	6d 89       	ldd	r22, Y+21	; 0x15
    376a:	7e 89       	ldd	r23, Y+22	; 0x16
    376c:	8f 89       	ldd	r24, Y+23	; 0x17
    376e:	98 8d       	ldd	r25, Y+24	; 0x18
    3770:	20 e0       	ldi	r18, 0x00	; 0
    3772:	30 e0       	ldi	r19, 0x00	; 0
    3774:	40 e8       	ldi	r20, 0x80	; 128
    3776:	5f e3       	ldi	r21, 0x3F	; 63
    3778:	0e 94 82 28 	call	0x5104	; 0x5104 <__ltsf2>
    377c:	88 23       	and	r24, r24
    377e:	2c f4       	brge	.+10     	; 0x378a <MU2_SendData+0x82e>
		__ticks = 1;
    3780:	81 e0       	ldi	r24, 0x01	; 1
    3782:	90 e0       	ldi	r25, 0x00	; 0
    3784:	9c 8b       	std	Y+20, r25	; 0x14
    3786:	8b 8b       	std	Y+19, r24	; 0x13
    3788:	3f c0       	rjmp	.+126    	; 0x3808 <MU2_SendData+0x8ac>
	else if (__tmp > 65535)
    378a:	6d 89       	ldd	r22, Y+21	; 0x15
    378c:	7e 89       	ldd	r23, Y+22	; 0x16
    378e:	8f 89       	ldd	r24, Y+23	; 0x17
    3790:	98 8d       	ldd	r25, Y+24	; 0x18
    3792:	20 e0       	ldi	r18, 0x00	; 0
    3794:	3f ef       	ldi	r19, 0xFF	; 255
    3796:	4f e7       	ldi	r20, 0x7F	; 127
    3798:	57 e4       	ldi	r21, 0x47	; 71
    379a:	0e 94 22 28 	call	0x5044	; 0x5044 <__gtsf2>
    379e:	18 16       	cp	r1, r24
    37a0:	4c f5       	brge	.+82     	; 0x37f4 <MU2_SendData+0x898>
	{
		//	__ticks = requested delay in 1/10 ms
		__ticks = (uint16_t) (__ms * 10.0);
    37a2:	69 8d       	ldd	r22, Y+25	; 0x19
    37a4:	7a 8d       	ldd	r23, Y+26	; 0x1a
    37a6:	8b 8d       	ldd	r24, Y+27	; 0x1b
    37a8:	9c 8d       	ldd	r25, Y+28	; 0x1c
    37aa:	20 e0       	ldi	r18, 0x00	; 0
    37ac:	30 e0       	ldi	r19, 0x00	; 0
    37ae:	40 e2       	ldi	r20, 0x20	; 32
    37b0:	51 e4       	ldi	r21, 0x41	; 65
    37b2:	0e 94 28 27 	call	0x4e50	; 0x4e50 <__mulsf3>
    37b6:	dc 01       	movw	r26, r24
    37b8:	cb 01       	movw	r24, r22
    37ba:	bc 01       	movw	r22, r24
    37bc:	cd 01       	movw	r24, r26
    37be:	0e 94 52 25 	call	0x4aa4	; 0x4aa4 <__fixunssfsi>
    37c2:	dc 01       	movw	r26, r24
    37c4:	cb 01       	movw	r24, r22
    37c6:	9c 8b       	std	Y+20, r25	; 0x14
    37c8:	8b 8b       	std	Y+19, r24	; 0x13
    37ca:	0f c0       	rjmp	.+30     	; 0x37ea <MU2_SendData+0x88e>
    37cc:	89 e1       	ldi	r24, 0x19	; 25
    37ce:	90 e0       	ldi	r25, 0x00	; 0
    37d0:	9a 8b       	std	Y+18, r25	; 0x12
    37d2:	89 8b       	std	Y+17, r24	; 0x11
    37d4:	89 89       	ldd	r24, Y+17	; 0x11
    37d6:	9a 89       	ldd	r25, Y+18	; 0x12
    37d8:	01 97       	sbiw	r24, 0x01	; 1
    37da:	f1 f7       	brne	.-4      	; 0x37d8 <MU2_SendData+0x87c>
    37dc:	9a 8b       	std	Y+18, r25	; 0x12
    37de:	89 8b       	std	Y+17, r24	; 0x11
		while(__ticks)
		{
			// wait 1/10 ms
			_delay_loop_2(((F_CPU) / 4e3) / 10);
			__ticks --;
    37e0:	8b 89       	ldd	r24, Y+19	; 0x13
    37e2:	9c 89       	ldd	r25, Y+20	; 0x14
    37e4:	01 97       	sbiw	r24, 0x01	; 1
    37e6:	9c 8b       	std	Y+20, r25	; 0x14
    37e8:	8b 8b       	std	Y+19, r24	; 0x13
		__ticks = 1;
	else if (__tmp > 65535)
	{
		//	__ticks = requested delay in 1/10 ms
		__ticks = (uint16_t) (__ms * 10.0);
		while(__ticks)
    37ea:	8b 89       	ldd	r24, Y+19	; 0x13
    37ec:	9c 89       	ldd	r25, Y+20	; 0x14
    37ee:	00 97       	sbiw	r24, 0x00	; 0
    37f0:	69 f7       	brne	.-38     	; 0x37cc <MU2_SendData+0x870>
    37f2:	14 c0       	rjmp	.+40     	; 0x381c <MU2_SendData+0x8c0>
			__ticks --;
		}
		return;
	}
	else
		__ticks = (uint16_t)__tmp;
    37f4:	6d 89       	ldd	r22, Y+21	; 0x15
    37f6:	7e 89       	ldd	r23, Y+22	; 0x16
    37f8:	8f 89       	ldd	r24, Y+23	; 0x17
    37fa:	98 8d       	ldd	r25, Y+24	; 0x18
    37fc:	0e 94 52 25 	call	0x4aa4	; 0x4aa4 <__fixunssfsi>
    3800:	dc 01       	movw	r26, r24
    3802:	cb 01       	movw	r24, r22
    3804:	9c 8b       	std	Y+20, r25	; 0x14
    3806:	8b 8b       	std	Y+19, r24	; 0x13
    3808:	8b 89       	ldd	r24, Y+19	; 0x13
    380a:	9c 89       	ldd	r25, Y+20	; 0x14
    380c:	98 8b       	std	Y+16, r25	; 0x10
    380e:	8f 87       	std	Y+15, r24	; 0x0f
    3810:	8f 85       	ldd	r24, Y+15	; 0x0f
    3812:	98 89       	ldd	r25, Y+16	; 0x10
    3814:	01 97       	sbiw	r24, 0x01	; 1
    3816:	f1 f7       	brne	.-4      	; 0x3814 <MU2_SendData+0x8b8>
    3818:	98 8b       	std	Y+16, r25	; 0x10
    381a:	8f 87       	std	Y+15, r24	; 0x0f
	MU2_TxChar('\n');_delay_ms(SENDTIME);
    381c:	8a e0       	ldi	r24, 0x0A	; 10
    381e:	0e 94 95 16 	call	0x2d2a	; 0x2d2a <MU2_TxChar>
    3822:	80 e0       	ldi	r24, 0x00	; 0
    3824:	90 e0       	ldi	r25, 0x00	; 0
    3826:	a0 ea       	ldi	r26, 0xA0	; 160
    3828:	b0 e4       	ldi	r27, 0x40	; 64
    382a:	8b 87       	std	Y+11, r24	; 0x0b
    382c:	9c 87       	std	Y+12, r25	; 0x0c
    382e:	ad 87       	std	Y+13, r26	; 0x0d
    3830:	be 87       	std	Y+14, r27	; 0x0e
 */
void
_delay_ms(double __ms)
{
	uint16_t __ticks;
	double __tmp = ((F_CPU) / 4e3) * __ms;
    3832:	6b 85       	ldd	r22, Y+11	; 0x0b
    3834:	7c 85       	ldd	r23, Y+12	; 0x0c
    3836:	8d 85       	ldd	r24, Y+13	; 0x0d
    3838:	9e 85       	ldd	r25, Y+14	; 0x0e
    383a:	20 e0       	ldi	r18, 0x00	; 0
    383c:	30 e0       	ldi	r19, 0x00	; 0
    383e:	4a e7       	ldi	r20, 0x7A	; 122
    3840:	53 e4       	ldi	r21, 0x43	; 67
    3842:	0e 94 28 27 	call	0x4e50	; 0x4e50 <__mulsf3>
    3846:	dc 01       	movw	r26, r24
    3848:	cb 01       	movw	r24, r22
    384a:	8f 83       	std	Y+7, r24	; 0x07
    384c:	98 87       	std	Y+8, r25	; 0x08
    384e:	a9 87       	std	Y+9, r26	; 0x09
    3850:	ba 87       	std	Y+10, r27	; 0x0a
	if (__tmp < 1.0)
    3852:	6f 81       	ldd	r22, Y+7	; 0x07
    3854:	78 85       	ldd	r23, Y+8	; 0x08
    3856:	89 85       	ldd	r24, Y+9	; 0x09
    3858:	9a 85       	ldd	r25, Y+10	; 0x0a
    385a:	20 e0       	ldi	r18, 0x00	; 0
    385c:	30 e0       	ldi	r19, 0x00	; 0
    385e:	40 e8       	ldi	r20, 0x80	; 128
    3860:	5f e3       	ldi	r21, 0x3F	; 63
    3862:	0e 94 82 28 	call	0x5104	; 0x5104 <__ltsf2>
    3866:	88 23       	and	r24, r24
    3868:	2c f4       	brge	.+10     	; 0x3874 <MU2_SendData+0x918>
		__ticks = 1;
    386a:	81 e0       	ldi	r24, 0x01	; 1
    386c:	90 e0       	ldi	r25, 0x00	; 0
    386e:	9e 83       	std	Y+6, r25	; 0x06
    3870:	8d 83       	std	Y+5, r24	; 0x05
    3872:	3f c0       	rjmp	.+126    	; 0x38f2 <MU2_SendData+0x996>
	else if (__tmp > 65535)
    3874:	6f 81       	ldd	r22, Y+7	; 0x07
    3876:	78 85       	ldd	r23, Y+8	; 0x08
    3878:	89 85       	ldd	r24, Y+9	; 0x09
    387a:	9a 85       	ldd	r25, Y+10	; 0x0a
    387c:	20 e0       	ldi	r18, 0x00	; 0
    387e:	3f ef       	ldi	r19, 0xFF	; 255
    3880:	4f e7       	ldi	r20, 0x7F	; 127
    3882:	57 e4       	ldi	r21, 0x47	; 71
    3884:	0e 94 22 28 	call	0x5044	; 0x5044 <__gtsf2>
    3888:	18 16       	cp	r1, r24
    388a:	4c f5       	brge	.+82     	; 0x38de <MU2_SendData+0x982>
	{
		//	__ticks = requested delay in 1/10 ms
		__ticks = (uint16_t) (__ms * 10.0);
    388c:	6b 85       	ldd	r22, Y+11	; 0x0b
    388e:	7c 85       	ldd	r23, Y+12	; 0x0c
    3890:	8d 85       	ldd	r24, Y+13	; 0x0d
    3892:	9e 85       	ldd	r25, Y+14	; 0x0e
    3894:	20 e0       	ldi	r18, 0x00	; 0
    3896:	30 e0       	ldi	r19, 0x00	; 0
    3898:	40 e2       	ldi	r20, 0x20	; 32
    389a:	51 e4       	ldi	r21, 0x41	; 65
    389c:	0e 94 28 27 	call	0x4e50	; 0x4e50 <__mulsf3>
    38a0:	dc 01       	movw	r26, r24
    38a2:	cb 01       	movw	r24, r22
    38a4:	bc 01       	movw	r22, r24
    38a6:	cd 01       	movw	r24, r26
    38a8:	0e 94 52 25 	call	0x4aa4	; 0x4aa4 <__fixunssfsi>
    38ac:	dc 01       	movw	r26, r24
    38ae:	cb 01       	movw	r24, r22
    38b0:	9e 83       	std	Y+6, r25	; 0x06
    38b2:	8d 83       	std	Y+5, r24	; 0x05
    38b4:	0f c0       	rjmp	.+30     	; 0x38d4 <MU2_SendData+0x978>
    38b6:	89 e1       	ldi	r24, 0x19	; 25
    38b8:	90 e0       	ldi	r25, 0x00	; 0
    38ba:	9c 83       	std	Y+4, r25	; 0x04
    38bc:	8b 83       	std	Y+3, r24	; 0x03
    38be:	8b 81       	ldd	r24, Y+3	; 0x03
    38c0:	9c 81       	ldd	r25, Y+4	; 0x04
    38c2:	01 97       	sbiw	r24, 0x01	; 1
    38c4:	f1 f7       	brne	.-4      	; 0x38c2 <MU2_SendData+0x966>
    38c6:	9c 83       	std	Y+4, r25	; 0x04
    38c8:	8b 83       	std	Y+3, r24	; 0x03
		while(__ticks)
		{
			// wait 1/10 ms
			_delay_loop_2(((F_CPU) / 4e3) / 10);
			__ticks --;
    38ca:	8d 81       	ldd	r24, Y+5	; 0x05
    38cc:	9e 81       	ldd	r25, Y+6	; 0x06
    38ce:	01 97       	sbiw	r24, 0x01	; 1
    38d0:	9e 83       	std	Y+6, r25	; 0x06
    38d2:	8d 83       	std	Y+5, r24	; 0x05
		__ticks = 1;
	else if (__tmp > 65535)
	{
		//	__ticks = requested delay in 1/10 ms
		__ticks = (uint16_t) (__ms * 10.0);
		while(__ticks)
    38d4:	8d 81       	ldd	r24, Y+5	; 0x05
    38d6:	9e 81       	ldd	r25, Y+6	; 0x06
    38d8:	00 97       	sbiw	r24, 0x00	; 0
    38da:	69 f7       	brne	.-38     	; 0x38b6 <MU2_SendData+0x95a>
    38dc:	14 c0       	rjmp	.+40     	; 0x3906 <MU2_SendData+0x9aa>
			__ticks --;
		}
		return;
	}
	else
		__ticks = (uint16_t)__tmp;
    38de:	6f 81       	ldd	r22, Y+7	; 0x07
    38e0:	78 85       	ldd	r23, Y+8	; 0x08
    38e2:	89 85       	ldd	r24, Y+9	; 0x09
    38e4:	9a 85       	ldd	r25, Y+10	; 0x0a
    38e6:	0e 94 52 25 	call	0x4aa4	; 0x4aa4 <__fixunssfsi>
    38ea:	dc 01       	movw	r26, r24
    38ec:	cb 01       	movw	r24, r22
    38ee:	9e 83       	std	Y+6, r25	; 0x06
    38f0:	8d 83       	std	Y+5, r24	; 0x05
    38f2:	8d 81       	ldd	r24, Y+5	; 0x05
    38f4:	9e 81       	ldd	r25, Y+6	; 0x06
    38f6:	9a 83       	std	Y+2, r25	; 0x02
    38f8:	89 83       	std	Y+1, r24	; 0x01
    38fa:	89 81       	ldd	r24, Y+1	; 0x01
    38fc:	9a 81       	ldd	r25, Y+2	; 0x02
    38fe:	01 97       	sbiw	r24, 0x01	; 1
    3900:	f1 f7       	brne	.-4      	; 0x38fe <MU2_SendData+0x9a2>
    3902:	9a 83       	std	Y+2, r25	; 0x02
    3904:	89 83       	std	Y+1, r24	; 0x01

    return 0;
    3906:	80 e0       	ldi	r24, 0x00	; 0
    3908:	90 e0       	ldi	r25, 0x00	; 0
}
    390a:	c9 58       	subi	r28, 0x89	; 137
    390c:	df 4f       	sbci	r29, 0xFF	; 255
    390e:	0f b6       	in	r0, 0x3f	; 63
    3910:	f8 94       	cli
    3912:	de bf       	out	0x3e, r29	; 62
    3914:	0f be       	out	0x3f, r0	; 63
    3916:	cd bf       	out	0x3d, r28	; 61
    3918:	cf 91       	pop	r28
    391a:	df 91       	pop	r29
    391c:	1f 91       	pop	r17
    391e:	0f 91       	pop	r16
    3920:	08 95       	ret

00003922 <Byte2Str>:
__inline__ int MU2_TxChar(unsigned char c){ return (*__mu2_tx_char)(c);	}
__inline__ int MU2_RxChar(unsigned char *c){ return (*__mu2_rx_char)(c); }


static __inline__ void Byte2Str(unsigned char num, char *str)
{
    3922:	df 93       	push	r29
    3924:	cf 93       	push	r28
    3926:	cd b7       	in	r28, 0x3d	; 61
    3928:	de b7       	in	r29, 0x3e	; 62
    392a:	29 97       	sbiw	r28, 0x09	; 9
    392c:	0f b6       	in	r0, 0x3f	; 63
    392e:	f8 94       	cli
    3930:	de bf       	out	0x3e, r29	; 62
    3932:	0f be       	out	0x3f, r0	; 63
    3934:	cd bf       	out	0x3d, r28	; 61
    3936:	8b 83       	std	Y+3, r24	; 0x03
    3938:	7d 83       	std	Y+5, r23	; 0x05
    393a:	6c 83       	std	Y+4, r22	; 0x04
	int tmp;

	tmp = (num >> 4) & 0x0F;
    393c:	8b 81       	ldd	r24, Y+3	; 0x03
    393e:	82 95       	swap	r24
    3940:	8f 70       	andi	r24, 0x0F	; 15
    3942:	88 2f       	mov	r24, r24
    3944:	90 e0       	ldi	r25, 0x00	; 0
    3946:	9a 83       	std	Y+2, r25	; 0x02
    3948:	89 83       	std	Y+1, r24	; 0x01
	str[0] = tmp + ((tmp > 9) ? ('A'-10) : '0');
    394a:	89 81       	ldd	r24, Y+1	; 0x01
    394c:	9a 81       	ldd	r25, Y+2	; 0x02
    394e:	8a 30       	cpi	r24, 0x0A	; 10
    3950:	91 05       	cpc	r25, r1
    3952:	1c f0       	brlt	.+6      	; 0x395a <Byte2Str+0x38>
    3954:	27 e3       	ldi	r18, 0x37	; 55
    3956:	29 87       	std	Y+9, r18	; 0x09
    3958:	02 c0       	rjmp	.+4      	; 0x395e <Byte2Str+0x3c>
    395a:	30 e3       	ldi	r19, 0x30	; 48
    395c:	39 87       	std	Y+9, r19	; 0x09
    395e:	89 81       	ldd	r24, Y+1	; 0x01
    3960:	99 85       	ldd	r25, Y+9	; 0x09
    3962:	89 0f       	add	r24, r25
    3964:	ec 81       	ldd	r30, Y+4	; 0x04
    3966:	fd 81       	ldd	r31, Y+5	; 0x05
    3968:	80 83       	st	Z, r24
	tmp = num & 0x0F;
    396a:	8b 81       	ldd	r24, Y+3	; 0x03
    396c:	88 2f       	mov	r24, r24
    396e:	90 e0       	ldi	r25, 0x00	; 0
    3970:	8f 70       	andi	r24, 0x0F	; 15
    3972:	90 70       	andi	r25, 0x00	; 0
    3974:	9a 83       	std	Y+2, r25	; 0x02
    3976:	89 83       	std	Y+1, r24	; 0x01
	str[1] = tmp + ((tmp > 9) ? ('A'-10) : '0');
    3978:	8c 81       	ldd	r24, Y+4	; 0x04
    397a:	9d 81       	ldd	r25, Y+5	; 0x05
    397c:	fc 01       	movw	r30, r24
    397e:	31 96       	adiw	r30, 0x01	; 1
    3980:	f8 87       	std	Y+8, r31	; 0x08
    3982:	ef 83       	std	Y+7, r30	; 0x07
    3984:	89 81       	ldd	r24, Y+1	; 0x01
    3986:	9a 81       	ldd	r25, Y+2	; 0x02
    3988:	8a 30       	cpi	r24, 0x0A	; 10
    398a:	91 05       	cpc	r25, r1
    398c:	1c f0       	brlt	.+6      	; 0x3994 <Byte2Str+0x72>
    398e:	f7 e3       	ldi	r31, 0x37	; 55
    3990:	fe 83       	std	Y+6, r31	; 0x06
    3992:	02 c0       	rjmp	.+4      	; 0x3998 <Byte2Str+0x76>
    3994:	20 e3       	ldi	r18, 0x30	; 48
    3996:	2e 83       	std	Y+6, r18	; 0x06
    3998:	89 81       	ldd	r24, Y+1	; 0x01
    399a:	3e 81       	ldd	r19, Y+6	; 0x06
    399c:	83 0f       	add	r24, r19
    399e:	ef 81       	ldd	r30, Y+7	; 0x07
    39a0:	f8 85       	ldd	r31, Y+8	; 0x08
    39a2:	80 83       	st	Z, r24
	str[2] = '\0';
    39a4:	8c 81       	ldd	r24, Y+4	; 0x04
    39a6:	9d 81       	ldd	r25, Y+5	; 0x05
    39a8:	fc 01       	movw	r30, r24
    39aa:	32 96       	adiw	r30, 0x02	; 2
    39ac:	10 82       	st	Z, r1
}
    39ae:	29 96       	adiw	r28, 0x09	; 9
    39b0:	0f b6       	in	r0, 0x3f	; 63
    39b2:	f8 94       	cli
    39b4:	de bf       	out	0x3e, r29	; 62
    39b6:	0f be       	out	0x3f, r0	; 63
    39b8:	cd bf       	out	0x3d, r28	; 61
    39ba:	cf 91       	pop	r28
    39bc:	df 91       	pop	r29
    39be:	08 95       	ret

000039c0 <MU2_ReceiveData>:
    return 0;
}

 
int MU2_ReceiveData(unsigned char *buf, unsigned char size)
{
    39c0:	df 93       	push	r29
    39c2:	cf 93       	push	r28
    39c4:	cd b7       	in	r28, 0x3d	; 61
    39c6:	de b7       	in	r29, 0x3e	; 62
    39c8:	2c 97       	sbiw	r28, 0x0c	; 12
    39ca:	0f b6       	in	r0, 0x3f	; 63
    39cc:	f8 94       	cli
    39ce:	de bf       	out	0x3e, r29	; 62
    39d0:	0f be       	out	0x3f, r0	; 63
    39d2:	cd bf       	out	0x3d, r28	; 61
    39d4:	99 87       	std	Y+9, r25	; 0x09
    39d6:	88 87       	std	Y+8, r24	; 0x08
    39d8:	6a 87       	std	Y+10, r22	; 0x0a
    unsigned char c;
    MU2_RxChar(&c);
    39da:	ce 01       	movw	r24, r28
    39dc:	05 96       	adiw	r24, 0x05	; 5
    39de:	0e 94 a5 16 	call	0x2d4a	; 0x2d4a <MU2_RxChar>
	if(MU2_Response(c,MU2_PREFIX, MU2_RX_BUF)){
    39e2:	8d 81       	ldd	r24, Y+5	; 0x05
    39e4:	27 e4       	ldi	r18, 0x47	; 71
    39e6:	33 e0       	ldi	r19, 0x03	; 3
    39e8:	45 e0       	ldi	r20, 0x05	; 5
    39ea:	53 e0       	ldi	r21, 0x03	; 3
    39ec:	b9 01       	movw	r22, r18
    39ee:	0e 94 2e 17 	call	0x2e5c	; 0x2e5c <MU2_Response>
    39f2:	00 97       	sbiw	r24, 0x00	; 0
    39f4:	09 f4       	brne	.+2      	; 0x39f8 <MU2_ReceiveData+0x38>
    39f6:	5d c0       	rjmp	.+186    	; 0x3ab2 <MU2_ReceiveData+0xf2>

        if( MU2_CheckCommand(MU2_PREFIX, "DR") == 0){
    39f8:	87 e4       	ldi	r24, 0x47	; 71
    39fa:	93 e0       	ldi	r25, 0x03	; 3
    39fc:	20 e2       	ldi	r18, 0x20	; 32
    39fe:	31 e0       	ldi	r19, 0x01	; 1
    3a00:	b9 01       	movw	r22, r18
    3a02:	0e 94 b8 16 	call	0x2d70	; 0x2d70 <MU2_CheckCommand>
    3a06:	00 97       	sbiw	r24, 0x00	; 0
    3a08:	09 f0       	breq	.+2      	; 0x3a0c <MU2_ReceiveData+0x4c>
    3a0a:	40 c0       	rjmp	.+128    	; 0x3a8c <MU2_ReceiveData+0xcc>
            // RI=OFF縺ｮ譎
            // RI=ON縺ｮ譎
            unsigned char tmp[2];
            int len, i;
            tmp[0] = MU2_RX_BUF[0];
    3a0c:	80 91 05 03 	lds	r24, 0x0305
    3a10:	8e 83       	std	Y+6, r24	; 0x06
            tmp[1] = MU2_RX_BUF[1];
    3a12:	80 91 06 03 	lds	r24, 0x0306
    3a16:	8f 83       	std	Y+7, r24	; 0x07
            len = Str2Byte((char *)tmp);
    3a18:	ce 01       	movw	r24, r28
    3a1a:	06 96       	adiw	r24, 0x06	; 6
    3a1c:	0e 94 66 1d 	call	0x3acc	; 0x3acc <Str2Byte>
    3a20:	88 2f       	mov	r24, r24
    3a22:	90 e0       	ldi	r25, 0x00	; 0
    3a24:	9c 83       	std	Y+4, r25	; 0x04
    3a26:	8b 83       	std	Y+3, r24	; 0x03

            for( i=2; (i-2)<len && (i-2)<size; i++){
    3a28:	82 e0       	ldi	r24, 0x02	; 2
    3a2a:	90 e0       	ldi	r25, 0x00	; 0
    3a2c:	9a 83       	std	Y+2, r25	; 0x02
    3a2e:	89 83       	std	Y+1, r24	; 0x01
    3a30:	13 c0       	rjmp	.+38     	; 0x3a58 <MU2_ReceiveData+0x98>
                *buf = MU2_RX_BUF[i];
    3a32:	89 81       	ldd	r24, Y+1	; 0x01
    3a34:	9a 81       	ldd	r25, Y+2	; 0x02
    3a36:	fc 01       	movw	r30, r24
    3a38:	eb 5f       	subi	r30, 0xFB	; 251
    3a3a:	fc 4f       	sbci	r31, 0xFC	; 252
    3a3c:	80 81       	ld	r24, Z
    3a3e:	e8 85       	ldd	r30, Y+8	; 0x08
    3a40:	f9 85       	ldd	r31, Y+9	; 0x09
    3a42:	80 83       	st	Z, r24
                buf++;
    3a44:	88 85       	ldd	r24, Y+8	; 0x08
    3a46:	99 85       	ldd	r25, Y+9	; 0x09
    3a48:	01 96       	adiw	r24, 0x01	; 1
    3a4a:	99 87       	std	Y+9, r25	; 0x09
    3a4c:	88 87       	std	Y+8, r24	; 0x08
            int len, i;
            tmp[0] = MU2_RX_BUF[0];
            tmp[1] = MU2_RX_BUF[1];
            len = Str2Byte((char *)tmp);

            for( i=2; (i-2)<len && (i-2)<size; i++){
    3a4e:	89 81       	ldd	r24, Y+1	; 0x01
    3a50:	9a 81       	ldd	r25, Y+2	; 0x02
    3a52:	01 96       	adiw	r24, 0x01	; 1
    3a54:	9a 83       	std	Y+2, r25	; 0x02
    3a56:	89 83       	std	Y+1, r24	; 0x01
    3a58:	89 81       	ldd	r24, Y+1	; 0x01
    3a5a:	9a 81       	ldd	r25, Y+2	; 0x02
    3a5c:	9c 01       	movw	r18, r24
    3a5e:	22 50       	subi	r18, 0x02	; 2
    3a60:	30 40       	sbci	r19, 0x00	; 0
    3a62:	8b 81       	ldd	r24, Y+3	; 0x03
    3a64:	9c 81       	ldd	r25, Y+4	; 0x04
    3a66:	28 17       	cp	r18, r24
    3a68:	39 07       	cpc	r19, r25
    3a6a:	5c f4       	brge	.+22     	; 0x3a82 <MU2_ReceiveData+0xc2>
    3a6c:	89 81       	ldd	r24, Y+1	; 0x01
    3a6e:	9a 81       	ldd	r25, Y+2	; 0x02
    3a70:	9c 01       	movw	r18, r24
    3a72:	22 50       	subi	r18, 0x02	; 2
    3a74:	30 40       	sbci	r19, 0x00	; 0
    3a76:	8a 85       	ldd	r24, Y+10	; 0x0a
    3a78:	88 2f       	mov	r24, r24
    3a7a:	90 e0       	ldi	r25, 0x00	; 0
    3a7c:	28 17       	cp	r18, r24
    3a7e:	39 07       	cpc	r19, r25
    3a80:	c4 f2       	brlt	.-80     	; 0x3a32 <MU2_ReceiveData+0x72>
                *buf = MU2_RX_BUF[i];
                buf++;
            }

            return len;
    3a82:	8b 81       	ldd	r24, Y+3	; 0x03
    3a84:	9c 81       	ldd	r25, Y+4	; 0x04
    3a86:	9c 87       	std	Y+12, r25	; 0x0c
    3a88:	8b 87       	std	Y+11, r24	; 0x0b
    3a8a:	15 c0       	rjmp	.+42     	; 0x3ab6 <MU2_ReceiveData+0xf6>
        }else if(MU2_CheckCommand(MU2_PREFIX, "ER")){
    3a8c:	87 e4       	ldi	r24, 0x47	; 71
    3a8e:	93 e0       	ldi	r25, 0x03	; 3
    3a90:	23 e2       	ldi	r18, 0x23	; 35
    3a92:	31 e0       	ldi	r19, 0x01	; 1
    3a94:	b9 01       	movw	r22, r18
    3a96:	0e 94 b8 16 	call	0x2d70	; 0x2d70 <MU2_CheckCommand>
    3a9a:	00 97       	sbiw	r24, 0x00	; 0
    3a9c:	29 f0       	breq	.+10     	; 0x3aa8 <MU2_ReceiveData+0xe8>
            return -1;
    3a9e:	8f ef       	ldi	r24, 0xFF	; 255
    3aa0:	9f ef       	ldi	r25, 0xFF	; 255
    3aa2:	9c 87       	std	Y+12, r25	; 0x0c
    3aa4:	8b 87       	std	Y+11, r24	; 0x0b
    3aa6:	07 c0       	rjmp	.+14     	; 0x3ab6 <MU2_ReceiveData+0xf6>
        }else{
            return -1;
    3aa8:	8f ef       	ldi	r24, 0xFF	; 255
    3aaa:	9f ef       	ldi	r25, 0xFF	; 255
    3aac:	9c 87       	std	Y+12, r25	; 0x0c
    3aae:	8b 87       	std	Y+11, r24	; 0x0b
    3ab0:	02 c0       	rjmp	.+4      	; 0x3ab6 <MU2_ReceiveData+0xf6>
        }
	}
	return 0;
    3ab2:	1c 86       	std	Y+12, r1	; 0x0c
    3ab4:	1b 86       	std	Y+11, r1	; 0x0b
    3ab6:	8b 85       	ldd	r24, Y+11	; 0x0b
    3ab8:	9c 85       	ldd	r25, Y+12	; 0x0c
}
    3aba:	2c 96       	adiw	r28, 0x0c	; 12
    3abc:	0f b6       	in	r0, 0x3f	; 63
    3abe:	f8 94       	cli
    3ac0:	de bf       	out	0x3e, r29	; 62
    3ac2:	0f be       	out	0x3f, r0	; 63
    3ac4:	cd bf       	out	0x3d, r28	; 61
    3ac6:	cf 91       	pop	r28
    3ac8:	df 91       	pop	r29
    3aca:	08 95       	ret

00003acc <Str2Byte>:
	str[1] = tmp + ((tmp > 9) ? ('A'-10) : '0');
	str[2] = '\0';
}

static __inline__ unsigned char Str2Byte(char *str)
{
    3acc:	df 93       	push	r29
    3ace:	cf 93       	push	r28
    3ad0:	cd b7       	in	r28, 0x3d	; 61
    3ad2:	de b7       	in	r29, 0x3e	; 62
    3ad4:	27 97       	sbiw	r28, 0x07	; 7
    3ad6:	0f b6       	in	r0, 0x3f	; 63
    3ad8:	f8 94       	cli
    3ada:	de bf       	out	0x3e, r29	; 62
    3adc:	0f be       	out	0x3f, r0	; 63
    3ade:	cd bf       	out	0x3d, r28	; 61
    3ae0:	9b 83       	std	Y+3, r25	; 0x03
    3ae2:	8a 83       	std	Y+2, r24	; 0x02
	unsigned char tmp;

	tmp = str[0] - ((str[0] >= 'A') ? ('A'-10) : '0' );
    3ae4:	ea 81       	ldd	r30, Y+2	; 0x02
    3ae6:	fb 81       	ldd	r31, Y+3	; 0x03
    3ae8:	80 81       	ld	r24, Z
    3aea:	8f 83       	std	Y+7, r24	; 0x07
    3aec:	ea 81       	ldd	r30, Y+2	; 0x02
    3aee:	fb 81       	ldd	r31, Y+3	; 0x03
    3af0:	80 81       	ld	r24, Z
    3af2:	81 34       	cpi	r24, 0x41	; 65
    3af4:	18 f0       	brcs	.+6      	; 0x3afc <Str2Byte+0x30>
    3af6:	97 e3       	ldi	r25, 0x37	; 55
    3af8:	9e 83       	std	Y+6, r25	; 0x06
    3afa:	02 c0       	rjmp	.+4      	; 0x3b00 <Str2Byte+0x34>
    3afc:	80 e3       	ldi	r24, 0x30	; 48
    3afe:	8e 83       	std	Y+6, r24	; 0x06
    3b00:	8f 81       	ldd	r24, Y+7	; 0x07
    3b02:	9e 81       	ldd	r25, Y+6	; 0x06
    3b04:	89 1b       	sub	r24, r25
    3b06:	89 83       	std	Y+1, r24	; 0x01
	tmp <<= 4;
    3b08:	89 81       	ldd	r24, Y+1	; 0x01
    3b0a:	82 95       	swap	r24
    3b0c:	80 7f       	andi	r24, 0xF0	; 240
    3b0e:	89 83       	std	Y+1, r24	; 0x01
	tmp |= str[1] - ((str[1] >= 'A') ? ('A'-10) : '0' );
    3b10:	8a 81       	ldd	r24, Y+2	; 0x02
    3b12:	9b 81       	ldd	r25, Y+3	; 0x03
    3b14:	fc 01       	movw	r30, r24
    3b16:	31 96       	adiw	r30, 0x01	; 1
    3b18:	80 81       	ld	r24, Z
    3b1a:	8d 83       	std	Y+5, r24	; 0x05
    3b1c:	8a 81       	ldd	r24, Y+2	; 0x02
    3b1e:	9b 81       	ldd	r25, Y+3	; 0x03
    3b20:	fc 01       	movw	r30, r24
    3b22:	31 96       	adiw	r30, 0x01	; 1
    3b24:	80 81       	ld	r24, Z
    3b26:	81 34       	cpi	r24, 0x41	; 65
    3b28:	18 f0       	brcs	.+6      	; 0x3b30 <Str2Byte+0x64>
    3b2a:	97 e3       	ldi	r25, 0x37	; 55
    3b2c:	9c 83       	std	Y+4, r25	; 0x04
    3b2e:	02 c0       	rjmp	.+4      	; 0x3b34 <Str2Byte+0x68>
    3b30:	80 e3       	ldi	r24, 0x30	; 48
    3b32:	8c 83       	std	Y+4, r24	; 0x04
    3b34:	8d 81       	ldd	r24, Y+5	; 0x05
    3b36:	9c 81       	ldd	r25, Y+4	; 0x04
    3b38:	89 1b       	sub	r24, r25
    3b3a:	98 2f       	mov	r25, r24
    3b3c:	89 81       	ldd	r24, Y+1	; 0x01
    3b3e:	89 2b       	or	r24, r25
    3b40:	89 83       	std	Y+1, r24	; 0x01

	return tmp;
    3b42:	89 81       	ldd	r24, Y+1	; 0x01
}
    3b44:	27 96       	adiw	r28, 0x07	; 7
    3b46:	0f b6       	in	r0, 0x3f	; 63
    3b48:	f8 94       	cli
    3b4a:	de bf       	out	0x3e, r29	; 62
    3b4c:	0f be       	out	0x3f, r0	; 63
    3b4e:	cd bf       	out	0x3d, r28	; 61
    3b50:	cf 91       	pop	r28
    3b52:	df 91       	pop	r29
    3b54:	08 95       	ret

00003b56 <MU2_SetChannel>:
	}
	return 0;
}

int MU2_SetChannel(unsigned char ch)
{
    3b56:	df 93       	push	r29
    3b58:	cf 93       	push	r28
    3b5a:	00 d0       	rcall	.+0      	; 0x3b5c <MU2_SetChannel+0x6>
    3b5c:	00 d0       	rcall	.+0      	; 0x3b5e <MU2_SetChannel+0x8>
    3b5e:	00 d0       	rcall	.+0      	; 0x3b60 <MU2_SetChannel+0xa>
    3b60:	cd b7       	in	r28, 0x3d	; 61
    3b62:	de b7       	in	r29, 0x3e	; 62
    3b64:	8c 83       	std	Y+4, r24	; 0x04
	char value[3];

	if( ch<7 || ch>46 )		return -1;
    3b66:	8c 81       	ldd	r24, Y+4	; 0x04
    3b68:	87 30       	cpi	r24, 0x07	; 7
    3b6a:	18 f0       	brcs	.+6      	; 0x3b72 <MU2_SetChannel+0x1c>
    3b6c:	8c 81       	ldd	r24, Y+4	; 0x04
    3b6e:	8f 32       	cpi	r24, 0x2F	; 47
    3b70:	28 f0       	brcs	.+10     	; 0x3b7c <MU2_SetChannel+0x26>
    3b72:	8f ef       	ldi	r24, 0xFF	; 255
    3b74:	9f ef       	ldi	r25, 0xFF	; 255
    3b76:	9e 83       	std	Y+6, r25	; 0x06
    3b78:	8d 83       	std	Y+5, r24	; 0x05
    3b7a:	12 c0       	rjmp	.+36     	; 0x3ba0 <MU2_SetChannel+0x4a>

	Byte2Str(ch, value);
    3b7c:	8c 81       	ldd	r24, Y+4	; 0x04
    3b7e:	9e 01       	movw	r18, r28
    3b80:	2f 5f       	subi	r18, 0xFF	; 255
    3b82:	3f 4f       	sbci	r19, 0xFF	; 255
    3b84:	b9 01       	movw	r22, r18
    3b86:	0e 94 91 1c 	call	0x3922	; 0x3922 <Byte2Str>
	MU2_Command("CH", value, 2);
    3b8a:	86 e2       	ldi	r24, 0x26	; 38
    3b8c:	91 e0       	ldi	r25, 0x01	; 1
    3b8e:	9e 01       	movw	r18, r28
    3b90:	2f 5f       	subi	r18, 0xFF	; 255
    3b92:	3f 4f       	sbci	r19, 0xFF	; 255
    3b94:	b9 01       	movw	r22, r18
    3b96:	42 e0       	ldi	r20, 0x02	; 2
    3b98:	0e 94 e9 16 	call	0x2dd2	; 0x2dd2 <MU2_Command>

	return 0;
    3b9c:	1e 82       	std	Y+6, r1	; 0x06
    3b9e:	1d 82       	std	Y+5, r1	; 0x05
    3ba0:	8d 81       	ldd	r24, Y+5	; 0x05
    3ba2:	9e 81       	ldd	r25, Y+6	; 0x06
}
    3ba4:	26 96       	adiw	r28, 0x06	; 6
    3ba6:	0f b6       	in	r0, 0x3f	; 63
    3ba8:	f8 94       	cli
    3baa:	de bf       	out	0x3e, r29	; 62
    3bac:	0f be       	out	0x3f, r0	; 63
    3bae:	cd bf       	out	0x3d, r28	; 61
    3bb0:	cf 91       	pop	r28
    3bb2:	df 91       	pop	r29
    3bb4:	08 95       	ret

00003bb6 <MU2_SetGroupID>:

int MU2_SetGroupID(unsigned char id)
{
    3bb6:	df 93       	push	r29
    3bb8:	cf 93       	push	r28
    3bba:	00 d0       	rcall	.+0      	; 0x3bbc <MU2_SetGroupID+0x6>
    3bbc:	00 d0       	rcall	.+0      	; 0x3bbe <MU2_SetGroupID+0x8>
    3bbe:	cd b7       	in	r28, 0x3d	; 61
    3bc0:	de b7       	in	r29, 0x3e	; 62
    3bc2:	8c 83       	std	Y+4, r24	; 0x04
	char id_str[3];

	Byte2Str(id, id_str);
    3bc4:	8c 81       	ldd	r24, Y+4	; 0x04
    3bc6:	9e 01       	movw	r18, r28
    3bc8:	2f 5f       	subi	r18, 0xFF	; 255
    3bca:	3f 4f       	sbci	r19, 0xFF	; 255
    3bcc:	b9 01       	movw	r22, r18
    3bce:	0e 94 91 1c 	call	0x3922	; 0x3922 <Byte2Str>
	MU2_Command("GI", id_str, 2);
    3bd2:	89 e2       	ldi	r24, 0x29	; 41
    3bd4:	91 e0       	ldi	r25, 0x01	; 1
    3bd6:	9e 01       	movw	r18, r28
    3bd8:	2f 5f       	subi	r18, 0xFF	; 255
    3bda:	3f 4f       	sbci	r19, 0xFF	; 255
    3bdc:	b9 01       	movw	r22, r18
    3bde:	42 e0       	ldi	r20, 0x02	; 2
    3be0:	0e 94 e9 16 	call	0x2dd2	; 0x2dd2 <MU2_Command>

	return 0;
    3be4:	80 e0       	ldi	r24, 0x00	; 0
    3be6:	90 e0       	ldi	r25, 0x00	; 0
}
    3be8:	0f 90       	pop	r0
    3bea:	0f 90       	pop	r0
    3bec:	0f 90       	pop	r0
    3bee:	0f 90       	pop	r0
    3bf0:	cf 91       	pop	r28
    3bf2:	df 91       	pop	r29
    3bf4:	08 95       	ret

00003bf6 <MU2_SetBoudRate>:

int MU2_SetBoudRate(char b){
    3bf6:	df 93       	push	r29
    3bf8:	cf 93       	push	r28
    3bfa:	0f 92       	push	r0
    3bfc:	cd b7       	in	r28, 0x3d	; 61
    3bfe:	de b7       	in	r29, 0x3e	; 62
    3c00:	89 83       	std	Y+1, r24	; 0x01
	MU2_Command("BR", b, 2);
    3c02:	89 81       	ldd	r24, Y+1	; 0x01
    3c04:	88 2f       	mov	r24, r24
    3c06:	90 e0       	ldi	r25, 0x00	; 0
    3c08:	9c 01       	movw	r18, r24
    3c0a:	8c e2       	ldi	r24, 0x2C	; 44
    3c0c:	91 e0       	ldi	r25, 0x01	; 1
    3c0e:	b9 01       	movw	r22, r18
    3c10:	42 e0       	ldi	r20, 0x02	; 2
    3c12:	0e 94 e9 16 	call	0x2dd2	; 0x2dd2 <MU2_Command>

	return 0;
    3c16:	80 e0       	ldi	r24, 0x00	; 0
    3c18:	90 e0       	ldi	r25, 0x00	; 0
}
    3c1a:	0f 90       	pop	r0
    3c1c:	cf 91       	pop	r28
    3c1e:	df 91       	pop	r29
    3c20:	08 95       	ret

00003c22 <MU2_SendDataBus>:

int MU2_SendDataBus(unsigned char *data, unsigned char len)
{
    3c22:	0f 93       	push	r16
    3c24:	1f 93       	push	r17
    3c26:	df 93       	push	r29
    3c28:	cf 93       	push	r28
    3c2a:	cd b7       	in	r28, 0x3d	; 61
    3c2c:	de b7       	in	r29, 0x3e	; 62
    3c2e:	c3 59       	subi	r28, 0x93	; 147
    3c30:	d0 40       	sbci	r29, 0x00	; 0
    3c32:	0f b6       	in	r0, 0x3f	; 63
    3c34:	f8 94       	cli
    3c36:	de bf       	out	0x3e, r29	; 62
    3c38:	0f be       	out	0x3f, r0	; 63
    3c3a:	cd bf       	out	0x3d, r28	; 61
    3c3c:	fe 01       	movw	r30, r28
    3c3e:	e0 57       	subi	r30, 0x70	; 112
    3c40:	ff 4f       	sbci	r31, 0xFF	; 255
    3c42:	91 83       	std	Z+1, r25	; 0x01
    3c44:	80 83       	st	Z, r24
    3c46:	fe 01       	movw	r30, r28
    3c48:	ee 56       	subi	r30, 0x6E	; 110
    3c4a:	ff 4f       	sbci	r31, 0xFF	; 255
    3c4c:	60 83       	st	Z, r22
	char size[3];

	// Prefix
	MU2_TxChar('*');
    3c4e:	8a e2       	ldi	r24, 0x2A	; 42
    3c50:	0e 94 95 16 	call	0x2d2a	; 0x2d2a <MU2_TxChar>
    3c54:	fe 01       	movw	r30, r28
    3c56:	e7 57       	subi	r30, 0x77	; 119
    3c58:	ff 4f       	sbci	r31, 0xFF	; 255
    3c5a:	80 e0       	ldi	r24, 0x00	; 0
    3c5c:	90 e0       	ldi	r25, 0x00	; 0
    3c5e:	a0 e2       	ldi	r26, 0x20	; 32
    3c60:	b2 e4       	ldi	r27, 0x42	; 66
    3c62:	80 83       	st	Z, r24
    3c64:	91 83       	std	Z+1, r25	; 0x01
    3c66:	a2 83       	std	Z+2, r26	; 0x02
    3c68:	b3 83       	std	Z+3, r27	; 0x03
 */
void
_delay_ms(double __ms)
{
	uint16_t __ticks;
	double __tmp = ((F_CPU) / 4e3) * __ms;
    3c6a:	8e 01       	movw	r16, r28
    3c6c:	0b 57       	subi	r16, 0x7B	; 123
    3c6e:	1f 4f       	sbci	r17, 0xFF	; 255
    3c70:	fe 01       	movw	r30, r28
    3c72:	e7 57       	subi	r30, 0x77	; 119
    3c74:	ff 4f       	sbci	r31, 0xFF	; 255
    3c76:	60 81       	ld	r22, Z
    3c78:	71 81       	ldd	r23, Z+1	; 0x01
    3c7a:	82 81       	ldd	r24, Z+2	; 0x02
    3c7c:	93 81       	ldd	r25, Z+3	; 0x03
    3c7e:	20 e0       	ldi	r18, 0x00	; 0
    3c80:	30 e0       	ldi	r19, 0x00	; 0
    3c82:	4a e7       	ldi	r20, 0x7A	; 122
    3c84:	53 e4       	ldi	r21, 0x43	; 67
    3c86:	0e 94 28 27 	call	0x4e50	; 0x4e50 <__mulsf3>
    3c8a:	dc 01       	movw	r26, r24
    3c8c:	cb 01       	movw	r24, r22
    3c8e:	f8 01       	movw	r30, r16
    3c90:	80 83       	st	Z, r24
    3c92:	91 83       	std	Z+1, r25	; 0x01
    3c94:	a2 83       	std	Z+2, r26	; 0x02
    3c96:	b3 83       	std	Z+3, r27	; 0x03
	if (__tmp < 1.0)
    3c98:	fe 01       	movw	r30, r28
    3c9a:	eb 57       	subi	r30, 0x7B	; 123
    3c9c:	ff 4f       	sbci	r31, 0xFF	; 255
    3c9e:	60 81       	ld	r22, Z
    3ca0:	71 81       	ldd	r23, Z+1	; 0x01
    3ca2:	82 81       	ldd	r24, Z+2	; 0x02
    3ca4:	93 81       	ldd	r25, Z+3	; 0x03
    3ca6:	20 e0       	ldi	r18, 0x00	; 0
    3ca8:	30 e0       	ldi	r19, 0x00	; 0
    3caa:	40 e8       	ldi	r20, 0x80	; 128
    3cac:	5f e3       	ldi	r21, 0x3F	; 63
    3cae:	0e 94 82 28 	call	0x5104	; 0x5104 <__ltsf2>
    3cb2:	88 23       	and	r24, r24
    3cb4:	44 f4       	brge	.+16     	; 0x3cc6 <MU2_SendDataBus+0xa4>
		__ticks = 1;
    3cb6:	fe 01       	movw	r30, r28
    3cb8:	ed 57       	subi	r30, 0x7D	; 125
    3cba:	ff 4f       	sbci	r31, 0xFF	; 255
    3cbc:	81 e0       	ldi	r24, 0x01	; 1
    3cbe:	90 e0       	ldi	r25, 0x00	; 0
    3cc0:	91 83       	std	Z+1, r25	; 0x01
    3cc2:	80 83       	st	Z, r24
    3cc4:	64 c0       	rjmp	.+200    	; 0x3d8e <MU2_SendDataBus+0x16c>
	else if (__tmp > 65535)
    3cc6:	fe 01       	movw	r30, r28
    3cc8:	eb 57       	subi	r30, 0x7B	; 123
    3cca:	ff 4f       	sbci	r31, 0xFF	; 255
    3ccc:	60 81       	ld	r22, Z
    3cce:	71 81       	ldd	r23, Z+1	; 0x01
    3cd0:	82 81       	ldd	r24, Z+2	; 0x02
    3cd2:	93 81       	ldd	r25, Z+3	; 0x03
    3cd4:	20 e0       	ldi	r18, 0x00	; 0
    3cd6:	3f ef       	ldi	r19, 0xFF	; 255
    3cd8:	4f e7       	ldi	r20, 0x7F	; 127
    3cda:	57 e4       	ldi	r21, 0x47	; 71
    3cdc:	0e 94 22 28 	call	0x5044	; 0x5044 <__gtsf2>
    3ce0:	18 16       	cp	r1, r24
    3ce2:	0c f0       	brlt	.+2      	; 0x3ce6 <MU2_SendDataBus+0xc4>
    3ce4:	43 c0       	rjmp	.+134    	; 0x3d6c <MU2_SendDataBus+0x14a>
	{
		//	__ticks = requested delay in 1/10 ms
		__ticks = (uint16_t) (__ms * 10.0);
    3ce6:	fe 01       	movw	r30, r28
    3ce8:	e7 57       	subi	r30, 0x77	; 119
    3cea:	ff 4f       	sbci	r31, 0xFF	; 255
    3cec:	60 81       	ld	r22, Z
    3cee:	71 81       	ldd	r23, Z+1	; 0x01
    3cf0:	82 81       	ldd	r24, Z+2	; 0x02
    3cf2:	93 81       	ldd	r25, Z+3	; 0x03
    3cf4:	20 e0       	ldi	r18, 0x00	; 0
    3cf6:	30 e0       	ldi	r19, 0x00	; 0
    3cf8:	40 e2       	ldi	r20, 0x20	; 32
    3cfa:	51 e4       	ldi	r21, 0x41	; 65
    3cfc:	0e 94 28 27 	call	0x4e50	; 0x4e50 <__mulsf3>
    3d00:	dc 01       	movw	r26, r24
    3d02:	cb 01       	movw	r24, r22
    3d04:	8e 01       	movw	r16, r28
    3d06:	0d 57       	subi	r16, 0x7D	; 125
    3d08:	1f 4f       	sbci	r17, 0xFF	; 255
    3d0a:	bc 01       	movw	r22, r24
    3d0c:	cd 01       	movw	r24, r26
    3d0e:	0e 94 52 25 	call	0x4aa4	; 0x4aa4 <__fixunssfsi>
    3d12:	dc 01       	movw	r26, r24
    3d14:	cb 01       	movw	r24, r22
    3d16:	f8 01       	movw	r30, r16
    3d18:	91 83       	std	Z+1, r25	; 0x01
    3d1a:	80 83       	st	Z, r24
    3d1c:	1f c0       	rjmp	.+62     	; 0x3d5c <MU2_SendDataBus+0x13a>
    3d1e:	fe 01       	movw	r30, r28
    3d20:	ef 57       	subi	r30, 0x7F	; 127
    3d22:	ff 4f       	sbci	r31, 0xFF	; 255
    3d24:	89 e1       	ldi	r24, 0x19	; 25
    3d26:	90 e0       	ldi	r25, 0x00	; 0
    3d28:	91 83       	std	Z+1, r25	; 0x01
    3d2a:	80 83       	st	Z, r24
    3d2c:	fe 01       	movw	r30, r28
    3d2e:	ef 57       	subi	r30, 0x7F	; 127
    3d30:	ff 4f       	sbci	r31, 0xFF	; 255
    3d32:	80 81       	ld	r24, Z
    3d34:	91 81       	ldd	r25, Z+1	; 0x01
    3d36:	01 97       	sbiw	r24, 0x01	; 1
    3d38:	f1 f7       	brne	.-4      	; 0x3d36 <MU2_SendDataBus+0x114>
    3d3a:	fe 01       	movw	r30, r28
    3d3c:	ef 57       	subi	r30, 0x7F	; 127
    3d3e:	ff 4f       	sbci	r31, 0xFF	; 255
    3d40:	91 83       	std	Z+1, r25	; 0x01
    3d42:	80 83       	st	Z, r24
		while(__ticks)
		{
			// wait 1/10 ms
			_delay_loop_2(((F_CPU) / 4e3) / 10);
			__ticks --;
    3d44:	de 01       	movw	r26, r28
    3d46:	ad 57       	subi	r26, 0x7D	; 125
    3d48:	bf 4f       	sbci	r27, 0xFF	; 255
    3d4a:	fe 01       	movw	r30, r28
    3d4c:	ed 57       	subi	r30, 0x7D	; 125
    3d4e:	ff 4f       	sbci	r31, 0xFF	; 255
    3d50:	80 81       	ld	r24, Z
    3d52:	91 81       	ldd	r25, Z+1	; 0x01
    3d54:	01 97       	sbiw	r24, 0x01	; 1
    3d56:	11 96       	adiw	r26, 0x01	; 1
    3d58:	9c 93       	st	X, r25
    3d5a:	8e 93       	st	-X, r24
		__ticks = 1;
	else if (__tmp > 65535)
	{
		//	__ticks = requested delay in 1/10 ms
		__ticks = (uint16_t) (__ms * 10.0);
		while(__ticks)
    3d5c:	fe 01       	movw	r30, r28
    3d5e:	ed 57       	subi	r30, 0x7D	; 125
    3d60:	ff 4f       	sbci	r31, 0xFF	; 255
    3d62:	80 81       	ld	r24, Z
    3d64:	91 81       	ldd	r25, Z+1	; 0x01
    3d66:	00 97       	sbiw	r24, 0x00	; 0
    3d68:	d1 f6       	brne	.-76     	; 0x3d1e <MU2_SendDataBus+0xfc>
    3d6a:	27 c0       	rjmp	.+78     	; 0x3dba <MU2_SendDataBus+0x198>
			__ticks --;
		}
		return;
	}
	else
		__ticks = (uint16_t)__tmp;
    3d6c:	8e 01       	movw	r16, r28
    3d6e:	0d 57       	subi	r16, 0x7D	; 125
    3d70:	1f 4f       	sbci	r17, 0xFF	; 255
    3d72:	fe 01       	movw	r30, r28
    3d74:	eb 57       	subi	r30, 0x7B	; 123
    3d76:	ff 4f       	sbci	r31, 0xFF	; 255
    3d78:	60 81       	ld	r22, Z
    3d7a:	71 81       	ldd	r23, Z+1	; 0x01
    3d7c:	82 81       	ldd	r24, Z+2	; 0x02
    3d7e:	93 81       	ldd	r25, Z+3	; 0x03
    3d80:	0e 94 52 25 	call	0x4aa4	; 0x4aa4 <__fixunssfsi>
    3d84:	dc 01       	movw	r26, r24
    3d86:	cb 01       	movw	r24, r22
    3d88:	f8 01       	movw	r30, r16
    3d8a:	91 83       	std	Z+1, r25	; 0x01
    3d8c:	80 83       	st	Z, r24
    3d8e:	de 01       	movw	r26, r28
    3d90:	a1 58       	subi	r26, 0x81	; 129
    3d92:	bf 4f       	sbci	r27, 0xFF	; 255
    3d94:	fe 01       	movw	r30, r28
    3d96:	ed 57       	subi	r30, 0x7D	; 125
    3d98:	ff 4f       	sbci	r31, 0xFF	; 255
    3d9a:	80 81       	ld	r24, Z
    3d9c:	91 81       	ldd	r25, Z+1	; 0x01
    3d9e:	8d 93       	st	X+, r24
    3da0:	9c 93       	st	X, r25
    3da2:	fe 01       	movw	r30, r28
    3da4:	e1 58       	subi	r30, 0x81	; 129
    3da6:	ff 4f       	sbci	r31, 0xFF	; 255
    3da8:	80 81       	ld	r24, Z
    3daa:	91 81       	ldd	r25, Z+1	; 0x01
    3dac:	01 97       	sbiw	r24, 0x01	; 1
    3dae:	f1 f7       	brne	.-4      	; 0x3dac <MU2_SendDataBus+0x18a>
    3db0:	fe 01       	movw	r30, r28
    3db2:	e1 58       	subi	r30, 0x81	; 129
    3db4:	ff 4f       	sbci	r31, 0xFF	; 255
    3db6:	91 83       	std	Z+1, r25	; 0x01
    3db8:	80 83       	st	Z, r24
	_delay_ms(TIME);
	// Command Name
	MU2_TxChar('D');_delay_ms(TIME);	MU2_TxChar('R');_delay_ms(TIME);
    3dba:	84 e4       	ldi	r24, 0x44	; 68
    3dbc:	0e 94 95 16 	call	0x2d2a	; 0x2d2a <MU2_TxChar>
    3dc0:	fe 01       	movw	r30, r28
    3dc2:	e5 58       	subi	r30, 0x85	; 133
    3dc4:	ff 4f       	sbci	r31, 0xFF	; 255
    3dc6:	80 e0       	ldi	r24, 0x00	; 0
    3dc8:	90 e0       	ldi	r25, 0x00	; 0
    3dca:	a0 e2       	ldi	r26, 0x20	; 32
    3dcc:	b2 e4       	ldi	r27, 0x42	; 66
    3dce:	80 83       	st	Z, r24
    3dd0:	91 83       	std	Z+1, r25	; 0x01
    3dd2:	a2 83       	std	Z+2, r26	; 0x02
    3dd4:	b3 83       	std	Z+3, r27	; 0x03
 */
void
_delay_ms(double __ms)
{
	uint16_t __ticks;
	double __tmp = ((F_CPU) / 4e3) * __ms;
    3dd6:	8e 01       	movw	r16, r28
    3dd8:	09 58       	subi	r16, 0x89	; 137
    3dda:	1f 4f       	sbci	r17, 0xFF	; 255
    3ddc:	fe 01       	movw	r30, r28
    3dde:	e5 58       	subi	r30, 0x85	; 133
    3de0:	ff 4f       	sbci	r31, 0xFF	; 255
    3de2:	60 81       	ld	r22, Z
    3de4:	71 81       	ldd	r23, Z+1	; 0x01
    3de6:	82 81       	ldd	r24, Z+2	; 0x02
    3de8:	93 81       	ldd	r25, Z+3	; 0x03
    3dea:	20 e0       	ldi	r18, 0x00	; 0
    3dec:	30 e0       	ldi	r19, 0x00	; 0
    3dee:	4a e7       	ldi	r20, 0x7A	; 122
    3df0:	53 e4       	ldi	r21, 0x43	; 67
    3df2:	0e 94 28 27 	call	0x4e50	; 0x4e50 <__mulsf3>
    3df6:	dc 01       	movw	r26, r24
    3df8:	cb 01       	movw	r24, r22
    3dfa:	f8 01       	movw	r30, r16
    3dfc:	80 83       	st	Z, r24
    3dfe:	91 83       	std	Z+1, r25	; 0x01
    3e00:	a2 83       	std	Z+2, r26	; 0x02
    3e02:	b3 83       	std	Z+3, r27	; 0x03
	if (__tmp < 1.0)
    3e04:	fe 01       	movw	r30, r28
    3e06:	e9 58       	subi	r30, 0x89	; 137
    3e08:	ff 4f       	sbci	r31, 0xFF	; 255
    3e0a:	60 81       	ld	r22, Z
    3e0c:	71 81       	ldd	r23, Z+1	; 0x01
    3e0e:	82 81       	ldd	r24, Z+2	; 0x02
    3e10:	93 81       	ldd	r25, Z+3	; 0x03
    3e12:	20 e0       	ldi	r18, 0x00	; 0
    3e14:	30 e0       	ldi	r19, 0x00	; 0
    3e16:	40 e8       	ldi	r20, 0x80	; 128
    3e18:	5f e3       	ldi	r21, 0x3F	; 63
    3e1a:	0e 94 82 28 	call	0x5104	; 0x5104 <__ltsf2>
    3e1e:	88 23       	and	r24, r24
    3e20:	44 f4       	brge	.+16     	; 0x3e32 <MU2_SendDataBus+0x210>
		__ticks = 1;
    3e22:	fe 01       	movw	r30, r28
    3e24:	eb 58       	subi	r30, 0x8B	; 139
    3e26:	ff 4f       	sbci	r31, 0xFF	; 255
    3e28:	81 e0       	ldi	r24, 0x01	; 1
    3e2a:	90 e0       	ldi	r25, 0x00	; 0
    3e2c:	91 83       	std	Z+1, r25	; 0x01
    3e2e:	80 83       	st	Z, r24
    3e30:	64 c0       	rjmp	.+200    	; 0x3efa <MU2_SendDataBus+0x2d8>
	else if (__tmp > 65535)
    3e32:	fe 01       	movw	r30, r28
    3e34:	e9 58       	subi	r30, 0x89	; 137
    3e36:	ff 4f       	sbci	r31, 0xFF	; 255
    3e38:	60 81       	ld	r22, Z
    3e3a:	71 81       	ldd	r23, Z+1	; 0x01
    3e3c:	82 81       	ldd	r24, Z+2	; 0x02
    3e3e:	93 81       	ldd	r25, Z+3	; 0x03
    3e40:	20 e0       	ldi	r18, 0x00	; 0
    3e42:	3f ef       	ldi	r19, 0xFF	; 255
    3e44:	4f e7       	ldi	r20, 0x7F	; 127
    3e46:	57 e4       	ldi	r21, 0x47	; 71
    3e48:	0e 94 22 28 	call	0x5044	; 0x5044 <__gtsf2>
    3e4c:	18 16       	cp	r1, r24
    3e4e:	0c f0       	brlt	.+2      	; 0x3e52 <MU2_SendDataBus+0x230>
    3e50:	43 c0       	rjmp	.+134    	; 0x3ed8 <MU2_SendDataBus+0x2b6>
	{
		//	__ticks = requested delay in 1/10 ms
		__ticks = (uint16_t) (__ms * 10.0);
    3e52:	fe 01       	movw	r30, r28
    3e54:	e5 58       	subi	r30, 0x85	; 133
    3e56:	ff 4f       	sbci	r31, 0xFF	; 255
    3e58:	60 81       	ld	r22, Z
    3e5a:	71 81       	ldd	r23, Z+1	; 0x01
    3e5c:	82 81       	ldd	r24, Z+2	; 0x02
    3e5e:	93 81       	ldd	r25, Z+3	; 0x03
    3e60:	20 e0       	ldi	r18, 0x00	; 0
    3e62:	30 e0       	ldi	r19, 0x00	; 0
    3e64:	40 e2       	ldi	r20, 0x20	; 32
    3e66:	51 e4       	ldi	r21, 0x41	; 65
    3e68:	0e 94 28 27 	call	0x4e50	; 0x4e50 <__mulsf3>
    3e6c:	dc 01       	movw	r26, r24
    3e6e:	cb 01       	movw	r24, r22
    3e70:	8e 01       	movw	r16, r28
    3e72:	0b 58       	subi	r16, 0x8B	; 139
    3e74:	1f 4f       	sbci	r17, 0xFF	; 255
    3e76:	bc 01       	movw	r22, r24
    3e78:	cd 01       	movw	r24, r26
    3e7a:	0e 94 52 25 	call	0x4aa4	; 0x4aa4 <__fixunssfsi>
    3e7e:	dc 01       	movw	r26, r24
    3e80:	cb 01       	movw	r24, r22
    3e82:	f8 01       	movw	r30, r16
    3e84:	91 83       	std	Z+1, r25	; 0x01
    3e86:	80 83       	st	Z, r24
    3e88:	1f c0       	rjmp	.+62     	; 0x3ec8 <MU2_SendDataBus+0x2a6>
    3e8a:	fe 01       	movw	r30, r28
    3e8c:	ed 58       	subi	r30, 0x8D	; 141
    3e8e:	ff 4f       	sbci	r31, 0xFF	; 255
    3e90:	89 e1       	ldi	r24, 0x19	; 25
    3e92:	90 e0       	ldi	r25, 0x00	; 0
    3e94:	91 83       	std	Z+1, r25	; 0x01
    3e96:	80 83       	st	Z, r24
    3e98:	fe 01       	movw	r30, r28
    3e9a:	ed 58       	subi	r30, 0x8D	; 141
    3e9c:	ff 4f       	sbci	r31, 0xFF	; 255
    3e9e:	80 81       	ld	r24, Z
    3ea0:	91 81       	ldd	r25, Z+1	; 0x01
    3ea2:	01 97       	sbiw	r24, 0x01	; 1
    3ea4:	f1 f7       	brne	.-4      	; 0x3ea2 <MU2_SendDataBus+0x280>
    3ea6:	fe 01       	movw	r30, r28
    3ea8:	ed 58       	subi	r30, 0x8D	; 141
    3eaa:	ff 4f       	sbci	r31, 0xFF	; 255
    3eac:	91 83       	std	Z+1, r25	; 0x01
    3eae:	80 83       	st	Z, r24
		while(__ticks)
		{
			// wait 1/10 ms
			_delay_loop_2(((F_CPU) / 4e3) / 10);
			__ticks --;
    3eb0:	de 01       	movw	r26, r28
    3eb2:	ab 58       	subi	r26, 0x8B	; 139
    3eb4:	bf 4f       	sbci	r27, 0xFF	; 255
    3eb6:	fe 01       	movw	r30, r28
    3eb8:	eb 58       	subi	r30, 0x8B	; 139
    3eba:	ff 4f       	sbci	r31, 0xFF	; 255
    3ebc:	80 81       	ld	r24, Z
    3ebe:	91 81       	ldd	r25, Z+1	; 0x01
    3ec0:	01 97       	sbiw	r24, 0x01	; 1
    3ec2:	11 96       	adiw	r26, 0x01	; 1
    3ec4:	9c 93       	st	X, r25
    3ec6:	8e 93       	st	-X, r24
		__ticks = 1;
	else if (__tmp > 65535)
	{
		//	__ticks = requested delay in 1/10 ms
		__ticks = (uint16_t) (__ms * 10.0);
		while(__ticks)
    3ec8:	fe 01       	movw	r30, r28
    3eca:	eb 58       	subi	r30, 0x8B	; 139
    3ecc:	ff 4f       	sbci	r31, 0xFF	; 255
    3ece:	80 81       	ld	r24, Z
    3ed0:	91 81       	ldd	r25, Z+1	; 0x01
    3ed2:	00 97       	sbiw	r24, 0x00	; 0
    3ed4:	d1 f6       	brne	.-76     	; 0x3e8a <MU2_SendDataBus+0x268>
    3ed6:	27 c0       	rjmp	.+78     	; 0x3f26 <MU2_SendDataBus+0x304>
			__ticks --;
		}
		return;
	}
	else
		__ticks = (uint16_t)__tmp;
    3ed8:	8e 01       	movw	r16, r28
    3eda:	0b 58       	subi	r16, 0x8B	; 139
    3edc:	1f 4f       	sbci	r17, 0xFF	; 255
    3ede:	fe 01       	movw	r30, r28
    3ee0:	e9 58       	subi	r30, 0x89	; 137
    3ee2:	ff 4f       	sbci	r31, 0xFF	; 255
    3ee4:	60 81       	ld	r22, Z
    3ee6:	71 81       	ldd	r23, Z+1	; 0x01
    3ee8:	82 81       	ldd	r24, Z+2	; 0x02
    3eea:	93 81       	ldd	r25, Z+3	; 0x03
    3eec:	0e 94 52 25 	call	0x4aa4	; 0x4aa4 <__fixunssfsi>
    3ef0:	dc 01       	movw	r26, r24
    3ef2:	cb 01       	movw	r24, r22
    3ef4:	f8 01       	movw	r30, r16
    3ef6:	91 83       	std	Z+1, r25	; 0x01
    3ef8:	80 83       	st	Z, r24
    3efa:	de 01       	movw	r26, r28
    3efc:	af 58       	subi	r26, 0x8F	; 143
    3efe:	bf 4f       	sbci	r27, 0xFF	; 255
    3f00:	fe 01       	movw	r30, r28
    3f02:	eb 58       	subi	r30, 0x8B	; 139
    3f04:	ff 4f       	sbci	r31, 0xFF	; 255
    3f06:	80 81       	ld	r24, Z
    3f08:	91 81       	ldd	r25, Z+1	; 0x01
    3f0a:	8d 93       	st	X+, r24
    3f0c:	9c 93       	st	X, r25
    3f0e:	fe 01       	movw	r30, r28
    3f10:	ef 58       	subi	r30, 0x8F	; 143
    3f12:	ff 4f       	sbci	r31, 0xFF	; 255
    3f14:	80 81       	ld	r24, Z
    3f16:	91 81       	ldd	r25, Z+1	; 0x01
    3f18:	01 97       	sbiw	r24, 0x01	; 1
    3f1a:	f1 f7       	brne	.-4      	; 0x3f18 <MU2_SendDataBus+0x2f6>
    3f1c:	fe 01       	movw	r30, r28
    3f1e:	ef 58       	subi	r30, 0x8F	; 143
    3f20:	ff 4f       	sbci	r31, 0xFF	; 255
    3f22:	91 83       	std	Z+1, r25	; 0x01
    3f24:	80 83       	st	Z, r24
    3f26:	82 e5       	ldi	r24, 0x52	; 82
    3f28:	0e 94 95 16 	call	0x2d2a	; 0x2d2a <MU2_TxChar>
    3f2c:	fe 01       	movw	r30, r28
    3f2e:	e3 59       	subi	r30, 0x93	; 147
    3f30:	ff 4f       	sbci	r31, 0xFF	; 255
    3f32:	80 e0       	ldi	r24, 0x00	; 0
    3f34:	90 e0       	ldi	r25, 0x00	; 0
    3f36:	a0 e2       	ldi	r26, 0x20	; 32
    3f38:	b2 e4       	ldi	r27, 0x42	; 66
    3f3a:	80 83       	st	Z, r24
    3f3c:	91 83       	std	Z+1, r25	; 0x01
    3f3e:	a2 83       	std	Z+2, r26	; 0x02
    3f40:	b3 83       	std	Z+3, r27	; 0x03
 */
void
_delay_ms(double __ms)
{
	uint16_t __ticks;
	double __tmp = ((F_CPU) / 4e3) * __ms;
    3f42:	8e 01       	movw	r16, r28
    3f44:	07 59       	subi	r16, 0x97	; 151
    3f46:	1f 4f       	sbci	r17, 0xFF	; 255
    3f48:	fe 01       	movw	r30, r28
    3f4a:	e3 59       	subi	r30, 0x93	; 147
    3f4c:	ff 4f       	sbci	r31, 0xFF	; 255
    3f4e:	60 81       	ld	r22, Z
    3f50:	71 81       	ldd	r23, Z+1	; 0x01
    3f52:	82 81       	ldd	r24, Z+2	; 0x02
    3f54:	93 81       	ldd	r25, Z+3	; 0x03
    3f56:	20 e0       	ldi	r18, 0x00	; 0
    3f58:	30 e0       	ldi	r19, 0x00	; 0
    3f5a:	4a e7       	ldi	r20, 0x7A	; 122
    3f5c:	53 e4       	ldi	r21, 0x43	; 67
    3f5e:	0e 94 28 27 	call	0x4e50	; 0x4e50 <__mulsf3>
    3f62:	dc 01       	movw	r26, r24
    3f64:	cb 01       	movw	r24, r22
    3f66:	f8 01       	movw	r30, r16
    3f68:	80 83       	st	Z, r24
    3f6a:	91 83       	std	Z+1, r25	; 0x01
    3f6c:	a2 83       	std	Z+2, r26	; 0x02
    3f6e:	b3 83       	std	Z+3, r27	; 0x03
	if (__tmp < 1.0)
    3f70:	fe 01       	movw	r30, r28
    3f72:	e7 59       	subi	r30, 0x97	; 151
    3f74:	ff 4f       	sbci	r31, 0xFF	; 255
    3f76:	60 81       	ld	r22, Z
    3f78:	71 81       	ldd	r23, Z+1	; 0x01
    3f7a:	82 81       	ldd	r24, Z+2	; 0x02
    3f7c:	93 81       	ldd	r25, Z+3	; 0x03
    3f7e:	20 e0       	ldi	r18, 0x00	; 0
    3f80:	30 e0       	ldi	r19, 0x00	; 0
    3f82:	40 e8       	ldi	r20, 0x80	; 128
    3f84:	5f e3       	ldi	r21, 0x3F	; 63
    3f86:	0e 94 82 28 	call	0x5104	; 0x5104 <__ltsf2>
    3f8a:	88 23       	and	r24, r24
    3f8c:	44 f4       	brge	.+16     	; 0x3f9e <MU2_SendDataBus+0x37c>
		__ticks = 1;
    3f8e:	fe 01       	movw	r30, r28
    3f90:	e9 59       	subi	r30, 0x99	; 153
    3f92:	ff 4f       	sbci	r31, 0xFF	; 255
    3f94:	81 e0       	ldi	r24, 0x01	; 1
    3f96:	90 e0       	ldi	r25, 0x00	; 0
    3f98:	91 83       	std	Z+1, r25	; 0x01
    3f9a:	80 83       	st	Z, r24
    3f9c:	64 c0       	rjmp	.+200    	; 0x4066 <MU2_SendDataBus+0x444>
	else if (__tmp > 65535)
    3f9e:	fe 01       	movw	r30, r28
    3fa0:	e7 59       	subi	r30, 0x97	; 151
    3fa2:	ff 4f       	sbci	r31, 0xFF	; 255
    3fa4:	60 81       	ld	r22, Z
    3fa6:	71 81       	ldd	r23, Z+1	; 0x01
    3fa8:	82 81       	ldd	r24, Z+2	; 0x02
    3faa:	93 81       	ldd	r25, Z+3	; 0x03
    3fac:	20 e0       	ldi	r18, 0x00	; 0
    3fae:	3f ef       	ldi	r19, 0xFF	; 255
    3fb0:	4f e7       	ldi	r20, 0x7F	; 127
    3fb2:	57 e4       	ldi	r21, 0x47	; 71
    3fb4:	0e 94 22 28 	call	0x5044	; 0x5044 <__gtsf2>
    3fb8:	18 16       	cp	r1, r24
    3fba:	0c f0       	brlt	.+2      	; 0x3fbe <MU2_SendDataBus+0x39c>
    3fbc:	43 c0       	rjmp	.+134    	; 0x4044 <MU2_SendDataBus+0x422>
	{
		//	__ticks = requested delay in 1/10 ms
		__ticks = (uint16_t) (__ms * 10.0);
    3fbe:	fe 01       	movw	r30, r28
    3fc0:	e3 59       	subi	r30, 0x93	; 147
    3fc2:	ff 4f       	sbci	r31, 0xFF	; 255
    3fc4:	60 81       	ld	r22, Z
    3fc6:	71 81       	ldd	r23, Z+1	; 0x01
    3fc8:	82 81       	ldd	r24, Z+2	; 0x02
    3fca:	93 81       	ldd	r25, Z+3	; 0x03
    3fcc:	20 e0       	ldi	r18, 0x00	; 0
    3fce:	30 e0       	ldi	r19, 0x00	; 0
    3fd0:	40 e2       	ldi	r20, 0x20	; 32
    3fd2:	51 e4       	ldi	r21, 0x41	; 65
    3fd4:	0e 94 28 27 	call	0x4e50	; 0x4e50 <__mulsf3>
    3fd8:	dc 01       	movw	r26, r24
    3fda:	cb 01       	movw	r24, r22
    3fdc:	8e 01       	movw	r16, r28
    3fde:	09 59       	subi	r16, 0x99	; 153
    3fe0:	1f 4f       	sbci	r17, 0xFF	; 255
    3fe2:	bc 01       	movw	r22, r24
    3fe4:	cd 01       	movw	r24, r26
    3fe6:	0e 94 52 25 	call	0x4aa4	; 0x4aa4 <__fixunssfsi>
    3fea:	dc 01       	movw	r26, r24
    3fec:	cb 01       	movw	r24, r22
    3fee:	f8 01       	movw	r30, r16
    3ff0:	91 83       	std	Z+1, r25	; 0x01
    3ff2:	80 83       	st	Z, r24
    3ff4:	1f c0       	rjmp	.+62     	; 0x4034 <MU2_SendDataBus+0x412>
    3ff6:	fe 01       	movw	r30, r28
    3ff8:	eb 59       	subi	r30, 0x9B	; 155
    3ffa:	ff 4f       	sbci	r31, 0xFF	; 255
    3ffc:	89 e1       	ldi	r24, 0x19	; 25
    3ffe:	90 e0       	ldi	r25, 0x00	; 0
    4000:	91 83       	std	Z+1, r25	; 0x01
    4002:	80 83       	st	Z, r24
    4004:	fe 01       	movw	r30, r28
    4006:	eb 59       	subi	r30, 0x9B	; 155
    4008:	ff 4f       	sbci	r31, 0xFF	; 255
    400a:	80 81       	ld	r24, Z
    400c:	91 81       	ldd	r25, Z+1	; 0x01
    400e:	01 97       	sbiw	r24, 0x01	; 1
    4010:	f1 f7       	brne	.-4      	; 0x400e <MU2_SendDataBus+0x3ec>
    4012:	fe 01       	movw	r30, r28
    4014:	eb 59       	subi	r30, 0x9B	; 155
    4016:	ff 4f       	sbci	r31, 0xFF	; 255
    4018:	91 83       	std	Z+1, r25	; 0x01
    401a:	80 83       	st	Z, r24
		while(__ticks)
		{
			// wait 1/10 ms
			_delay_loop_2(((F_CPU) / 4e3) / 10);
			__ticks --;
    401c:	de 01       	movw	r26, r28
    401e:	a9 59       	subi	r26, 0x99	; 153
    4020:	bf 4f       	sbci	r27, 0xFF	; 255
    4022:	fe 01       	movw	r30, r28
    4024:	e9 59       	subi	r30, 0x99	; 153
    4026:	ff 4f       	sbci	r31, 0xFF	; 255
    4028:	80 81       	ld	r24, Z
    402a:	91 81       	ldd	r25, Z+1	; 0x01
    402c:	01 97       	sbiw	r24, 0x01	; 1
    402e:	11 96       	adiw	r26, 0x01	; 1
    4030:	9c 93       	st	X, r25
    4032:	8e 93       	st	-X, r24
		__ticks = 1;
	else if (__tmp > 65535)
	{
		//	__ticks = requested delay in 1/10 ms
		__ticks = (uint16_t) (__ms * 10.0);
		while(__ticks)
    4034:	fe 01       	movw	r30, r28
    4036:	e9 59       	subi	r30, 0x99	; 153
    4038:	ff 4f       	sbci	r31, 0xFF	; 255
    403a:	80 81       	ld	r24, Z
    403c:	91 81       	ldd	r25, Z+1	; 0x01
    403e:	00 97       	sbiw	r24, 0x00	; 0
    4040:	d1 f6       	brne	.-76     	; 0x3ff6 <MU2_SendDataBus+0x3d4>
    4042:	27 c0       	rjmp	.+78     	; 0x4092 <MU2_SendDataBus+0x470>
			__ticks --;
		}
		return;
	}
	else
		__ticks = (uint16_t)__tmp;
    4044:	8e 01       	movw	r16, r28
    4046:	09 59       	subi	r16, 0x99	; 153
    4048:	1f 4f       	sbci	r17, 0xFF	; 255
    404a:	fe 01       	movw	r30, r28
    404c:	e7 59       	subi	r30, 0x97	; 151
    404e:	ff 4f       	sbci	r31, 0xFF	; 255
    4050:	60 81       	ld	r22, Z
    4052:	71 81       	ldd	r23, Z+1	; 0x01
    4054:	82 81       	ldd	r24, Z+2	; 0x02
    4056:	93 81       	ldd	r25, Z+3	; 0x03
    4058:	0e 94 52 25 	call	0x4aa4	; 0x4aa4 <__fixunssfsi>
    405c:	dc 01       	movw	r26, r24
    405e:	cb 01       	movw	r24, r22
    4060:	f8 01       	movw	r30, r16
    4062:	91 83       	std	Z+1, r25	; 0x01
    4064:	80 83       	st	Z, r24
    4066:	de 01       	movw	r26, r28
    4068:	ad 59       	subi	r26, 0x9D	; 157
    406a:	bf 4f       	sbci	r27, 0xFF	; 255
    406c:	fe 01       	movw	r30, r28
    406e:	e9 59       	subi	r30, 0x99	; 153
    4070:	ff 4f       	sbci	r31, 0xFF	; 255
    4072:	80 81       	ld	r24, Z
    4074:	91 81       	ldd	r25, Z+1	; 0x01
    4076:	8d 93       	st	X+, r24
    4078:	9c 93       	st	X, r25
    407a:	fe 01       	movw	r30, r28
    407c:	ed 59       	subi	r30, 0x9D	; 157
    407e:	ff 4f       	sbci	r31, 0xFF	; 255
    4080:	80 81       	ld	r24, Z
    4082:	91 81       	ldd	r25, Z+1	; 0x01
    4084:	01 97       	sbiw	r24, 0x01	; 1
    4086:	f1 f7       	brne	.-4      	; 0x4084 <MU2_SendDataBus+0x462>
    4088:	fe 01       	movw	r30, r28
    408a:	ed 59       	subi	r30, 0x9D	; 157
    408c:	ff 4f       	sbci	r31, 0xFF	; 255
    408e:	91 83       	std	Z+1, r25	; 0x01
    4090:	80 83       	st	Z, r24
	MU2_TxChar('=');_delay_ms(TIME);
    4092:	8d e3       	ldi	r24, 0x3D	; 61
    4094:	0e 94 95 16 	call	0x2d2a	; 0x2d2a <MU2_TxChar>
    4098:	fe 01       	movw	r30, r28
    409a:	e1 5a       	subi	r30, 0xA1	; 161
    409c:	ff 4f       	sbci	r31, 0xFF	; 255
    409e:	80 e0       	ldi	r24, 0x00	; 0
    40a0:	90 e0       	ldi	r25, 0x00	; 0
    40a2:	a0 e2       	ldi	r26, 0x20	; 32
    40a4:	b2 e4       	ldi	r27, 0x42	; 66
    40a6:	80 83       	st	Z, r24
    40a8:	91 83       	std	Z+1, r25	; 0x01
    40aa:	a2 83       	std	Z+2, r26	; 0x02
    40ac:	b3 83       	std	Z+3, r27	; 0x03
 */
void
_delay_ms(double __ms)
{
	uint16_t __ticks;
	double __tmp = ((F_CPU) / 4e3) * __ms;
    40ae:	8e 01       	movw	r16, r28
    40b0:	05 5a       	subi	r16, 0xA5	; 165
    40b2:	1f 4f       	sbci	r17, 0xFF	; 255
    40b4:	fe 01       	movw	r30, r28
    40b6:	e1 5a       	subi	r30, 0xA1	; 161
    40b8:	ff 4f       	sbci	r31, 0xFF	; 255
    40ba:	60 81       	ld	r22, Z
    40bc:	71 81       	ldd	r23, Z+1	; 0x01
    40be:	82 81       	ldd	r24, Z+2	; 0x02
    40c0:	93 81       	ldd	r25, Z+3	; 0x03
    40c2:	20 e0       	ldi	r18, 0x00	; 0
    40c4:	30 e0       	ldi	r19, 0x00	; 0
    40c6:	4a e7       	ldi	r20, 0x7A	; 122
    40c8:	53 e4       	ldi	r21, 0x43	; 67
    40ca:	0e 94 28 27 	call	0x4e50	; 0x4e50 <__mulsf3>
    40ce:	dc 01       	movw	r26, r24
    40d0:	cb 01       	movw	r24, r22
    40d2:	f8 01       	movw	r30, r16
    40d4:	80 83       	st	Z, r24
    40d6:	91 83       	std	Z+1, r25	; 0x01
    40d8:	a2 83       	std	Z+2, r26	; 0x02
    40da:	b3 83       	std	Z+3, r27	; 0x03
	if (__tmp < 1.0)
    40dc:	fe 01       	movw	r30, r28
    40de:	e5 5a       	subi	r30, 0xA5	; 165
    40e0:	ff 4f       	sbci	r31, 0xFF	; 255
    40e2:	60 81       	ld	r22, Z
    40e4:	71 81       	ldd	r23, Z+1	; 0x01
    40e6:	82 81       	ldd	r24, Z+2	; 0x02
    40e8:	93 81       	ldd	r25, Z+3	; 0x03
    40ea:	20 e0       	ldi	r18, 0x00	; 0
    40ec:	30 e0       	ldi	r19, 0x00	; 0
    40ee:	40 e8       	ldi	r20, 0x80	; 128
    40f0:	5f e3       	ldi	r21, 0x3F	; 63
    40f2:	0e 94 82 28 	call	0x5104	; 0x5104 <__ltsf2>
    40f6:	88 23       	and	r24, r24
    40f8:	44 f4       	brge	.+16     	; 0x410a <MU2_SendDataBus+0x4e8>
		__ticks = 1;
    40fa:	fe 01       	movw	r30, r28
    40fc:	e7 5a       	subi	r30, 0xA7	; 167
    40fe:	ff 4f       	sbci	r31, 0xFF	; 255
    4100:	81 e0       	ldi	r24, 0x01	; 1
    4102:	90 e0       	ldi	r25, 0x00	; 0
    4104:	91 83       	std	Z+1, r25	; 0x01
    4106:	80 83       	st	Z, r24
    4108:	64 c0       	rjmp	.+200    	; 0x41d2 <MU2_SendDataBus+0x5b0>
	else if (__tmp > 65535)
    410a:	fe 01       	movw	r30, r28
    410c:	e5 5a       	subi	r30, 0xA5	; 165
    410e:	ff 4f       	sbci	r31, 0xFF	; 255
    4110:	60 81       	ld	r22, Z
    4112:	71 81       	ldd	r23, Z+1	; 0x01
    4114:	82 81       	ldd	r24, Z+2	; 0x02
    4116:	93 81       	ldd	r25, Z+3	; 0x03
    4118:	20 e0       	ldi	r18, 0x00	; 0
    411a:	3f ef       	ldi	r19, 0xFF	; 255
    411c:	4f e7       	ldi	r20, 0x7F	; 127
    411e:	57 e4       	ldi	r21, 0x47	; 71
    4120:	0e 94 22 28 	call	0x5044	; 0x5044 <__gtsf2>
    4124:	18 16       	cp	r1, r24
    4126:	0c f0       	brlt	.+2      	; 0x412a <MU2_SendDataBus+0x508>
    4128:	43 c0       	rjmp	.+134    	; 0x41b0 <MU2_SendDataBus+0x58e>
	{
		//	__ticks = requested delay in 1/10 ms
		__ticks = (uint16_t) (__ms * 10.0);
    412a:	fe 01       	movw	r30, r28
    412c:	e1 5a       	subi	r30, 0xA1	; 161
    412e:	ff 4f       	sbci	r31, 0xFF	; 255
    4130:	60 81       	ld	r22, Z
    4132:	71 81       	ldd	r23, Z+1	; 0x01
    4134:	82 81       	ldd	r24, Z+2	; 0x02
    4136:	93 81       	ldd	r25, Z+3	; 0x03
    4138:	20 e0       	ldi	r18, 0x00	; 0
    413a:	30 e0       	ldi	r19, 0x00	; 0
    413c:	40 e2       	ldi	r20, 0x20	; 32
    413e:	51 e4       	ldi	r21, 0x41	; 65
    4140:	0e 94 28 27 	call	0x4e50	; 0x4e50 <__mulsf3>
    4144:	dc 01       	movw	r26, r24
    4146:	cb 01       	movw	r24, r22
    4148:	8e 01       	movw	r16, r28
    414a:	07 5a       	subi	r16, 0xA7	; 167
    414c:	1f 4f       	sbci	r17, 0xFF	; 255
    414e:	bc 01       	movw	r22, r24
    4150:	cd 01       	movw	r24, r26
    4152:	0e 94 52 25 	call	0x4aa4	; 0x4aa4 <__fixunssfsi>
    4156:	dc 01       	movw	r26, r24
    4158:	cb 01       	movw	r24, r22
    415a:	f8 01       	movw	r30, r16
    415c:	91 83       	std	Z+1, r25	; 0x01
    415e:	80 83       	st	Z, r24
    4160:	1f c0       	rjmp	.+62     	; 0x41a0 <MU2_SendDataBus+0x57e>
    4162:	fe 01       	movw	r30, r28
    4164:	e9 5a       	subi	r30, 0xA9	; 169
    4166:	ff 4f       	sbci	r31, 0xFF	; 255
    4168:	89 e1       	ldi	r24, 0x19	; 25
    416a:	90 e0       	ldi	r25, 0x00	; 0
    416c:	91 83       	std	Z+1, r25	; 0x01
    416e:	80 83       	st	Z, r24
    4170:	fe 01       	movw	r30, r28
    4172:	e9 5a       	subi	r30, 0xA9	; 169
    4174:	ff 4f       	sbci	r31, 0xFF	; 255
    4176:	80 81       	ld	r24, Z
    4178:	91 81       	ldd	r25, Z+1	; 0x01
    417a:	01 97       	sbiw	r24, 0x01	; 1
    417c:	f1 f7       	brne	.-4      	; 0x417a <MU2_SendDataBus+0x558>
    417e:	fe 01       	movw	r30, r28
    4180:	e9 5a       	subi	r30, 0xA9	; 169
    4182:	ff 4f       	sbci	r31, 0xFF	; 255
    4184:	91 83       	std	Z+1, r25	; 0x01
    4186:	80 83       	st	Z, r24
		while(__ticks)
		{
			// wait 1/10 ms
			_delay_loop_2(((F_CPU) / 4e3) / 10);
			__ticks --;
    4188:	de 01       	movw	r26, r28
    418a:	a7 5a       	subi	r26, 0xA7	; 167
    418c:	bf 4f       	sbci	r27, 0xFF	; 255
    418e:	fe 01       	movw	r30, r28
    4190:	e7 5a       	subi	r30, 0xA7	; 167
    4192:	ff 4f       	sbci	r31, 0xFF	; 255
    4194:	80 81       	ld	r24, Z
    4196:	91 81       	ldd	r25, Z+1	; 0x01
    4198:	01 97       	sbiw	r24, 0x01	; 1
    419a:	11 96       	adiw	r26, 0x01	; 1
    419c:	9c 93       	st	X, r25
    419e:	8e 93       	st	-X, r24
		__ticks = 1;
	else if (__tmp > 65535)
	{
		//	__ticks = requested delay in 1/10 ms
		__ticks = (uint16_t) (__ms * 10.0);
		while(__ticks)
    41a0:	fe 01       	movw	r30, r28
    41a2:	e7 5a       	subi	r30, 0xA7	; 167
    41a4:	ff 4f       	sbci	r31, 0xFF	; 255
    41a6:	80 81       	ld	r24, Z
    41a8:	91 81       	ldd	r25, Z+1	; 0x01
    41aa:	00 97       	sbiw	r24, 0x00	; 0
    41ac:	d1 f6       	brne	.-76     	; 0x4162 <MU2_SendDataBus+0x540>
    41ae:	27 c0       	rjmp	.+78     	; 0x41fe <MU2_SendDataBus+0x5dc>
			__ticks --;
		}
		return;
	}
	else
		__ticks = (uint16_t)__tmp;
    41b0:	8e 01       	movw	r16, r28
    41b2:	07 5a       	subi	r16, 0xA7	; 167
    41b4:	1f 4f       	sbci	r17, 0xFF	; 255
    41b6:	fe 01       	movw	r30, r28
    41b8:	e5 5a       	subi	r30, 0xA5	; 165
    41ba:	ff 4f       	sbci	r31, 0xFF	; 255
    41bc:	60 81       	ld	r22, Z
    41be:	71 81       	ldd	r23, Z+1	; 0x01
    41c0:	82 81       	ldd	r24, Z+2	; 0x02
    41c2:	93 81       	ldd	r25, Z+3	; 0x03
    41c4:	0e 94 52 25 	call	0x4aa4	; 0x4aa4 <__fixunssfsi>
    41c8:	dc 01       	movw	r26, r24
    41ca:	cb 01       	movw	r24, r22
    41cc:	f8 01       	movw	r30, r16
    41ce:	91 83       	std	Z+1, r25	; 0x01
    41d0:	80 83       	st	Z, r24
    41d2:	de 01       	movw	r26, r28
    41d4:	ab 5a       	subi	r26, 0xAB	; 171
    41d6:	bf 4f       	sbci	r27, 0xFF	; 255
    41d8:	fe 01       	movw	r30, r28
    41da:	e7 5a       	subi	r30, 0xA7	; 167
    41dc:	ff 4f       	sbci	r31, 0xFF	; 255
    41de:	80 81       	ld	r24, Z
    41e0:	91 81       	ldd	r25, Z+1	; 0x01
    41e2:	8d 93       	st	X+, r24
    41e4:	9c 93       	st	X, r25
    41e6:	fe 01       	movw	r30, r28
    41e8:	eb 5a       	subi	r30, 0xAB	; 171
    41ea:	ff 4f       	sbci	r31, 0xFF	; 255
    41ec:	80 81       	ld	r24, Z
    41ee:	91 81       	ldd	r25, Z+1	; 0x01
    41f0:	01 97       	sbiw	r24, 0x01	; 1
    41f2:	f1 f7       	brne	.-4      	; 0x41f0 <MU2_SendDataBus+0x5ce>
    41f4:	fe 01       	movw	r30, r28
    41f6:	eb 5a       	subi	r30, 0xAB	; 171
    41f8:	ff 4f       	sbci	r31, 0xFF	; 255
    41fa:	91 83       	std	Z+1, r25	; 0x01
    41fc:	80 83       	st	Z, r24

	// Data Size
	Byte2Str(len, size);_delay_ms(TIME);
    41fe:	fe 01       	movw	r30, r28
    4200:	ee 56       	subi	r30, 0x6E	; 110
    4202:	ff 4f       	sbci	r31, 0xFF	; 255
    4204:	9e 01       	movw	r18, r28
    4206:	23 57       	subi	r18, 0x73	; 115
    4208:	3f 4f       	sbci	r19, 0xFF	; 255
    420a:	80 81       	ld	r24, Z
    420c:	b9 01       	movw	r22, r18
    420e:	0e 94 91 1c 	call	0x3922	; 0x3922 <Byte2Str>
    4212:	fe 01       	movw	r30, r28
    4214:	ef 5a       	subi	r30, 0xAF	; 175
    4216:	ff 4f       	sbci	r31, 0xFF	; 255
    4218:	80 e0       	ldi	r24, 0x00	; 0
    421a:	90 e0       	ldi	r25, 0x00	; 0
    421c:	a0 e2       	ldi	r26, 0x20	; 32
    421e:	b2 e4       	ldi	r27, 0x42	; 66
    4220:	80 83       	st	Z, r24
    4222:	91 83       	std	Z+1, r25	; 0x01
    4224:	a2 83       	std	Z+2, r26	; 0x02
    4226:	b3 83       	std	Z+3, r27	; 0x03
 */
void
_delay_ms(double __ms)
{
	uint16_t __ticks;
	double __tmp = ((F_CPU) / 4e3) * __ms;
    4228:	8e 01       	movw	r16, r28
    422a:	03 5b       	subi	r16, 0xB3	; 179
    422c:	1f 4f       	sbci	r17, 0xFF	; 255
    422e:	fe 01       	movw	r30, r28
    4230:	ef 5a       	subi	r30, 0xAF	; 175
    4232:	ff 4f       	sbci	r31, 0xFF	; 255
    4234:	60 81       	ld	r22, Z
    4236:	71 81       	ldd	r23, Z+1	; 0x01
    4238:	82 81       	ldd	r24, Z+2	; 0x02
    423a:	93 81       	ldd	r25, Z+3	; 0x03
    423c:	20 e0       	ldi	r18, 0x00	; 0
    423e:	30 e0       	ldi	r19, 0x00	; 0
    4240:	4a e7       	ldi	r20, 0x7A	; 122
    4242:	53 e4       	ldi	r21, 0x43	; 67
    4244:	0e 94 28 27 	call	0x4e50	; 0x4e50 <__mulsf3>
    4248:	dc 01       	movw	r26, r24
    424a:	cb 01       	movw	r24, r22
    424c:	f8 01       	movw	r30, r16
    424e:	80 83       	st	Z, r24
    4250:	91 83       	std	Z+1, r25	; 0x01
    4252:	a2 83       	std	Z+2, r26	; 0x02
    4254:	b3 83       	std	Z+3, r27	; 0x03
	if (__tmp < 1.0)
    4256:	fe 01       	movw	r30, r28
    4258:	e3 5b       	subi	r30, 0xB3	; 179
    425a:	ff 4f       	sbci	r31, 0xFF	; 255
    425c:	60 81       	ld	r22, Z
    425e:	71 81       	ldd	r23, Z+1	; 0x01
    4260:	82 81       	ldd	r24, Z+2	; 0x02
    4262:	93 81       	ldd	r25, Z+3	; 0x03
    4264:	20 e0       	ldi	r18, 0x00	; 0
    4266:	30 e0       	ldi	r19, 0x00	; 0
    4268:	40 e8       	ldi	r20, 0x80	; 128
    426a:	5f e3       	ldi	r21, 0x3F	; 63
    426c:	0e 94 82 28 	call	0x5104	; 0x5104 <__ltsf2>
    4270:	88 23       	and	r24, r24
    4272:	44 f4       	brge	.+16     	; 0x4284 <MU2_SendDataBus+0x662>
		__ticks = 1;
    4274:	fe 01       	movw	r30, r28
    4276:	e5 5b       	subi	r30, 0xB5	; 181
    4278:	ff 4f       	sbci	r31, 0xFF	; 255
    427a:	81 e0       	ldi	r24, 0x01	; 1
    427c:	90 e0       	ldi	r25, 0x00	; 0
    427e:	91 83       	std	Z+1, r25	; 0x01
    4280:	80 83       	st	Z, r24
    4282:	64 c0       	rjmp	.+200    	; 0x434c <MU2_SendDataBus+0x72a>
	else if (__tmp > 65535)
    4284:	fe 01       	movw	r30, r28
    4286:	e3 5b       	subi	r30, 0xB3	; 179
    4288:	ff 4f       	sbci	r31, 0xFF	; 255
    428a:	60 81       	ld	r22, Z
    428c:	71 81       	ldd	r23, Z+1	; 0x01
    428e:	82 81       	ldd	r24, Z+2	; 0x02
    4290:	93 81       	ldd	r25, Z+3	; 0x03
    4292:	20 e0       	ldi	r18, 0x00	; 0
    4294:	3f ef       	ldi	r19, 0xFF	; 255
    4296:	4f e7       	ldi	r20, 0x7F	; 127
    4298:	57 e4       	ldi	r21, 0x47	; 71
    429a:	0e 94 22 28 	call	0x5044	; 0x5044 <__gtsf2>
    429e:	18 16       	cp	r1, r24
    42a0:	0c f0       	brlt	.+2      	; 0x42a4 <MU2_SendDataBus+0x682>
    42a2:	43 c0       	rjmp	.+134    	; 0x432a <MU2_SendDataBus+0x708>
	{
		//	__ticks = requested delay in 1/10 ms
		__ticks = (uint16_t) (__ms * 10.0);
    42a4:	fe 01       	movw	r30, r28
    42a6:	ef 5a       	subi	r30, 0xAF	; 175
    42a8:	ff 4f       	sbci	r31, 0xFF	; 255
    42aa:	60 81       	ld	r22, Z
    42ac:	71 81       	ldd	r23, Z+1	; 0x01
    42ae:	82 81       	ldd	r24, Z+2	; 0x02
    42b0:	93 81       	ldd	r25, Z+3	; 0x03
    42b2:	20 e0       	ldi	r18, 0x00	; 0
    42b4:	30 e0       	ldi	r19, 0x00	; 0
    42b6:	40 e2       	ldi	r20, 0x20	; 32
    42b8:	51 e4       	ldi	r21, 0x41	; 65
    42ba:	0e 94 28 27 	call	0x4e50	; 0x4e50 <__mulsf3>
    42be:	dc 01       	movw	r26, r24
    42c0:	cb 01       	movw	r24, r22
    42c2:	8e 01       	movw	r16, r28
    42c4:	05 5b       	subi	r16, 0xB5	; 181
    42c6:	1f 4f       	sbci	r17, 0xFF	; 255
    42c8:	bc 01       	movw	r22, r24
    42ca:	cd 01       	movw	r24, r26
    42cc:	0e 94 52 25 	call	0x4aa4	; 0x4aa4 <__fixunssfsi>
    42d0:	dc 01       	movw	r26, r24
    42d2:	cb 01       	movw	r24, r22
    42d4:	f8 01       	movw	r30, r16
    42d6:	91 83       	std	Z+1, r25	; 0x01
    42d8:	80 83       	st	Z, r24
    42da:	1f c0       	rjmp	.+62     	; 0x431a <MU2_SendDataBus+0x6f8>
    42dc:	fe 01       	movw	r30, r28
    42de:	e7 5b       	subi	r30, 0xB7	; 183
    42e0:	ff 4f       	sbci	r31, 0xFF	; 255
    42e2:	89 e1       	ldi	r24, 0x19	; 25
    42e4:	90 e0       	ldi	r25, 0x00	; 0
    42e6:	91 83       	std	Z+1, r25	; 0x01
    42e8:	80 83       	st	Z, r24
    42ea:	fe 01       	movw	r30, r28
    42ec:	e7 5b       	subi	r30, 0xB7	; 183
    42ee:	ff 4f       	sbci	r31, 0xFF	; 255
    42f0:	80 81       	ld	r24, Z
    42f2:	91 81       	ldd	r25, Z+1	; 0x01
    42f4:	01 97       	sbiw	r24, 0x01	; 1
    42f6:	f1 f7       	brne	.-4      	; 0x42f4 <MU2_SendDataBus+0x6d2>
    42f8:	fe 01       	movw	r30, r28
    42fa:	e7 5b       	subi	r30, 0xB7	; 183
    42fc:	ff 4f       	sbci	r31, 0xFF	; 255
    42fe:	91 83       	std	Z+1, r25	; 0x01
    4300:	80 83       	st	Z, r24
		while(__ticks)
		{
			// wait 1/10 ms
			_delay_loop_2(((F_CPU) / 4e3) / 10);
			__ticks --;
    4302:	de 01       	movw	r26, r28
    4304:	a5 5b       	subi	r26, 0xB5	; 181
    4306:	bf 4f       	sbci	r27, 0xFF	; 255
    4308:	fe 01       	movw	r30, r28
    430a:	e5 5b       	subi	r30, 0xB5	; 181
    430c:	ff 4f       	sbci	r31, 0xFF	; 255
    430e:	80 81       	ld	r24, Z
    4310:	91 81       	ldd	r25, Z+1	; 0x01
    4312:	01 97       	sbiw	r24, 0x01	; 1
    4314:	11 96       	adiw	r26, 0x01	; 1
    4316:	9c 93       	st	X, r25
    4318:	8e 93       	st	-X, r24
		__ticks = 1;
	else if (__tmp > 65535)
	{
		//	__ticks = requested delay in 1/10 ms
		__ticks = (uint16_t) (__ms * 10.0);
		while(__ticks)
    431a:	fe 01       	movw	r30, r28
    431c:	e5 5b       	subi	r30, 0xB5	; 181
    431e:	ff 4f       	sbci	r31, 0xFF	; 255
    4320:	80 81       	ld	r24, Z
    4322:	91 81       	ldd	r25, Z+1	; 0x01
    4324:	00 97       	sbiw	r24, 0x00	; 0
    4326:	d1 f6       	brne	.-76     	; 0x42dc <MU2_SendDataBus+0x6ba>
    4328:	27 c0       	rjmp	.+78     	; 0x4378 <MU2_SendDataBus+0x756>
			__ticks --;
		}
		return;
	}
	else
		__ticks = (uint16_t)__tmp;
    432a:	8e 01       	movw	r16, r28
    432c:	05 5b       	subi	r16, 0xB5	; 181
    432e:	1f 4f       	sbci	r17, 0xFF	; 255
    4330:	fe 01       	movw	r30, r28
    4332:	e3 5b       	subi	r30, 0xB3	; 179
    4334:	ff 4f       	sbci	r31, 0xFF	; 255
    4336:	60 81       	ld	r22, Z
    4338:	71 81       	ldd	r23, Z+1	; 0x01
    433a:	82 81       	ldd	r24, Z+2	; 0x02
    433c:	93 81       	ldd	r25, Z+3	; 0x03
    433e:	0e 94 52 25 	call	0x4aa4	; 0x4aa4 <__fixunssfsi>
    4342:	dc 01       	movw	r26, r24
    4344:	cb 01       	movw	r24, r22
    4346:	f8 01       	movw	r30, r16
    4348:	91 83       	std	Z+1, r25	; 0x01
    434a:	80 83       	st	Z, r24
    434c:	de 01       	movw	r26, r28
    434e:	a9 5b       	subi	r26, 0xB9	; 185
    4350:	bf 4f       	sbci	r27, 0xFF	; 255
    4352:	fe 01       	movw	r30, r28
    4354:	e5 5b       	subi	r30, 0xB5	; 181
    4356:	ff 4f       	sbci	r31, 0xFF	; 255
    4358:	80 81       	ld	r24, Z
    435a:	91 81       	ldd	r25, Z+1	; 0x01
    435c:	8d 93       	st	X+, r24
    435e:	9c 93       	st	X, r25
    4360:	fe 01       	movw	r30, r28
    4362:	e9 5b       	subi	r30, 0xB9	; 185
    4364:	ff 4f       	sbci	r31, 0xFF	; 255
    4366:	80 81       	ld	r24, Z
    4368:	91 81       	ldd	r25, Z+1	; 0x01
    436a:	01 97       	sbiw	r24, 0x01	; 1
    436c:	f1 f7       	brne	.-4      	; 0x436a <MU2_SendDataBus+0x748>
    436e:	fe 01       	movw	r30, r28
    4370:	e9 5b       	subi	r30, 0xB9	; 185
    4372:	ff 4f       	sbci	r31, 0xFF	; 255
    4374:	91 83       	std	Z+1, r25	; 0x01
    4376:	80 83       	st	Z, r24
	MU2_TxChar(size[0]);_delay_ms(TIME);
    4378:	fe 01       	movw	r30, r28
    437a:	e3 57       	subi	r30, 0x73	; 115
    437c:	ff 4f       	sbci	r31, 0xFF	; 255
    437e:	80 81       	ld	r24, Z
    4380:	0e 94 95 16 	call	0x2d2a	; 0x2d2a <MU2_TxChar>
    4384:	fe 01       	movw	r30, r28
    4386:	ed 5b       	subi	r30, 0xBD	; 189
    4388:	ff 4f       	sbci	r31, 0xFF	; 255
    438a:	80 e0       	ldi	r24, 0x00	; 0
    438c:	90 e0       	ldi	r25, 0x00	; 0
    438e:	a0 e2       	ldi	r26, 0x20	; 32
    4390:	b2 e4       	ldi	r27, 0x42	; 66
    4392:	80 83       	st	Z, r24
    4394:	91 83       	std	Z+1, r25	; 0x01
    4396:	a2 83       	std	Z+2, r26	; 0x02
    4398:	b3 83       	std	Z+3, r27	; 0x03
 */
void
_delay_ms(double __ms)
{
	uint16_t __ticks;
	double __tmp = ((F_CPU) / 4e3) * __ms;
    439a:	8e 01       	movw	r16, r28
    439c:	01 5c       	subi	r16, 0xC1	; 193
    439e:	1f 4f       	sbci	r17, 0xFF	; 255
    43a0:	fe 01       	movw	r30, r28
    43a2:	ed 5b       	subi	r30, 0xBD	; 189
    43a4:	ff 4f       	sbci	r31, 0xFF	; 255
    43a6:	60 81       	ld	r22, Z
    43a8:	71 81       	ldd	r23, Z+1	; 0x01
    43aa:	82 81       	ldd	r24, Z+2	; 0x02
    43ac:	93 81       	ldd	r25, Z+3	; 0x03
    43ae:	20 e0       	ldi	r18, 0x00	; 0
    43b0:	30 e0       	ldi	r19, 0x00	; 0
    43b2:	4a e7       	ldi	r20, 0x7A	; 122
    43b4:	53 e4       	ldi	r21, 0x43	; 67
    43b6:	0e 94 28 27 	call	0x4e50	; 0x4e50 <__mulsf3>
    43ba:	dc 01       	movw	r26, r24
    43bc:	cb 01       	movw	r24, r22
    43be:	f8 01       	movw	r30, r16
    43c0:	80 83       	st	Z, r24
    43c2:	91 83       	std	Z+1, r25	; 0x01
    43c4:	a2 83       	std	Z+2, r26	; 0x02
    43c6:	b3 83       	std	Z+3, r27	; 0x03
	if (__tmp < 1.0)
    43c8:	fe 01       	movw	r30, r28
    43ca:	ff 96       	adiw	r30, 0x3f	; 63
    43cc:	60 81       	ld	r22, Z
    43ce:	71 81       	ldd	r23, Z+1	; 0x01
    43d0:	82 81       	ldd	r24, Z+2	; 0x02
    43d2:	93 81       	ldd	r25, Z+3	; 0x03
    43d4:	20 e0       	ldi	r18, 0x00	; 0
    43d6:	30 e0       	ldi	r19, 0x00	; 0
    43d8:	40 e8       	ldi	r20, 0x80	; 128
    43da:	5f e3       	ldi	r21, 0x3F	; 63
    43dc:	0e 94 82 28 	call	0x5104	; 0x5104 <__ltsf2>
    43e0:	88 23       	and	r24, r24
    43e2:	2c f4       	brge	.+10     	; 0x43ee <MU2_SendDataBus+0x7cc>
		__ticks = 1;
    43e4:	81 e0       	ldi	r24, 0x01	; 1
    43e6:	90 e0       	ldi	r25, 0x00	; 0
    43e8:	9e af       	std	Y+62, r25	; 0x3e
    43ea:	8d af       	std	Y+61, r24	; 0x3d
    43ec:	46 c0       	rjmp	.+140    	; 0x447a <MU2_SendDataBus+0x858>
	else if (__tmp > 65535)
    43ee:	fe 01       	movw	r30, r28
    43f0:	ff 96       	adiw	r30, 0x3f	; 63
    43f2:	60 81       	ld	r22, Z
    43f4:	71 81       	ldd	r23, Z+1	; 0x01
    43f6:	82 81       	ldd	r24, Z+2	; 0x02
    43f8:	93 81       	ldd	r25, Z+3	; 0x03
    43fa:	20 e0       	ldi	r18, 0x00	; 0
    43fc:	3f ef       	ldi	r19, 0xFF	; 255
    43fe:	4f e7       	ldi	r20, 0x7F	; 127
    4400:	57 e4       	ldi	r21, 0x47	; 71
    4402:	0e 94 22 28 	call	0x5044	; 0x5044 <__gtsf2>
    4406:	18 16       	cp	r1, r24
    4408:	64 f5       	brge	.+88     	; 0x4462 <MU2_SendDataBus+0x840>
	{
		//	__ticks = requested delay in 1/10 ms
		__ticks = (uint16_t) (__ms * 10.0);
    440a:	fe 01       	movw	r30, r28
    440c:	ed 5b       	subi	r30, 0xBD	; 189
    440e:	ff 4f       	sbci	r31, 0xFF	; 255
    4410:	60 81       	ld	r22, Z
    4412:	71 81       	ldd	r23, Z+1	; 0x01
    4414:	82 81       	ldd	r24, Z+2	; 0x02
    4416:	93 81       	ldd	r25, Z+3	; 0x03
    4418:	20 e0       	ldi	r18, 0x00	; 0
    441a:	30 e0       	ldi	r19, 0x00	; 0
    441c:	40 e2       	ldi	r20, 0x20	; 32
    441e:	51 e4       	ldi	r21, 0x41	; 65
    4420:	0e 94 28 27 	call	0x4e50	; 0x4e50 <__mulsf3>
    4424:	dc 01       	movw	r26, r24
    4426:	cb 01       	movw	r24, r22
    4428:	bc 01       	movw	r22, r24
    442a:	cd 01       	movw	r24, r26
    442c:	0e 94 52 25 	call	0x4aa4	; 0x4aa4 <__fixunssfsi>
    4430:	dc 01       	movw	r26, r24
    4432:	cb 01       	movw	r24, r22
    4434:	9e af       	std	Y+62, r25	; 0x3e
    4436:	8d af       	std	Y+61, r24	; 0x3d
    4438:	0f c0       	rjmp	.+30     	; 0x4458 <MU2_SendDataBus+0x836>
    443a:	89 e1       	ldi	r24, 0x19	; 25
    443c:	90 e0       	ldi	r25, 0x00	; 0
    443e:	9c af       	std	Y+60, r25	; 0x3c
    4440:	8b af       	std	Y+59, r24	; 0x3b
    4442:	8b ad       	ldd	r24, Y+59	; 0x3b
    4444:	9c ad       	ldd	r25, Y+60	; 0x3c
    4446:	01 97       	sbiw	r24, 0x01	; 1
    4448:	f1 f7       	brne	.-4      	; 0x4446 <MU2_SendDataBus+0x824>
    444a:	9c af       	std	Y+60, r25	; 0x3c
    444c:	8b af       	std	Y+59, r24	; 0x3b
		while(__ticks)
		{
			// wait 1/10 ms
			_delay_loop_2(((F_CPU) / 4e3) / 10);
			__ticks --;
    444e:	8d ad       	ldd	r24, Y+61	; 0x3d
    4450:	9e ad       	ldd	r25, Y+62	; 0x3e
    4452:	01 97       	sbiw	r24, 0x01	; 1
    4454:	9e af       	std	Y+62, r25	; 0x3e
    4456:	8d af       	std	Y+61, r24	; 0x3d
		__ticks = 1;
	else if (__tmp > 65535)
	{
		//	__ticks = requested delay in 1/10 ms
		__ticks = (uint16_t) (__ms * 10.0);
		while(__ticks)
    4458:	8d ad       	ldd	r24, Y+61	; 0x3d
    445a:	9e ad       	ldd	r25, Y+62	; 0x3e
    445c:	00 97       	sbiw	r24, 0x00	; 0
    445e:	69 f7       	brne	.-38     	; 0x443a <MU2_SendDataBus+0x818>
    4460:	16 c0       	rjmp	.+44     	; 0x448e <MU2_SendDataBus+0x86c>
			__ticks --;
		}
		return;
	}
	else
		__ticks = (uint16_t)__tmp;
    4462:	fe 01       	movw	r30, r28
    4464:	ff 96       	adiw	r30, 0x3f	; 63
    4466:	60 81       	ld	r22, Z
    4468:	71 81       	ldd	r23, Z+1	; 0x01
    446a:	82 81       	ldd	r24, Z+2	; 0x02
    446c:	93 81       	ldd	r25, Z+3	; 0x03
    446e:	0e 94 52 25 	call	0x4aa4	; 0x4aa4 <__fixunssfsi>
    4472:	dc 01       	movw	r26, r24
    4474:	cb 01       	movw	r24, r22
    4476:	9e af       	std	Y+62, r25	; 0x3e
    4478:	8d af       	std	Y+61, r24	; 0x3d
    447a:	8d ad       	ldd	r24, Y+61	; 0x3d
    447c:	9e ad       	ldd	r25, Y+62	; 0x3e
    447e:	9a af       	std	Y+58, r25	; 0x3a
    4480:	89 af       	std	Y+57, r24	; 0x39
    4482:	89 ad       	ldd	r24, Y+57	; 0x39
    4484:	9a ad       	ldd	r25, Y+58	; 0x3a
    4486:	01 97       	sbiw	r24, 0x01	; 1
    4488:	f1 f7       	brne	.-4      	; 0x4486 <MU2_SendDataBus+0x864>
    448a:	9a af       	std	Y+58, r25	; 0x3a
    448c:	89 af       	std	Y+57, r24	; 0x39
	MU2_TxChar(size[1]);_delay_ms(TIME);
    448e:	fe 01       	movw	r30, r28
    4490:	e3 57       	subi	r30, 0x73	; 115
    4492:	ff 4f       	sbci	r31, 0xFF	; 255
    4494:	81 81       	ldd	r24, Z+1	; 0x01
    4496:	0e 94 95 16 	call	0x2d2a	; 0x2d2a <MU2_TxChar>
    449a:	80 e0       	ldi	r24, 0x00	; 0
    449c:	90 e0       	ldi	r25, 0x00	; 0
    449e:	a0 e2       	ldi	r26, 0x20	; 32
    44a0:	b2 e4       	ldi	r27, 0x42	; 66
    44a2:	8d ab       	std	Y+53, r24	; 0x35
    44a4:	9e ab       	std	Y+54, r25	; 0x36
    44a6:	af ab       	std	Y+55, r26	; 0x37
    44a8:	b8 af       	std	Y+56, r27	; 0x38
 */
void
_delay_ms(double __ms)
{
	uint16_t __ticks;
	double __tmp = ((F_CPU) / 4e3) * __ms;
    44aa:	6d a9       	ldd	r22, Y+53	; 0x35
    44ac:	7e a9       	ldd	r23, Y+54	; 0x36
    44ae:	8f a9       	ldd	r24, Y+55	; 0x37
    44b0:	98 ad       	ldd	r25, Y+56	; 0x38
    44b2:	20 e0       	ldi	r18, 0x00	; 0
    44b4:	30 e0       	ldi	r19, 0x00	; 0
    44b6:	4a e7       	ldi	r20, 0x7A	; 122
    44b8:	53 e4       	ldi	r21, 0x43	; 67
    44ba:	0e 94 28 27 	call	0x4e50	; 0x4e50 <__mulsf3>
    44be:	dc 01       	movw	r26, r24
    44c0:	cb 01       	movw	r24, r22
    44c2:	89 ab       	std	Y+49, r24	; 0x31
    44c4:	9a ab       	std	Y+50, r25	; 0x32
    44c6:	ab ab       	std	Y+51, r26	; 0x33
    44c8:	bc ab       	std	Y+52, r27	; 0x34
	if (__tmp < 1.0)
    44ca:	69 a9       	ldd	r22, Y+49	; 0x31
    44cc:	7a a9       	ldd	r23, Y+50	; 0x32
    44ce:	8b a9       	ldd	r24, Y+51	; 0x33
    44d0:	9c a9       	ldd	r25, Y+52	; 0x34
    44d2:	20 e0       	ldi	r18, 0x00	; 0
    44d4:	30 e0       	ldi	r19, 0x00	; 0
    44d6:	40 e8       	ldi	r20, 0x80	; 128
    44d8:	5f e3       	ldi	r21, 0x3F	; 63
    44da:	0e 94 82 28 	call	0x5104	; 0x5104 <__ltsf2>
    44de:	88 23       	and	r24, r24
    44e0:	2c f4       	brge	.+10     	; 0x44ec <MU2_SendDataBus+0x8ca>
		__ticks = 1;
    44e2:	81 e0       	ldi	r24, 0x01	; 1
    44e4:	90 e0       	ldi	r25, 0x00	; 0
    44e6:	98 ab       	std	Y+48, r25	; 0x30
    44e8:	8f a7       	std	Y+47, r24	; 0x2f
    44ea:	3f c0       	rjmp	.+126    	; 0x456a <MU2_SendDataBus+0x948>
	else if (__tmp > 65535)
    44ec:	69 a9       	ldd	r22, Y+49	; 0x31
    44ee:	7a a9       	ldd	r23, Y+50	; 0x32
    44f0:	8b a9       	ldd	r24, Y+51	; 0x33
    44f2:	9c a9       	ldd	r25, Y+52	; 0x34
    44f4:	20 e0       	ldi	r18, 0x00	; 0
    44f6:	3f ef       	ldi	r19, 0xFF	; 255
    44f8:	4f e7       	ldi	r20, 0x7F	; 127
    44fa:	57 e4       	ldi	r21, 0x47	; 71
    44fc:	0e 94 22 28 	call	0x5044	; 0x5044 <__gtsf2>
    4500:	18 16       	cp	r1, r24
    4502:	4c f5       	brge	.+82     	; 0x4556 <MU2_SendDataBus+0x934>
	{
		//	__ticks = requested delay in 1/10 ms
		__ticks = (uint16_t) (__ms * 10.0);
    4504:	6d a9       	ldd	r22, Y+53	; 0x35
    4506:	7e a9       	ldd	r23, Y+54	; 0x36
    4508:	8f a9       	ldd	r24, Y+55	; 0x37
    450a:	98 ad       	ldd	r25, Y+56	; 0x38
    450c:	20 e0       	ldi	r18, 0x00	; 0
    450e:	30 e0       	ldi	r19, 0x00	; 0
    4510:	40 e2       	ldi	r20, 0x20	; 32
    4512:	51 e4       	ldi	r21, 0x41	; 65
    4514:	0e 94 28 27 	call	0x4e50	; 0x4e50 <__mulsf3>
    4518:	dc 01       	movw	r26, r24
    451a:	cb 01       	movw	r24, r22
    451c:	bc 01       	movw	r22, r24
    451e:	cd 01       	movw	r24, r26
    4520:	0e 94 52 25 	call	0x4aa4	; 0x4aa4 <__fixunssfsi>
    4524:	dc 01       	movw	r26, r24
    4526:	cb 01       	movw	r24, r22
    4528:	98 ab       	std	Y+48, r25	; 0x30
    452a:	8f a7       	std	Y+47, r24	; 0x2f
    452c:	0f c0       	rjmp	.+30     	; 0x454c <MU2_SendDataBus+0x92a>
    452e:	89 e1       	ldi	r24, 0x19	; 25
    4530:	90 e0       	ldi	r25, 0x00	; 0
    4532:	9e a7       	std	Y+46, r25	; 0x2e
    4534:	8d a7       	std	Y+45, r24	; 0x2d
    4536:	8d a5       	ldd	r24, Y+45	; 0x2d
    4538:	9e a5       	ldd	r25, Y+46	; 0x2e
    453a:	01 97       	sbiw	r24, 0x01	; 1
    453c:	f1 f7       	brne	.-4      	; 0x453a <MU2_SendDataBus+0x918>
    453e:	9e a7       	std	Y+46, r25	; 0x2e
    4540:	8d a7       	std	Y+45, r24	; 0x2d
		while(__ticks)
		{
			// wait 1/10 ms
			_delay_loop_2(((F_CPU) / 4e3) / 10);
			__ticks --;
    4542:	8f a5       	ldd	r24, Y+47	; 0x2f
    4544:	98 a9       	ldd	r25, Y+48	; 0x30
    4546:	01 97       	sbiw	r24, 0x01	; 1
    4548:	98 ab       	std	Y+48, r25	; 0x30
    454a:	8f a7       	std	Y+47, r24	; 0x2f
		__ticks = 1;
	else if (__tmp > 65535)
	{
		//	__ticks = requested delay in 1/10 ms
		__ticks = (uint16_t) (__ms * 10.0);
		while(__ticks)
    454c:	8f a5       	ldd	r24, Y+47	; 0x2f
    454e:	98 a9       	ldd	r25, Y+48	; 0x30
    4550:	00 97       	sbiw	r24, 0x00	; 0
    4552:	69 f7       	brne	.-38     	; 0x452e <MU2_SendDataBus+0x90c>
    4554:	9b c0       	rjmp	.+310    	; 0x468c <MU2_SendDataBus+0xa6a>
			__ticks --;
		}
		return;
	}
	else
		__ticks = (uint16_t)__tmp;
    4556:	69 a9       	ldd	r22, Y+49	; 0x31
    4558:	7a a9       	ldd	r23, Y+50	; 0x32
    455a:	8b a9       	ldd	r24, Y+51	; 0x33
    455c:	9c a9       	ldd	r25, Y+52	; 0x34
    455e:	0e 94 52 25 	call	0x4aa4	; 0x4aa4 <__fixunssfsi>
    4562:	dc 01       	movw	r26, r24
    4564:	cb 01       	movw	r24, r22
    4566:	98 ab       	std	Y+48, r25	; 0x30
    4568:	8f a7       	std	Y+47, r24	; 0x2f
    456a:	8f a5       	ldd	r24, Y+47	; 0x2f
    456c:	98 a9       	ldd	r25, Y+48	; 0x30
    456e:	9c a7       	std	Y+44, r25	; 0x2c
    4570:	8b a7       	std	Y+43, r24	; 0x2b
    4572:	8b a5       	ldd	r24, Y+43	; 0x2b
    4574:	9c a5       	ldd	r25, Y+44	; 0x2c
    4576:	01 97       	sbiw	r24, 0x01	; 1
    4578:	f1 f7       	brne	.-4      	; 0x4576 <MU2_SendDataBus+0x954>
    457a:	9c a7       	std	Y+44, r25	; 0x2c
    457c:	8b a7       	std	Y+43, r24	; 0x2b
    457e:	86 c0       	rjmp	.+268    	; 0x468c <MU2_SendDataBus+0xa6a>

	// Data
	while( len-- ){
		MU2_TxChar(*data);
    4580:	fe 01       	movw	r30, r28
    4582:	e0 57       	subi	r30, 0x70	; 112
    4584:	ff 4f       	sbci	r31, 0xFF	; 255
    4586:	01 90       	ld	r0, Z+
    4588:	f0 81       	ld	r31, Z
    458a:	e0 2d       	mov	r30, r0
    458c:	80 81       	ld	r24, Z
    458e:	0e 94 95 16 	call	0x2d2a	; 0x2d2a <MU2_TxChar>
		data++;_delay_ms(TIME);
    4592:	de 01       	movw	r26, r28
    4594:	a0 57       	subi	r26, 0x70	; 112
    4596:	bf 4f       	sbci	r27, 0xFF	; 255
    4598:	fe 01       	movw	r30, r28
    459a:	e0 57       	subi	r30, 0x70	; 112
    459c:	ff 4f       	sbci	r31, 0xFF	; 255
    459e:	80 81       	ld	r24, Z
    45a0:	91 81       	ldd	r25, Z+1	; 0x01
    45a2:	01 96       	adiw	r24, 0x01	; 1
    45a4:	8d 93       	st	X+, r24
    45a6:	9c 93       	st	X, r25
    45a8:	80 e0       	ldi	r24, 0x00	; 0
    45aa:	90 e0       	ldi	r25, 0x00	; 0
    45ac:	a0 e2       	ldi	r26, 0x20	; 32
    45ae:	b2 e4       	ldi	r27, 0x42	; 66
    45b0:	8f a3       	std	Y+39, r24	; 0x27
    45b2:	98 a7       	std	Y+40, r25	; 0x28
    45b4:	a9 a7       	std	Y+41, r26	; 0x29
    45b6:	ba a7       	std	Y+42, r27	; 0x2a
 */
void
_delay_ms(double __ms)
{
	uint16_t __ticks;
	double __tmp = ((F_CPU) / 4e3) * __ms;
    45b8:	6f a1       	ldd	r22, Y+39	; 0x27
    45ba:	78 a5       	ldd	r23, Y+40	; 0x28
    45bc:	89 a5       	ldd	r24, Y+41	; 0x29
    45be:	9a a5       	ldd	r25, Y+42	; 0x2a
    45c0:	20 e0       	ldi	r18, 0x00	; 0
    45c2:	30 e0       	ldi	r19, 0x00	; 0
    45c4:	4a e7       	ldi	r20, 0x7A	; 122
    45c6:	53 e4       	ldi	r21, 0x43	; 67
    45c8:	0e 94 28 27 	call	0x4e50	; 0x4e50 <__mulsf3>
    45cc:	dc 01       	movw	r26, r24
    45ce:	cb 01       	movw	r24, r22
    45d0:	8b a3       	std	Y+35, r24	; 0x23
    45d2:	9c a3       	std	Y+36, r25	; 0x24
    45d4:	ad a3       	std	Y+37, r26	; 0x25
    45d6:	be a3       	std	Y+38, r27	; 0x26
	if (__tmp < 1.0)
    45d8:	6b a1       	ldd	r22, Y+35	; 0x23
    45da:	7c a1       	ldd	r23, Y+36	; 0x24
    45dc:	8d a1       	ldd	r24, Y+37	; 0x25
    45de:	9e a1       	ldd	r25, Y+38	; 0x26
    45e0:	20 e0       	ldi	r18, 0x00	; 0
    45e2:	30 e0       	ldi	r19, 0x00	; 0
    45e4:	40 e8       	ldi	r20, 0x80	; 128
    45e6:	5f e3       	ldi	r21, 0x3F	; 63
    45e8:	0e 94 82 28 	call	0x5104	; 0x5104 <__ltsf2>
    45ec:	88 23       	and	r24, r24
    45ee:	2c f4       	brge	.+10     	; 0x45fa <MU2_SendDataBus+0x9d8>
		__ticks = 1;
    45f0:	81 e0       	ldi	r24, 0x01	; 1
    45f2:	90 e0       	ldi	r25, 0x00	; 0
    45f4:	9a a3       	std	Y+34, r25	; 0x22
    45f6:	89 a3       	std	Y+33, r24	; 0x21
    45f8:	3f c0       	rjmp	.+126    	; 0x4678 <MU2_SendDataBus+0xa56>
	else if (__tmp > 65535)
    45fa:	6b a1       	ldd	r22, Y+35	; 0x23
    45fc:	7c a1       	ldd	r23, Y+36	; 0x24
    45fe:	8d a1       	ldd	r24, Y+37	; 0x25
    4600:	9e a1       	ldd	r25, Y+38	; 0x26
    4602:	20 e0       	ldi	r18, 0x00	; 0
    4604:	3f ef       	ldi	r19, 0xFF	; 255
    4606:	4f e7       	ldi	r20, 0x7F	; 127
    4608:	57 e4       	ldi	r21, 0x47	; 71
    460a:	0e 94 22 28 	call	0x5044	; 0x5044 <__gtsf2>
    460e:	18 16       	cp	r1, r24
    4610:	4c f5       	brge	.+82     	; 0x4664 <MU2_SendDataBus+0xa42>
	{
		//	__ticks = requested delay in 1/10 ms
		__ticks = (uint16_t) (__ms * 10.0);
    4612:	6f a1       	ldd	r22, Y+39	; 0x27
    4614:	78 a5       	ldd	r23, Y+40	; 0x28
    4616:	89 a5       	ldd	r24, Y+41	; 0x29
    4618:	9a a5       	ldd	r25, Y+42	; 0x2a
    461a:	20 e0       	ldi	r18, 0x00	; 0
    461c:	30 e0       	ldi	r19, 0x00	; 0
    461e:	40 e2       	ldi	r20, 0x20	; 32
    4620:	51 e4       	ldi	r21, 0x41	; 65
    4622:	0e 94 28 27 	call	0x4e50	; 0x4e50 <__mulsf3>
    4626:	dc 01       	movw	r26, r24
    4628:	cb 01       	movw	r24, r22
    462a:	bc 01       	movw	r22, r24
    462c:	cd 01       	movw	r24, r26
    462e:	0e 94 52 25 	call	0x4aa4	; 0x4aa4 <__fixunssfsi>
    4632:	dc 01       	movw	r26, r24
    4634:	cb 01       	movw	r24, r22
    4636:	9a a3       	std	Y+34, r25	; 0x22
    4638:	89 a3       	std	Y+33, r24	; 0x21
    463a:	0f c0       	rjmp	.+30     	; 0x465a <MU2_SendDataBus+0xa38>
    463c:	89 e1       	ldi	r24, 0x19	; 25
    463e:	90 e0       	ldi	r25, 0x00	; 0
    4640:	98 a3       	std	Y+32, r25	; 0x20
    4642:	8f 8f       	std	Y+31, r24	; 0x1f
    4644:	8f 8d       	ldd	r24, Y+31	; 0x1f
    4646:	98 a1       	ldd	r25, Y+32	; 0x20
    4648:	01 97       	sbiw	r24, 0x01	; 1
    464a:	f1 f7       	brne	.-4      	; 0x4648 <MU2_SendDataBus+0xa26>
    464c:	98 a3       	std	Y+32, r25	; 0x20
    464e:	8f 8f       	std	Y+31, r24	; 0x1f
		while(__ticks)
		{
			// wait 1/10 ms
			_delay_loop_2(((F_CPU) / 4e3) / 10);
			__ticks --;
    4650:	89 a1       	ldd	r24, Y+33	; 0x21
    4652:	9a a1       	ldd	r25, Y+34	; 0x22
    4654:	01 97       	sbiw	r24, 0x01	; 1
    4656:	9a a3       	std	Y+34, r25	; 0x22
    4658:	89 a3       	std	Y+33, r24	; 0x21
		__ticks = 1;
	else if (__tmp > 65535)
	{
		//	__ticks = requested delay in 1/10 ms
		__ticks = (uint16_t) (__ms * 10.0);
		while(__ticks)
    465a:	89 a1       	ldd	r24, Y+33	; 0x21
    465c:	9a a1       	ldd	r25, Y+34	; 0x22
    465e:	00 97       	sbiw	r24, 0x00	; 0
    4660:	69 f7       	brne	.-38     	; 0x463c <MU2_SendDataBus+0xa1a>
    4662:	14 c0       	rjmp	.+40     	; 0x468c <MU2_SendDataBus+0xa6a>
			__ticks --;
		}
		return;
	}
	else
		__ticks = (uint16_t)__tmp;
    4664:	6b a1       	ldd	r22, Y+35	; 0x23
    4666:	7c a1       	ldd	r23, Y+36	; 0x24
    4668:	8d a1       	ldd	r24, Y+37	; 0x25
    466a:	9e a1       	ldd	r25, Y+38	; 0x26
    466c:	0e 94 52 25 	call	0x4aa4	; 0x4aa4 <__fixunssfsi>
    4670:	dc 01       	movw	r26, r24
    4672:	cb 01       	movw	r24, r22
    4674:	9a a3       	std	Y+34, r25	; 0x22
    4676:	89 a3       	std	Y+33, r24	; 0x21
    4678:	89 a1       	ldd	r24, Y+33	; 0x21
    467a:	9a a1       	ldd	r25, Y+34	; 0x22
    467c:	9e 8f       	std	Y+30, r25	; 0x1e
    467e:	8d 8f       	std	Y+29, r24	; 0x1d
    4680:	8d 8d       	ldd	r24, Y+29	; 0x1d
    4682:	9e 8d       	ldd	r25, Y+30	; 0x1e
    4684:	01 97       	sbiw	r24, 0x01	; 1
    4686:	f1 f7       	brne	.-4      	; 0x4684 <MU2_SendDataBus+0xa62>
    4688:	9e 8f       	std	Y+30, r25	; 0x1e
    468a:	8d 8f       	std	Y+29, r24	; 0x1d
	Byte2Str(len, size);_delay_ms(TIME);
	MU2_TxChar(size[0]);_delay_ms(TIME);
	MU2_TxChar(size[1]);_delay_ms(TIME);

	// Data
	while( len-- ){
    468c:	fe 01       	movw	r30, r28
    468e:	ee 56       	subi	r30, 0x6E	; 110
    4690:	ff 4f       	sbci	r31, 0xFF	; 255
    4692:	80 81       	ld	r24, Z
    4694:	cd 56       	subi	r28, 0x6D	; 109
    4696:	df 4f       	sbci	r29, 0xFF	; 255
    4698:	88 83       	st	Y, r24
    469a:	c3 59       	subi	r28, 0x93	; 147
    469c:	d0 40       	sbci	r29, 0x00	; 0
    469e:	cd 56       	subi	r28, 0x6D	; 109
    46a0:	df 4f       	sbci	r29, 0xFF	; 255
    46a2:	e8 81       	ld	r30, Y
    46a4:	c3 59       	subi	r28, 0x93	; 147
    46a6:	d0 40       	sbci	r29, 0x00	; 0
    46a8:	ee 23       	and	r30, r30
    46aa:	31 f0       	breq	.+12     	; 0x46b8 <MU2_SendDataBus+0xa96>
    46ac:	f1 e0       	ldi	r31, 0x01	; 1
    46ae:	cd 56       	subi	r28, 0x6D	; 109
    46b0:	df 4f       	sbci	r29, 0xFF	; 255
    46b2:	f8 83       	st	Y, r31
    46b4:	c3 59       	subi	r28, 0x93	; 147
    46b6:	d0 40       	sbci	r29, 0x00	; 0
    46b8:	cd 56       	subi	r28, 0x6D	; 109
    46ba:	df 4f       	sbci	r29, 0xFF	; 255
    46bc:	98 81       	ld	r25, Y
    46be:	c3 59       	subi	r28, 0x93	; 147
    46c0:	d0 40       	sbci	r29, 0x00	; 0
    46c2:	de 01       	movw	r26, r28
    46c4:	ae 56       	subi	r26, 0x6E	; 110
    46c6:	bf 4f       	sbci	r27, 0xFF	; 255
    46c8:	fe 01       	movw	r30, r28
    46ca:	ee 56       	subi	r30, 0x6E	; 110
    46cc:	ff 4f       	sbci	r31, 0xFF	; 255
    46ce:	80 81       	ld	r24, Z
    46d0:	81 50       	subi	r24, 0x01	; 1
    46d2:	8c 93       	st	X, r24
    46d4:	99 23       	and	r25, r25
    46d6:	09 f0       	breq	.+2      	; 0x46da <MU2_SendDataBus+0xab8>
    46d8:	53 cf       	rjmp	.-346    	; 0x4580 <MU2_SendDataBus+0x95e>
		MU2_TxChar(*data);
		data++;_delay_ms(TIME);
	}

	// Terminator
	MU2_TxChar('\r');_delay_ms(TIME);	MU2_TxChar('\n');_delay_ms(TIME);
    46da:	8d e0       	ldi	r24, 0x0D	; 13
    46dc:	0e 94 95 16 	call	0x2d2a	; 0x2d2a <MU2_TxChar>
    46e0:	80 e0       	ldi	r24, 0x00	; 0
    46e2:	90 e0       	ldi	r25, 0x00	; 0
    46e4:	a0 e2       	ldi	r26, 0x20	; 32
    46e6:	b2 e4       	ldi	r27, 0x42	; 66
    46e8:	89 8f       	std	Y+25, r24	; 0x19
    46ea:	9a 8f       	std	Y+26, r25	; 0x1a
    46ec:	ab 8f       	std	Y+27, r26	; 0x1b
    46ee:	bc 8f       	std	Y+28, r27	; 0x1c
 */
void
_delay_ms(double __ms)
{
	uint16_t __ticks;
	double __tmp = ((F_CPU) / 4e3) * __ms;
    46f0:	69 8d       	ldd	r22, Y+25	; 0x19
    46f2:	7a 8d       	ldd	r23, Y+26	; 0x1a
    46f4:	8b 8d       	ldd	r24, Y+27	; 0x1b
    46f6:	9c 8d       	ldd	r25, Y+28	; 0x1c
    46f8:	20 e0       	ldi	r18, 0x00	; 0
    46fa:	30 e0       	ldi	r19, 0x00	; 0
    46fc:	4a e7       	ldi	r20, 0x7A	; 122
    46fe:	53 e4       	ldi	r21, 0x43	; 67
    4700:	0e 94 28 27 	call	0x4e50	; 0x4e50 <__mulsf3>
    4704:	dc 01       	movw	r26, r24
    4706:	cb 01       	movw	r24, r22
    4708:	8d 8b       	std	Y+21, r24	; 0x15
    470a:	9e 8b       	std	Y+22, r25	; 0x16
    470c:	af 8b       	std	Y+23, r26	; 0x17
    470e:	b8 8f       	std	Y+24, r27	; 0x18
	if (__tmp < 1.0)
    4710:	6d 89       	ldd	r22, Y+21	; 0x15
    4712:	7e 89       	ldd	r23, Y+22	; 0x16
    4714:	8f 89       	ldd	r24, Y+23	; 0x17
    4716:	98 8d       	ldd	r25, Y+24	; 0x18
    4718:	20 e0       	ldi	r18, 0x00	; 0
    471a:	30 e0       	ldi	r19, 0x00	; 0
    471c:	40 e8       	ldi	r20, 0x80	; 128
    471e:	5f e3       	ldi	r21, 0x3F	; 63
    4720:	0e 94 82 28 	call	0x5104	; 0x5104 <__ltsf2>
    4724:	88 23       	and	r24, r24
    4726:	2c f4       	brge	.+10     	; 0x4732 <MU2_SendDataBus+0xb10>
		__ticks = 1;
    4728:	81 e0       	ldi	r24, 0x01	; 1
    472a:	90 e0       	ldi	r25, 0x00	; 0
    472c:	9c 8b       	std	Y+20, r25	; 0x14
    472e:	8b 8b       	std	Y+19, r24	; 0x13
    4730:	3f c0       	rjmp	.+126    	; 0x47b0 <MU2_SendDataBus+0xb8e>
	else if (__tmp > 65535)
    4732:	6d 89       	ldd	r22, Y+21	; 0x15
    4734:	7e 89       	ldd	r23, Y+22	; 0x16
    4736:	8f 89       	ldd	r24, Y+23	; 0x17
    4738:	98 8d       	ldd	r25, Y+24	; 0x18
    473a:	20 e0       	ldi	r18, 0x00	; 0
    473c:	3f ef       	ldi	r19, 0xFF	; 255
    473e:	4f e7       	ldi	r20, 0x7F	; 127
    4740:	57 e4       	ldi	r21, 0x47	; 71
    4742:	0e 94 22 28 	call	0x5044	; 0x5044 <__gtsf2>
    4746:	18 16       	cp	r1, r24
    4748:	4c f5       	brge	.+82     	; 0x479c <MU2_SendDataBus+0xb7a>
	{
		//	__ticks = requested delay in 1/10 ms
		__ticks = (uint16_t) (__ms * 10.0);
    474a:	69 8d       	ldd	r22, Y+25	; 0x19
    474c:	7a 8d       	ldd	r23, Y+26	; 0x1a
    474e:	8b 8d       	ldd	r24, Y+27	; 0x1b
    4750:	9c 8d       	ldd	r25, Y+28	; 0x1c
    4752:	20 e0       	ldi	r18, 0x00	; 0
    4754:	30 e0       	ldi	r19, 0x00	; 0
    4756:	40 e2       	ldi	r20, 0x20	; 32
    4758:	51 e4       	ldi	r21, 0x41	; 65
    475a:	0e 94 28 27 	call	0x4e50	; 0x4e50 <__mulsf3>
    475e:	dc 01       	movw	r26, r24
    4760:	cb 01       	movw	r24, r22
    4762:	bc 01       	movw	r22, r24
    4764:	cd 01       	movw	r24, r26
    4766:	0e 94 52 25 	call	0x4aa4	; 0x4aa4 <__fixunssfsi>
    476a:	dc 01       	movw	r26, r24
    476c:	cb 01       	movw	r24, r22
    476e:	9c 8b       	std	Y+20, r25	; 0x14
    4770:	8b 8b       	std	Y+19, r24	; 0x13
    4772:	0f c0       	rjmp	.+30     	; 0x4792 <MU2_SendDataBus+0xb70>
    4774:	89 e1       	ldi	r24, 0x19	; 25
    4776:	90 e0       	ldi	r25, 0x00	; 0
    4778:	9a 8b       	std	Y+18, r25	; 0x12
    477a:	89 8b       	std	Y+17, r24	; 0x11
    477c:	89 89       	ldd	r24, Y+17	; 0x11
    477e:	9a 89       	ldd	r25, Y+18	; 0x12
    4780:	01 97       	sbiw	r24, 0x01	; 1
    4782:	f1 f7       	brne	.-4      	; 0x4780 <MU2_SendDataBus+0xb5e>
    4784:	9a 8b       	std	Y+18, r25	; 0x12
    4786:	89 8b       	std	Y+17, r24	; 0x11
		while(__ticks)
		{
			// wait 1/10 ms
			_delay_loop_2(((F_CPU) / 4e3) / 10);
			__ticks --;
    4788:	8b 89       	ldd	r24, Y+19	; 0x13
    478a:	9c 89       	ldd	r25, Y+20	; 0x14
    478c:	01 97       	sbiw	r24, 0x01	; 1
    478e:	9c 8b       	std	Y+20, r25	; 0x14
    4790:	8b 8b       	std	Y+19, r24	; 0x13
		__ticks = 1;
	else if (__tmp > 65535)
	{
		//	__ticks = requested delay in 1/10 ms
		__ticks = (uint16_t) (__ms * 10.0);
		while(__ticks)
    4792:	8b 89       	ldd	r24, Y+19	; 0x13
    4794:	9c 89       	ldd	r25, Y+20	; 0x14
    4796:	00 97       	sbiw	r24, 0x00	; 0
    4798:	69 f7       	brne	.-38     	; 0x4774 <MU2_SendDataBus+0xb52>
    479a:	14 c0       	rjmp	.+40     	; 0x47c4 <MU2_SendDataBus+0xba2>
			__ticks --;
		}
		return;
	}
	else
		__ticks = (uint16_t)__tmp;
    479c:	6d 89       	ldd	r22, Y+21	; 0x15
    479e:	7e 89       	ldd	r23, Y+22	; 0x16
    47a0:	8f 89       	ldd	r24, Y+23	; 0x17
    47a2:	98 8d       	ldd	r25, Y+24	; 0x18
    47a4:	0e 94 52 25 	call	0x4aa4	; 0x4aa4 <__fixunssfsi>
    47a8:	dc 01       	movw	r26, r24
    47aa:	cb 01       	movw	r24, r22
    47ac:	9c 8b       	std	Y+20, r25	; 0x14
    47ae:	8b 8b       	std	Y+19, r24	; 0x13
    47b0:	8b 89       	ldd	r24, Y+19	; 0x13
    47b2:	9c 89       	ldd	r25, Y+20	; 0x14
    47b4:	98 8b       	std	Y+16, r25	; 0x10
    47b6:	8f 87       	std	Y+15, r24	; 0x0f
    47b8:	8f 85       	ldd	r24, Y+15	; 0x0f
    47ba:	98 89       	ldd	r25, Y+16	; 0x10
    47bc:	01 97       	sbiw	r24, 0x01	; 1
    47be:	f1 f7       	brne	.-4      	; 0x47bc <MU2_SendDataBus+0xb9a>
    47c0:	98 8b       	std	Y+16, r25	; 0x10
    47c2:	8f 87       	std	Y+15, r24	; 0x0f
    47c4:	8a e0       	ldi	r24, 0x0A	; 10
    47c6:	0e 94 95 16 	call	0x2d2a	; 0x2d2a <MU2_TxChar>
    47ca:	80 e0       	ldi	r24, 0x00	; 0
    47cc:	90 e0       	ldi	r25, 0x00	; 0
    47ce:	a0 e2       	ldi	r26, 0x20	; 32
    47d0:	b2 e4       	ldi	r27, 0x42	; 66
    47d2:	8b 87       	std	Y+11, r24	; 0x0b
    47d4:	9c 87       	std	Y+12, r25	; 0x0c
    47d6:	ad 87       	std	Y+13, r26	; 0x0d
    47d8:	be 87       	std	Y+14, r27	; 0x0e
 */
void
_delay_ms(double __ms)
{
	uint16_t __ticks;
	double __tmp = ((F_CPU) / 4e3) * __ms;
    47da:	6b 85       	ldd	r22, Y+11	; 0x0b
    47dc:	7c 85       	ldd	r23, Y+12	; 0x0c
    47de:	8d 85       	ldd	r24, Y+13	; 0x0d
    47e0:	9e 85       	ldd	r25, Y+14	; 0x0e
    47e2:	20 e0       	ldi	r18, 0x00	; 0
    47e4:	30 e0       	ldi	r19, 0x00	; 0
    47e6:	4a e7       	ldi	r20, 0x7A	; 122
    47e8:	53 e4       	ldi	r21, 0x43	; 67
    47ea:	0e 94 28 27 	call	0x4e50	; 0x4e50 <__mulsf3>
    47ee:	dc 01       	movw	r26, r24
    47f0:	cb 01       	movw	r24, r22
    47f2:	8f 83       	std	Y+7, r24	; 0x07
    47f4:	98 87       	std	Y+8, r25	; 0x08
    47f6:	a9 87       	std	Y+9, r26	; 0x09
    47f8:	ba 87       	std	Y+10, r27	; 0x0a
	if (__tmp < 1.0)
    47fa:	6f 81       	ldd	r22, Y+7	; 0x07
    47fc:	78 85       	ldd	r23, Y+8	; 0x08
    47fe:	89 85       	ldd	r24, Y+9	; 0x09
    4800:	9a 85       	ldd	r25, Y+10	; 0x0a
    4802:	20 e0       	ldi	r18, 0x00	; 0
    4804:	30 e0       	ldi	r19, 0x00	; 0
    4806:	40 e8       	ldi	r20, 0x80	; 128
    4808:	5f e3       	ldi	r21, 0x3F	; 63
    480a:	0e 94 82 28 	call	0x5104	; 0x5104 <__ltsf2>
    480e:	88 23       	and	r24, r24
    4810:	2c f4       	brge	.+10     	; 0x481c <MU2_SendDataBus+0xbfa>
		__ticks = 1;
    4812:	81 e0       	ldi	r24, 0x01	; 1
    4814:	90 e0       	ldi	r25, 0x00	; 0
    4816:	9e 83       	std	Y+6, r25	; 0x06
    4818:	8d 83       	std	Y+5, r24	; 0x05
    481a:	3f c0       	rjmp	.+126    	; 0x489a <MU2_SendDataBus+0xc78>
	else if (__tmp > 65535)
    481c:	6f 81       	ldd	r22, Y+7	; 0x07
    481e:	78 85       	ldd	r23, Y+8	; 0x08
    4820:	89 85       	ldd	r24, Y+9	; 0x09
    4822:	9a 85       	ldd	r25, Y+10	; 0x0a
    4824:	20 e0       	ldi	r18, 0x00	; 0
    4826:	3f ef       	ldi	r19, 0xFF	; 255
    4828:	4f e7       	ldi	r20, 0x7F	; 127
    482a:	57 e4       	ldi	r21, 0x47	; 71
    482c:	0e 94 22 28 	call	0x5044	; 0x5044 <__gtsf2>
    4830:	18 16       	cp	r1, r24
    4832:	4c f5       	brge	.+82     	; 0x4886 <MU2_SendDataBus+0xc64>
	{
		//	__ticks = requested delay in 1/10 ms
		__ticks = (uint16_t) (__ms * 10.0);
    4834:	6b 85       	ldd	r22, Y+11	; 0x0b
    4836:	7c 85       	ldd	r23, Y+12	; 0x0c
    4838:	8d 85       	ldd	r24, Y+13	; 0x0d
    483a:	9e 85       	ldd	r25, Y+14	; 0x0e
    483c:	20 e0       	ldi	r18, 0x00	; 0
    483e:	30 e0       	ldi	r19, 0x00	; 0
    4840:	40 e2       	ldi	r20, 0x20	; 32
    4842:	51 e4       	ldi	r21, 0x41	; 65
    4844:	0e 94 28 27 	call	0x4e50	; 0x4e50 <__mulsf3>
    4848:	dc 01       	movw	r26, r24
    484a:	cb 01       	movw	r24, r22
    484c:	bc 01       	movw	r22, r24
    484e:	cd 01       	movw	r24, r26
    4850:	0e 94 52 25 	call	0x4aa4	; 0x4aa4 <__fixunssfsi>
    4854:	dc 01       	movw	r26, r24
    4856:	cb 01       	movw	r24, r22
    4858:	9e 83       	std	Y+6, r25	; 0x06
    485a:	8d 83       	std	Y+5, r24	; 0x05
    485c:	0f c0       	rjmp	.+30     	; 0x487c <MU2_SendDataBus+0xc5a>
    485e:	89 e1       	ldi	r24, 0x19	; 25
    4860:	90 e0       	ldi	r25, 0x00	; 0
    4862:	9c 83       	std	Y+4, r25	; 0x04
    4864:	8b 83       	std	Y+3, r24	; 0x03
    4866:	8b 81       	ldd	r24, Y+3	; 0x03
    4868:	9c 81       	ldd	r25, Y+4	; 0x04
    486a:	01 97       	sbiw	r24, 0x01	; 1
    486c:	f1 f7       	brne	.-4      	; 0x486a <MU2_SendDataBus+0xc48>
    486e:	9c 83       	std	Y+4, r25	; 0x04
    4870:	8b 83       	std	Y+3, r24	; 0x03
		while(__ticks)
		{
			// wait 1/10 ms
			_delay_loop_2(((F_CPU) / 4e3) / 10);
			__ticks --;
    4872:	8d 81       	ldd	r24, Y+5	; 0x05
    4874:	9e 81       	ldd	r25, Y+6	; 0x06
    4876:	01 97       	sbiw	r24, 0x01	; 1
    4878:	9e 83       	std	Y+6, r25	; 0x06
    487a:	8d 83       	std	Y+5, r24	; 0x05
		__ticks = 1;
	else if (__tmp > 65535)
	{
		//	__ticks = requested delay in 1/10 ms
		__ticks = (uint16_t) (__ms * 10.0);
		while(__ticks)
    487c:	8d 81       	ldd	r24, Y+5	; 0x05
    487e:	9e 81       	ldd	r25, Y+6	; 0x06
    4880:	00 97       	sbiw	r24, 0x00	; 0
    4882:	69 f7       	brne	.-38     	; 0x485e <MU2_SendDataBus+0xc3c>
    4884:	14 c0       	rjmp	.+40     	; 0x48ae <MU2_SendDataBus+0xc8c>
			__ticks --;
		}
		return;
	}
	else
		__ticks = (uint16_t)__tmp;
    4886:	6f 81       	ldd	r22, Y+7	; 0x07
    4888:	78 85       	ldd	r23, Y+8	; 0x08
    488a:	89 85       	ldd	r24, Y+9	; 0x09
    488c:	9a 85       	ldd	r25, Y+10	; 0x0a
    488e:	0e 94 52 25 	call	0x4aa4	; 0x4aa4 <__fixunssfsi>
    4892:	dc 01       	movw	r26, r24
    4894:	cb 01       	movw	r24, r22
    4896:	9e 83       	std	Y+6, r25	; 0x06
    4898:	8d 83       	std	Y+5, r24	; 0x05
    489a:	8d 81       	ldd	r24, Y+5	; 0x05
    489c:	9e 81       	ldd	r25, Y+6	; 0x06
    489e:	9a 83       	std	Y+2, r25	; 0x02
    48a0:	89 83       	std	Y+1, r24	; 0x01
    48a2:	89 81       	ldd	r24, Y+1	; 0x01
    48a4:	9a 81       	ldd	r25, Y+2	; 0x02
    48a6:	01 97       	sbiw	r24, 0x01	; 1
    48a8:	f1 f7       	brne	.-4      	; 0x48a6 <MU2_SendDataBus+0xc84>
    48aa:	9a 83       	std	Y+2, r25	; 0x02
    48ac:	89 83       	std	Y+1, r24	; 0x01

    return 0;
    48ae:	80 e0       	ldi	r24, 0x00	; 0
    48b0:	90 e0       	ldi	r25, 0x00	; 0
}
    48b2:	cd 56       	subi	r28, 0x6D	; 109
    48b4:	df 4f       	sbci	r29, 0xFF	; 255
    48b6:	0f b6       	in	r0, 0x3f	; 63
    48b8:	f8 94       	cli
    48ba:	de bf       	out	0x3e, r29	; 62
    48bc:	0f be       	out	0x3f, r0	; 63
    48be:	cd bf       	out	0x3d, r28	; 61
    48c0:	cf 91       	pop	r28
    48c2:	df 91       	pop	r29
    48c4:	1f 91       	pop	r17
    48c6:	0f 91       	pop	r16
    48c8:	08 95       	ret

000048ca <RingInit>:
#include "ringbuffer.h"

void RingInit(RingBuffer *ring, unsigned char *buf, unsigned int size)
{
    48ca:	df 93       	push	r29
    48cc:	cf 93       	push	r28
    48ce:	00 d0       	rcall	.+0      	; 0x48d0 <RingInit+0x6>
    48d0:	00 d0       	rcall	.+0      	; 0x48d2 <RingInit+0x8>
    48d2:	00 d0       	rcall	.+0      	; 0x48d4 <RingInit+0xa>
    48d4:	cd b7       	in	r28, 0x3d	; 61
    48d6:	de b7       	in	r29, 0x3e	; 62
    48d8:	9a 83       	std	Y+2, r25	; 0x02
    48da:	89 83       	std	Y+1, r24	; 0x01
    48dc:	7c 83       	std	Y+4, r23	; 0x04
    48de:	6b 83       	std	Y+3, r22	; 0x03
    48e0:	5e 83       	std	Y+6, r21	; 0x06
    48e2:	4d 83       	std	Y+5, r20	; 0x05
	ring->buf = buf;
    48e4:	e9 81       	ldd	r30, Y+1	; 0x01
    48e6:	fa 81       	ldd	r31, Y+2	; 0x02
    48e8:	8b 81       	ldd	r24, Y+3	; 0x03
    48ea:	9c 81       	ldd	r25, Y+4	; 0x04
    48ec:	91 83       	std	Z+1, r25	; 0x01
    48ee:	80 83       	st	Z, r24
	ring->size = size;
    48f0:	e9 81       	ldd	r30, Y+1	; 0x01
    48f2:	fa 81       	ldd	r31, Y+2	; 0x02
    48f4:	8d 81       	ldd	r24, Y+5	; 0x05
    48f6:	9e 81       	ldd	r25, Y+6	; 0x06
    48f8:	97 83       	std	Z+7, r25	; 0x07
    48fa:	86 83       	std	Z+6, r24	; 0x06
	ring->rp = 0;
    48fc:	e9 81       	ldd	r30, Y+1	; 0x01
    48fe:	fa 81       	ldd	r31, Y+2	; 0x02
    4900:	13 82       	std	Z+3, r1	; 0x03
    4902:	12 82       	std	Z+2, r1	; 0x02
	ring->wp = 0;
    4904:	e9 81       	ldd	r30, Y+1	; 0x01
    4906:	fa 81       	ldd	r31, Y+2	; 0x02
    4908:	15 82       	std	Z+5, r1	; 0x05
    490a:	14 82       	std	Z+4, r1	; 0x04
	ring->empty = TRUE;
    490c:	e9 81       	ldd	r30, Y+1	; 0x01
    490e:	fa 81       	ldd	r31, Y+2	; 0x02
    4910:	81 e0       	ldi	r24, 0x01	; 1
    4912:	80 87       	std	Z+8, r24	; 0x08
}
    4914:	26 96       	adiw	r28, 0x06	; 6
    4916:	0f b6       	in	r0, 0x3f	; 63
    4918:	f8 94       	cli
    491a:	de bf       	out	0x3e, r29	; 62
    491c:	0f be       	out	0x3f, r0	; 63
    491e:	cd bf       	out	0x3d, r28	; 61
    4920:	cf 91       	pop	r28
    4922:	df 91       	pop	r29
    4924:	08 95       	ret

00004926 <RingPut>:

int RingPut(RingBuffer *ring, unsigned char value)
{
    4926:	df 93       	push	r29
    4928:	cf 93       	push	r28
    492a:	00 d0       	rcall	.+0      	; 0x492c <RingPut+0x6>
    492c:	00 d0       	rcall	.+0      	; 0x492e <RingPut+0x8>
    492e:	0f 92       	push	r0
    4930:	cd b7       	in	r28, 0x3d	; 61
    4932:	de b7       	in	r29, 0x3e	; 62
    4934:	9a 83       	std	Y+2, r25	; 0x02
    4936:	89 83       	std	Y+1, r24	; 0x01
    4938:	6b 83       	std	Y+3, r22	; 0x03
	if( !ring->empty && ring->rp == ring->wp ){
    493a:	e9 81       	ldd	r30, Y+1	; 0x01
    493c:	fa 81       	ldd	r31, Y+2	; 0x02
    493e:	80 85       	ldd	r24, Z+8	; 0x08
    4940:	88 23       	and	r24, r24
    4942:	71 f4       	brne	.+28     	; 0x4960 <RingPut+0x3a>
    4944:	e9 81       	ldd	r30, Y+1	; 0x01
    4946:	fa 81       	ldd	r31, Y+2	; 0x02
    4948:	22 81       	ldd	r18, Z+2	; 0x02
    494a:	33 81       	ldd	r19, Z+3	; 0x03
    494c:	e9 81       	ldd	r30, Y+1	; 0x01
    494e:	fa 81       	ldd	r31, Y+2	; 0x02
    4950:	84 81       	ldd	r24, Z+4	; 0x04
    4952:	95 81       	ldd	r25, Z+5	; 0x05
    4954:	28 17       	cp	r18, r24
    4956:	39 07       	cpc	r19, r25
    4958:	19 f4       	brne	.+6      	; 0x4960 <RingPut+0x3a>
		return FALSE;
    495a:	1d 82       	std	Y+5, r1	; 0x05
    495c:	1c 82       	std	Y+4, r1	; 0x04
    495e:	2c c0       	rjmp	.+88     	; 0x49b8 <RingPut+0x92>
	}
	ring->buf[ring->wp] = value;
    4960:	e9 81       	ldd	r30, Y+1	; 0x01
    4962:	fa 81       	ldd	r31, Y+2	; 0x02
    4964:	20 81       	ld	r18, Z
    4966:	31 81       	ldd	r19, Z+1	; 0x01
    4968:	e9 81       	ldd	r30, Y+1	; 0x01
    496a:	fa 81       	ldd	r31, Y+2	; 0x02
    496c:	84 81       	ldd	r24, Z+4	; 0x04
    496e:	95 81       	ldd	r25, Z+5	; 0x05
    4970:	f9 01       	movw	r30, r18
    4972:	e8 0f       	add	r30, r24
    4974:	f9 1f       	adc	r31, r25
    4976:	8b 81       	ldd	r24, Y+3	; 0x03
    4978:	80 83       	st	Z, r24
	ring->wp++;
    497a:	e9 81       	ldd	r30, Y+1	; 0x01
    497c:	fa 81       	ldd	r31, Y+2	; 0x02
    497e:	84 81       	ldd	r24, Z+4	; 0x04
    4980:	95 81       	ldd	r25, Z+5	; 0x05
    4982:	01 96       	adiw	r24, 0x01	; 1
    4984:	e9 81       	ldd	r30, Y+1	; 0x01
    4986:	fa 81       	ldd	r31, Y+2	; 0x02
    4988:	95 83       	std	Z+5, r25	; 0x05
    498a:	84 83       	std	Z+4, r24	; 0x04
	if( ring->wp == ring->size ) ring->wp = 0;
    498c:	e9 81       	ldd	r30, Y+1	; 0x01
    498e:	fa 81       	ldd	r31, Y+2	; 0x02
    4990:	24 81       	ldd	r18, Z+4	; 0x04
    4992:	35 81       	ldd	r19, Z+5	; 0x05
    4994:	e9 81       	ldd	r30, Y+1	; 0x01
    4996:	fa 81       	ldd	r31, Y+2	; 0x02
    4998:	86 81       	ldd	r24, Z+6	; 0x06
    499a:	97 81       	ldd	r25, Z+7	; 0x07
    499c:	28 17       	cp	r18, r24
    499e:	39 07       	cpc	r19, r25
    49a0:	21 f4       	brne	.+8      	; 0x49aa <RingPut+0x84>
    49a2:	e9 81       	ldd	r30, Y+1	; 0x01
    49a4:	fa 81       	ldd	r31, Y+2	; 0x02
    49a6:	15 82       	std	Z+5, r1	; 0x05
    49a8:	14 82       	std	Z+4, r1	; 0x04

	ring->empty = FALSE;
    49aa:	e9 81       	ldd	r30, Y+1	; 0x01
    49ac:	fa 81       	ldd	r31, Y+2	; 0x02
    49ae:	10 86       	std	Z+8, r1	; 0x08
	
	return TRUE;
    49b0:	81 e0       	ldi	r24, 0x01	; 1
    49b2:	90 e0       	ldi	r25, 0x00	; 0
    49b4:	9d 83       	std	Y+5, r25	; 0x05
    49b6:	8c 83       	std	Y+4, r24	; 0x04
    49b8:	8c 81       	ldd	r24, Y+4	; 0x04
    49ba:	9d 81       	ldd	r25, Y+5	; 0x05
}
    49bc:	0f 90       	pop	r0
    49be:	0f 90       	pop	r0
    49c0:	0f 90       	pop	r0
    49c2:	0f 90       	pop	r0
    49c4:	0f 90       	pop	r0
    49c6:	cf 91       	pop	r28
    49c8:	df 91       	pop	r29
    49ca:	08 95       	ret

000049cc <RingGet>:

int RingGet(RingBuffer *ring, unsigned char *value)
{
    49cc:	df 93       	push	r29
    49ce:	cf 93       	push	r28
    49d0:	00 d0       	rcall	.+0      	; 0x49d2 <RingGet+0x6>
    49d2:	00 d0       	rcall	.+0      	; 0x49d4 <RingGet+0x8>
    49d4:	00 d0       	rcall	.+0      	; 0x49d6 <RingGet+0xa>
    49d6:	cd b7       	in	r28, 0x3d	; 61
    49d8:	de b7       	in	r29, 0x3e	; 62
    49da:	9a 83       	std	Y+2, r25	; 0x02
    49dc:	89 83       	std	Y+1, r24	; 0x01
    49de:	7c 83       	std	Y+4, r23	; 0x04
    49e0:	6b 83       	std	Y+3, r22	; 0x03
	if( !ring->empty ){
    49e2:	e9 81       	ldd	r30, Y+1	; 0x01
    49e4:	fa 81       	ldd	r31, Y+2	; 0x02
    49e6:	80 85       	ldd	r24, Z+8	; 0x08
    49e8:	88 23       	and	r24, r24
    49ea:	d9 f5       	brne	.+118    	; 0x4a62 <RingGet+0x96>
		*value = ring->buf[ring->rp];
    49ec:	e9 81       	ldd	r30, Y+1	; 0x01
    49ee:	fa 81       	ldd	r31, Y+2	; 0x02
    49f0:	20 81       	ld	r18, Z
    49f2:	31 81       	ldd	r19, Z+1	; 0x01
    49f4:	e9 81       	ldd	r30, Y+1	; 0x01
    49f6:	fa 81       	ldd	r31, Y+2	; 0x02
    49f8:	82 81       	ldd	r24, Z+2	; 0x02
    49fa:	93 81       	ldd	r25, Z+3	; 0x03
    49fc:	f9 01       	movw	r30, r18
    49fe:	e8 0f       	add	r30, r24
    4a00:	f9 1f       	adc	r31, r25
    4a02:	80 81       	ld	r24, Z
    4a04:	eb 81       	ldd	r30, Y+3	; 0x03
    4a06:	fc 81       	ldd	r31, Y+4	; 0x04
    4a08:	80 83       	st	Z, r24
		ring->rp++;
    4a0a:	e9 81       	ldd	r30, Y+1	; 0x01
    4a0c:	fa 81       	ldd	r31, Y+2	; 0x02
    4a0e:	82 81       	ldd	r24, Z+2	; 0x02
    4a10:	93 81       	ldd	r25, Z+3	; 0x03
    4a12:	01 96       	adiw	r24, 0x01	; 1
    4a14:	e9 81       	ldd	r30, Y+1	; 0x01
    4a16:	fa 81       	ldd	r31, Y+2	; 0x02
    4a18:	93 83       	std	Z+3, r25	; 0x03
    4a1a:	82 83       	std	Z+2, r24	; 0x02
		if( ring->rp == ring->size ) ring->rp = 0;
    4a1c:	e9 81       	ldd	r30, Y+1	; 0x01
    4a1e:	fa 81       	ldd	r31, Y+2	; 0x02
    4a20:	22 81       	ldd	r18, Z+2	; 0x02
    4a22:	33 81       	ldd	r19, Z+3	; 0x03
    4a24:	e9 81       	ldd	r30, Y+1	; 0x01
    4a26:	fa 81       	ldd	r31, Y+2	; 0x02
    4a28:	86 81       	ldd	r24, Z+6	; 0x06
    4a2a:	97 81       	ldd	r25, Z+7	; 0x07
    4a2c:	28 17       	cp	r18, r24
    4a2e:	39 07       	cpc	r19, r25
    4a30:	21 f4       	brne	.+8      	; 0x4a3a <RingGet+0x6e>
    4a32:	e9 81       	ldd	r30, Y+1	; 0x01
    4a34:	fa 81       	ldd	r31, Y+2	; 0x02
    4a36:	13 82       	std	Z+3, r1	; 0x03
    4a38:	12 82       	std	Z+2, r1	; 0x02
		if( ring->rp == ring->wp )	ring->empty = TRUE;
    4a3a:	e9 81       	ldd	r30, Y+1	; 0x01
    4a3c:	fa 81       	ldd	r31, Y+2	; 0x02
    4a3e:	22 81       	ldd	r18, Z+2	; 0x02
    4a40:	33 81       	ldd	r19, Z+3	; 0x03
    4a42:	e9 81       	ldd	r30, Y+1	; 0x01
    4a44:	fa 81       	ldd	r31, Y+2	; 0x02
    4a46:	84 81       	ldd	r24, Z+4	; 0x04
    4a48:	95 81       	ldd	r25, Z+5	; 0x05
    4a4a:	28 17       	cp	r18, r24
    4a4c:	39 07       	cpc	r19, r25
    4a4e:	21 f4       	brne	.+8      	; 0x4a58 <RingGet+0x8c>
    4a50:	e9 81       	ldd	r30, Y+1	; 0x01
    4a52:	fa 81       	ldd	r31, Y+2	; 0x02
    4a54:	81 e0       	ldi	r24, 0x01	; 1
    4a56:	80 87       	std	Z+8, r24	; 0x08

		return TRUE;
    4a58:	81 e0       	ldi	r24, 0x01	; 1
    4a5a:	90 e0       	ldi	r25, 0x00	; 0
    4a5c:	9e 83       	std	Y+6, r25	; 0x06
    4a5e:	8d 83       	std	Y+5, r24	; 0x05
    4a60:	05 c0       	rjmp	.+10     	; 0x4a6c <RingGet+0xa0>
	}else{			// リングバッファが空のとき
		*value = 0;
    4a62:	eb 81       	ldd	r30, Y+3	; 0x03
    4a64:	fc 81       	ldd	r31, Y+4	; 0x04
    4a66:	10 82       	st	Z, r1
		return FALSE;
    4a68:	1e 82       	std	Y+6, r1	; 0x06
    4a6a:	1d 82       	std	Y+5, r1	; 0x05
    4a6c:	8d 81       	ldd	r24, Y+5	; 0x05
    4a6e:	9e 81       	ldd	r25, Y+6	; 0x06
	}
}
    4a70:	26 96       	adiw	r28, 0x06	; 6
    4a72:	0f b6       	in	r0, 0x3f	; 63
    4a74:	f8 94       	cli
    4a76:	de bf       	out	0x3e, r29	; 62
    4a78:	0f be       	out	0x3f, r0	; 63
    4a7a:	cd bf       	out	0x3d, r28	; 61
    4a7c:	cf 91       	pop	r28
    4a7e:	df 91       	pop	r29
    4a80:	08 95       	ret

00004a82 <isRingEmpty>:

int isRingEmpty(RingBuffer *ring)
{
    4a82:	df 93       	push	r29
    4a84:	cf 93       	push	r28
    4a86:	00 d0       	rcall	.+0      	; 0x4a88 <isRingEmpty+0x6>
    4a88:	cd b7       	in	r28, 0x3d	; 61
    4a8a:	de b7       	in	r29, 0x3e	; 62
    4a8c:	9a 83       	std	Y+2, r25	; 0x02
    4a8e:	89 83       	std	Y+1, r24	; 0x01
   return ring->empty;
    4a90:	e9 81       	ldd	r30, Y+1	; 0x01
    4a92:	fa 81       	ldd	r31, Y+2	; 0x02
    4a94:	80 85       	ldd	r24, Z+8	; 0x08
    4a96:	88 2f       	mov	r24, r24
    4a98:	90 e0       	ldi	r25, 0x00	; 0
}
    4a9a:	0f 90       	pop	r0
    4a9c:	0f 90       	pop	r0
    4a9e:	cf 91       	pop	r28
    4aa0:	df 91       	pop	r29
    4aa2:	08 95       	ret

00004aa4 <__fixunssfsi>:
    4aa4:	ef 92       	push	r14
    4aa6:	ff 92       	push	r15
    4aa8:	0f 93       	push	r16
    4aaa:	1f 93       	push	r17
    4aac:	7b 01       	movw	r14, r22
    4aae:	8c 01       	movw	r16, r24
    4ab0:	20 e0       	ldi	r18, 0x00	; 0
    4ab2:	30 e0       	ldi	r19, 0x00	; 0
    4ab4:	40 e0       	ldi	r20, 0x00	; 0
    4ab6:	5f e4       	ldi	r21, 0x4F	; 79
    4ab8:	0e 94 52 28 	call	0x50a4	; 0x50a4 <__gesf2>
    4abc:	88 23       	and	r24, r24
    4abe:	8c f0       	brlt	.+34     	; 0x4ae2 <__fixunssfsi+0x3e>
    4ac0:	c8 01       	movw	r24, r16
    4ac2:	b7 01       	movw	r22, r14
    4ac4:	20 e0       	ldi	r18, 0x00	; 0
    4ac6:	30 e0       	ldi	r19, 0x00	; 0
    4ac8:	40 e0       	ldi	r20, 0x00	; 0
    4aca:	5f e4       	ldi	r21, 0x4F	; 79
    4acc:	0e 94 ca 26 	call	0x4d94	; 0x4d94 <__subsf3>
    4ad0:	0e 94 b2 28 	call	0x5164	; 0x5164 <__fixsfsi>
    4ad4:	9b 01       	movw	r18, r22
    4ad6:	ac 01       	movw	r20, r24
    4ad8:	20 50       	subi	r18, 0x00	; 0
    4ada:	30 40       	sbci	r19, 0x00	; 0
    4adc:	40 40       	sbci	r20, 0x00	; 0
    4ade:	50 48       	sbci	r21, 0x80	; 128
    4ae0:	06 c0       	rjmp	.+12     	; 0x4aee <__fixunssfsi+0x4a>
    4ae2:	c8 01       	movw	r24, r16
    4ae4:	b7 01       	movw	r22, r14
    4ae6:	0e 94 b2 28 	call	0x5164	; 0x5164 <__fixsfsi>
    4aea:	9b 01       	movw	r18, r22
    4aec:	ac 01       	movw	r20, r24
    4aee:	b9 01       	movw	r22, r18
    4af0:	ca 01       	movw	r24, r20
    4af2:	1f 91       	pop	r17
    4af4:	0f 91       	pop	r16
    4af6:	ff 90       	pop	r15
    4af8:	ef 90       	pop	r14
    4afa:	08 95       	ret

00004afc <_fpadd_parts>:
    4afc:	a0 e0       	ldi	r26, 0x00	; 0
    4afe:	b0 e0       	ldi	r27, 0x00	; 0
    4b00:	e4 e8       	ldi	r30, 0x84	; 132
    4b02:	f5 e2       	ldi	r31, 0x25	; 37
    4b04:	0c 94 da 2a 	jmp	0x55b4	; 0x55b4 <__prologue_saves__>
    4b08:	dc 01       	movw	r26, r24
    4b0a:	2b 01       	movw	r4, r22
    4b0c:	fa 01       	movw	r30, r20
    4b0e:	9c 91       	ld	r25, X
    4b10:	92 30       	cpi	r25, 0x02	; 2
    4b12:	08 f4       	brcc	.+2      	; 0x4b16 <_fpadd_parts+0x1a>
    4b14:	39 c1       	rjmp	.+626    	; 0x4d88 <_fpadd_parts+0x28c>
    4b16:	eb 01       	movw	r28, r22
    4b18:	88 81       	ld	r24, Y
    4b1a:	82 30       	cpi	r24, 0x02	; 2
    4b1c:	08 f4       	brcc	.+2      	; 0x4b20 <_fpadd_parts+0x24>
    4b1e:	33 c1       	rjmp	.+614    	; 0x4d86 <_fpadd_parts+0x28a>
    4b20:	94 30       	cpi	r25, 0x04	; 4
    4b22:	69 f4       	brne	.+26     	; 0x4b3e <_fpadd_parts+0x42>
    4b24:	84 30       	cpi	r24, 0x04	; 4
    4b26:	09 f0       	breq	.+2      	; 0x4b2a <_fpadd_parts+0x2e>
    4b28:	2f c1       	rjmp	.+606    	; 0x4d88 <_fpadd_parts+0x28c>
    4b2a:	11 96       	adiw	r26, 0x01	; 1
    4b2c:	9c 91       	ld	r25, X
    4b2e:	11 97       	sbiw	r26, 0x01	; 1
    4b30:	89 81       	ldd	r24, Y+1	; 0x01
    4b32:	98 17       	cp	r25, r24
    4b34:	09 f4       	brne	.+2      	; 0x4b38 <_fpadd_parts+0x3c>
    4b36:	28 c1       	rjmp	.+592    	; 0x4d88 <_fpadd_parts+0x28c>
    4b38:	af e2       	ldi	r26, 0x2F	; 47
    4b3a:	b1 e0       	ldi	r27, 0x01	; 1
    4b3c:	25 c1       	rjmp	.+586    	; 0x4d88 <_fpadd_parts+0x28c>
    4b3e:	84 30       	cpi	r24, 0x04	; 4
    4b40:	09 f4       	brne	.+2      	; 0x4b44 <_fpadd_parts+0x48>
    4b42:	21 c1       	rjmp	.+578    	; 0x4d86 <_fpadd_parts+0x28a>
    4b44:	82 30       	cpi	r24, 0x02	; 2
    4b46:	a9 f4       	brne	.+42     	; 0x4b72 <_fpadd_parts+0x76>
    4b48:	92 30       	cpi	r25, 0x02	; 2
    4b4a:	09 f0       	breq	.+2      	; 0x4b4e <_fpadd_parts+0x52>
    4b4c:	1d c1       	rjmp	.+570    	; 0x4d88 <_fpadd_parts+0x28c>
    4b4e:	9a 01       	movw	r18, r20
    4b50:	ad 01       	movw	r20, r26
    4b52:	88 e0       	ldi	r24, 0x08	; 8
    4b54:	ea 01       	movw	r28, r20
    4b56:	09 90       	ld	r0, Y+
    4b58:	ae 01       	movw	r20, r28
    4b5a:	e9 01       	movw	r28, r18
    4b5c:	09 92       	st	Y+, r0
    4b5e:	9e 01       	movw	r18, r28
    4b60:	81 50       	subi	r24, 0x01	; 1
    4b62:	c1 f7       	brne	.-16     	; 0x4b54 <_fpadd_parts+0x58>
    4b64:	e2 01       	movw	r28, r4
    4b66:	89 81       	ldd	r24, Y+1	; 0x01
    4b68:	11 96       	adiw	r26, 0x01	; 1
    4b6a:	9c 91       	ld	r25, X
    4b6c:	89 23       	and	r24, r25
    4b6e:	81 83       	std	Z+1, r24	; 0x01
    4b70:	08 c1       	rjmp	.+528    	; 0x4d82 <_fpadd_parts+0x286>
    4b72:	92 30       	cpi	r25, 0x02	; 2
    4b74:	09 f4       	brne	.+2      	; 0x4b78 <_fpadd_parts+0x7c>
    4b76:	07 c1       	rjmp	.+526    	; 0x4d86 <_fpadd_parts+0x28a>
    4b78:	12 96       	adiw	r26, 0x02	; 2
    4b7a:	2d 90       	ld	r2, X+
    4b7c:	3c 90       	ld	r3, X
    4b7e:	13 97       	sbiw	r26, 0x03	; 3
    4b80:	eb 01       	movw	r28, r22
    4b82:	8a 81       	ldd	r24, Y+2	; 0x02
    4b84:	9b 81       	ldd	r25, Y+3	; 0x03
    4b86:	14 96       	adiw	r26, 0x04	; 4
    4b88:	ad 90       	ld	r10, X+
    4b8a:	bd 90       	ld	r11, X+
    4b8c:	cd 90       	ld	r12, X+
    4b8e:	dc 90       	ld	r13, X
    4b90:	17 97       	sbiw	r26, 0x07	; 7
    4b92:	ec 80       	ldd	r14, Y+4	; 0x04
    4b94:	fd 80       	ldd	r15, Y+5	; 0x05
    4b96:	0e 81       	ldd	r16, Y+6	; 0x06
    4b98:	1f 81       	ldd	r17, Y+7	; 0x07
    4b9a:	91 01       	movw	r18, r2
    4b9c:	28 1b       	sub	r18, r24
    4b9e:	39 0b       	sbc	r19, r25
    4ba0:	b9 01       	movw	r22, r18
    4ba2:	37 ff       	sbrs	r19, 7
    4ba4:	04 c0       	rjmp	.+8      	; 0x4bae <_fpadd_parts+0xb2>
    4ba6:	66 27       	eor	r22, r22
    4ba8:	77 27       	eor	r23, r23
    4baa:	62 1b       	sub	r22, r18
    4bac:	73 0b       	sbc	r23, r19
    4bae:	60 32       	cpi	r22, 0x20	; 32
    4bb0:	71 05       	cpc	r23, r1
    4bb2:	0c f0       	brlt	.+2      	; 0x4bb6 <_fpadd_parts+0xba>
    4bb4:	61 c0       	rjmp	.+194    	; 0x4c78 <_fpadd_parts+0x17c>
    4bb6:	12 16       	cp	r1, r18
    4bb8:	13 06       	cpc	r1, r19
    4bba:	6c f5       	brge	.+90     	; 0x4c16 <_fpadd_parts+0x11a>
    4bbc:	37 01       	movw	r6, r14
    4bbe:	48 01       	movw	r8, r16
    4bc0:	06 2e       	mov	r0, r22
    4bc2:	04 c0       	rjmp	.+8      	; 0x4bcc <_fpadd_parts+0xd0>
    4bc4:	96 94       	lsr	r9
    4bc6:	87 94       	ror	r8
    4bc8:	77 94       	ror	r7
    4bca:	67 94       	ror	r6
    4bcc:	0a 94       	dec	r0
    4bce:	d2 f7       	brpl	.-12     	; 0x4bc4 <_fpadd_parts+0xc8>
    4bd0:	21 e0       	ldi	r18, 0x01	; 1
    4bd2:	30 e0       	ldi	r19, 0x00	; 0
    4bd4:	40 e0       	ldi	r20, 0x00	; 0
    4bd6:	50 e0       	ldi	r21, 0x00	; 0
    4bd8:	04 c0       	rjmp	.+8      	; 0x4be2 <_fpadd_parts+0xe6>
    4bda:	22 0f       	add	r18, r18
    4bdc:	33 1f       	adc	r19, r19
    4bde:	44 1f       	adc	r20, r20
    4be0:	55 1f       	adc	r21, r21
    4be2:	6a 95       	dec	r22
    4be4:	d2 f7       	brpl	.-12     	; 0x4bda <_fpadd_parts+0xde>
    4be6:	21 50       	subi	r18, 0x01	; 1
    4be8:	30 40       	sbci	r19, 0x00	; 0
    4bea:	40 40       	sbci	r20, 0x00	; 0
    4bec:	50 40       	sbci	r21, 0x00	; 0
    4bee:	2e 21       	and	r18, r14
    4bf0:	3f 21       	and	r19, r15
    4bf2:	40 23       	and	r20, r16
    4bf4:	51 23       	and	r21, r17
    4bf6:	21 15       	cp	r18, r1
    4bf8:	31 05       	cpc	r19, r1
    4bfa:	41 05       	cpc	r20, r1
    4bfc:	51 05       	cpc	r21, r1
    4bfe:	21 f0       	breq	.+8      	; 0x4c08 <_fpadd_parts+0x10c>
    4c00:	21 e0       	ldi	r18, 0x01	; 1
    4c02:	30 e0       	ldi	r19, 0x00	; 0
    4c04:	40 e0       	ldi	r20, 0x00	; 0
    4c06:	50 e0       	ldi	r21, 0x00	; 0
    4c08:	79 01       	movw	r14, r18
    4c0a:	8a 01       	movw	r16, r20
    4c0c:	e6 28       	or	r14, r6
    4c0e:	f7 28       	or	r15, r7
    4c10:	08 29       	or	r16, r8
    4c12:	19 29       	or	r17, r9
    4c14:	3c c0       	rjmp	.+120    	; 0x4c8e <_fpadd_parts+0x192>
    4c16:	23 2b       	or	r18, r19
    4c18:	d1 f1       	breq	.+116    	; 0x4c8e <_fpadd_parts+0x192>
    4c1a:	26 0e       	add	r2, r22
    4c1c:	37 1e       	adc	r3, r23
    4c1e:	35 01       	movw	r6, r10
    4c20:	46 01       	movw	r8, r12
    4c22:	06 2e       	mov	r0, r22
    4c24:	04 c0       	rjmp	.+8      	; 0x4c2e <_fpadd_parts+0x132>
    4c26:	96 94       	lsr	r9
    4c28:	87 94       	ror	r8
    4c2a:	77 94       	ror	r7
    4c2c:	67 94       	ror	r6
    4c2e:	0a 94       	dec	r0
    4c30:	d2 f7       	brpl	.-12     	; 0x4c26 <_fpadd_parts+0x12a>
    4c32:	21 e0       	ldi	r18, 0x01	; 1
    4c34:	30 e0       	ldi	r19, 0x00	; 0
    4c36:	40 e0       	ldi	r20, 0x00	; 0
    4c38:	50 e0       	ldi	r21, 0x00	; 0
    4c3a:	04 c0       	rjmp	.+8      	; 0x4c44 <_fpadd_parts+0x148>
    4c3c:	22 0f       	add	r18, r18
    4c3e:	33 1f       	adc	r19, r19
    4c40:	44 1f       	adc	r20, r20
    4c42:	55 1f       	adc	r21, r21
    4c44:	6a 95       	dec	r22
    4c46:	d2 f7       	brpl	.-12     	; 0x4c3c <_fpadd_parts+0x140>
    4c48:	21 50       	subi	r18, 0x01	; 1
    4c4a:	30 40       	sbci	r19, 0x00	; 0
    4c4c:	40 40       	sbci	r20, 0x00	; 0
    4c4e:	50 40       	sbci	r21, 0x00	; 0
    4c50:	2a 21       	and	r18, r10
    4c52:	3b 21       	and	r19, r11
    4c54:	4c 21       	and	r20, r12
    4c56:	5d 21       	and	r21, r13
    4c58:	21 15       	cp	r18, r1
    4c5a:	31 05       	cpc	r19, r1
    4c5c:	41 05       	cpc	r20, r1
    4c5e:	51 05       	cpc	r21, r1
    4c60:	21 f0       	breq	.+8      	; 0x4c6a <_fpadd_parts+0x16e>
    4c62:	21 e0       	ldi	r18, 0x01	; 1
    4c64:	30 e0       	ldi	r19, 0x00	; 0
    4c66:	40 e0       	ldi	r20, 0x00	; 0
    4c68:	50 e0       	ldi	r21, 0x00	; 0
    4c6a:	59 01       	movw	r10, r18
    4c6c:	6a 01       	movw	r12, r20
    4c6e:	a6 28       	or	r10, r6
    4c70:	b7 28       	or	r11, r7
    4c72:	c8 28       	or	r12, r8
    4c74:	d9 28       	or	r13, r9
    4c76:	0b c0       	rjmp	.+22     	; 0x4c8e <_fpadd_parts+0x192>
    4c78:	82 15       	cp	r24, r2
    4c7a:	93 05       	cpc	r25, r3
    4c7c:	2c f0       	brlt	.+10     	; 0x4c88 <_fpadd_parts+0x18c>
    4c7e:	1c 01       	movw	r2, r24
    4c80:	aa 24       	eor	r10, r10
    4c82:	bb 24       	eor	r11, r11
    4c84:	65 01       	movw	r12, r10
    4c86:	03 c0       	rjmp	.+6      	; 0x4c8e <_fpadd_parts+0x192>
    4c88:	ee 24       	eor	r14, r14
    4c8a:	ff 24       	eor	r15, r15
    4c8c:	87 01       	movw	r16, r14
    4c8e:	11 96       	adiw	r26, 0x01	; 1
    4c90:	9c 91       	ld	r25, X
    4c92:	d2 01       	movw	r26, r4
    4c94:	11 96       	adiw	r26, 0x01	; 1
    4c96:	8c 91       	ld	r24, X
    4c98:	98 17       	cp	r25, r24
    4c9a:	09 f4       	brne	.+2      	; 0x4c9e <_fpadd_parts+0x1a2>
    4c9c:	45 c0       	rjmp	.+138    	; 0x4d28 <_fpadd_parts+0x22c>
    4c9e:	99 23       	and	r25, r25
    4ca0:	39 f0       	breq	.+14     	; 0x4cb0 <_fpadd_parts+0x1b4>
    4ca2:	a8 01       	movw	r20, r16
    4ca4:	97 01       	movw	r18, r14
    4ca6:	2a 19       	sub	r18, r10
    4ca8:	3b 09       	sbc	r19, r11
    4caa:	4c 09       	sbc	r20, r12
    4cac:	5d 09       	sbc	r21, r13
    4cae:	06 c0       	rjmp	.+12     	; 0x4cbc <_fpadd_parts+0x1c0>
    4cb0:	a6 01       	movw	r20, r12
    4cb2:	95 01       	movw	r18, r10
    4cb4:	2e 19       	sub	r18, r14
    4cb6:	3f 09       	sbc	r19, r15
    4cb8:	40 0b       	sbc	r20, r16
    4cba:	51 0b       	sbc	r21, r17
    4cbc:	57 fd       	sbrc	r21, 7
    4cbe:	08 c0       	rjmp	.+16     	; 0x4cd0 <_fpadd_parts+0x1d4>
    4cc0:	11 82       	std	Z+1, r1	; 0x01
    4cc2:	33 82       	std	Z+3, r3	; 0x03
    4cc4:	22 82       	std	Z+2, r2	; 0x02
    4cc6:	24 83       	std	Z+4, r18	; 0x04
    4cc8:	35 83       	std	Z+5, r19	; 0x05
    4cca:	46 83       	std	Z+6, r20	; 0x06
    4ccc:	57 83       	std	Z+7, r21	; 0x07
    4cce:	1d c0       	rjmp	.+58     	; 0x4d0a <_fpadd_parts+0x20e>
    4cd0:	81 e0       	ldi	r24, 0x01	; 1
    4cd2:	81 83       	std	Z+1, r24	; 0x01
    4cd4:	33 82       	std	Z+3, r3	; 0x03
    4cd6:	22 82       	std	Z+2, r2	; 0x02
    4cd8:	88 27       	eor	r24, r24
    4cda:	99 27       	eor	r25, r25
    4cdc:	dc 01       	movw	r26, r24
    4cde:	82 1b       	sub	r24, r18
    4ce0:	93 0b       	sbc	r25, r19
    4ce2:	a4 0b       	sbc	r26, r20
    4ce4:	b5 0b       	sbc	r27, r21
    4ce6:	84 83       	std	Z+4, r24	; 0x04
    4ce8:	95 83       	std	Z+5, r25	; 0x05
    4cea:	a6 83       	std	Z+6, r26	; 0x06
    4cec:	b7 83       	std	Z+7, r27	; 0x07
    4cee:	0d c0       	rjmp	.+26     	; 0x4d0a <_fpadd_parts+0x20e>
    4cf0:	22 0f       	add	r18, r18
    4cf2:	33 1f       	adc	r19, r19
    4cf4:	44 1f       	adc	r20, r20
    4cf6:	55 1f       	adc	r21, r21
    4cf8:	24 83       	std	Z+4, r18	; 0x04
    4cfa:	35 83       	std	Z+5, r19	; 0x05
    4cfc:	46 83       	std	Z+6, r20	; 0x06
    4cfe:	57 83       	std	Z+7, r21	; 0x07
    4d00:	82 81       	ldd	r24, Z+2	; 0x02
    4d02:	93 81       	ldd	r25, Z+3	; 0x03
    4d04:	01 97       	sbiw	r24, 0x01	; 1
    4d06:	93 83       	std	Z+3, r25	; 0x03
    4d08:	82 83       	std	Z+2, r24	; 0x02
    4d0a:	24 81       	ldd	r18, Z+4	; 0x04
    4d0c:	35 81       	ldd	r19, Z+5	; 0x05
    4d0e:	46 81       	ldd	r20, Z+6	; 0x06
    4d10:	57 81       	ldd	r21, Z+7	; 0x07
    4d12:	da 01       	movw	r26, r20
    4d14:	c9 01       	movw	r24, r18
    4d16:	01 97       	sbiw	r24, 0x01	; 1
    4d18:	a1 09       	sbc	r26, r1
    4d1a:	b1 09       	sbc	r27, r1
    4d1c:	8f 5f       	subi	r24, 0xFF	; 255
    4d1e:	9f 4f       	sbci	r25, 0xFF	; 255
    4d20:	af 4f       	sbci	r26, 0xFF	; 255
    4d22:	bf 43       	sbci	r27, 0x3F	; 63
    4d24:	28 f3       	brcs	.-54     	; 0x4cf0 <_fpadd_parts+0x1f4>
    4d26:	0b c0       	rjmp	.+22     	; 0x4d3e <_fpadd_parts+0x242>
    4d28:	91 83       	std	Z+1, r25	; 0x01
    4d2a:	33 82       	std	Z+3, r3	; 0x03
    4d2c:	22 82       	std	Z+2, r2	; 0x02
    4d2e:	ea 0c       	add	r14, r10
    4d30:	fb 1c       	adc	r15, r11
    4d32:	0c 1d       	adc	r16, r12
    4d34:	1d 1d       	adc	r17, r13
    4d36:	e4 82       	std	Z+4, r14	; 0x04
    4d38:	f5 82       	std	Z+5, r15	; 0x05
    4d3a:	06 83       	std	Z+6, r16	; 0x06
    4d3c:	17 83       	std	Z+7, r17	; 0x07
    4d3e:	83 e0       	ldi	r24, 0x03	; 3
    4d40:	80 83       	st	Z, r24
    4d42:	24 81       	ldd	r18, Z+4	; 0x04
    4d44:	35 81       	ldd	r19, Z+5	; 0x05
    4d46:	46 81       	ldd	r20, Z+6	; 0x06
    4d48:	57 81       	ldd	r21, Z+7	; 0x07
    4d4a:	57 ff       	sbrs	r21, 7
    4d4c:	1a c0       	rjmp	.+52     	; 0x4d82 <_fpadd_parts+0x286>
    4d4e:	c9 01       	movw	r24, r18
    4d50:	aa 27       	eor	r26, r26
    4d52:	97 fd       	sbrc	r25, 7
    4d54:	a0 95       	com	r26
    4d56:	ba 2f       	mov	r27, r26
    4d58:	81 70       	andi	r24, 0x01	; 1
    4d5a:	90 70       	andi	r25, 0x00	; 0
    4d5c:	a0 70       	andi	r26, 0x00	; 0
    4d5e:	b0 70       	andi	r27, 0x00	; 0
    4d60:	56 95       	lsr	r21
    4d62:	47 95       	ror	r20
    4d64:	37 95       	ror	r19
    4d66:	27 95       	ror	r18
    4d68:	82 2b       	or	r24, r18
    4d6a:	93 2b       	or	r25, r19
    4d6c:	a4 2b       	or	r26, r20
    4d6e:	b5 2b       	or	r27, r21
    4d70:	84 83       	std	Z+4, r24	; 0x04
    4d72:	95 83       	std	Z+5, r25	; 0x05
    4d74:	a6 83       	std	Z+6, r26	; 0x06
    4d76:	b7 83       	std	Z+7, r27	; 0x07
    4d78:	82 81       	ldd	r24, Z+2	; 0x02
    4d7a:	93 81       	ldd	r25, Z+3	; 0x03
    4d7c:	01 96       	adiw	r24, 0x01	; 1
    4d7e:	93 83       	std	Z+3, r25	; 0x03
    4d80:	82 83       	std	Z+2, r24	; 0x02
    4d82:	df 01       	movw	r26, r30
    4d84:	01 c0       	rjmp	.+2      	; 0x4d88 <_fpadd_parts+0x28c>
    4d86:	d2 01       	movw	r26, r4
    4d88:	cd 01       	movw	r24, r26
    4d8a:	cd b7       	in	r28, 0x3d	; 61
    4d8c:	de b7       	in	r29, 0x3e	; 62
    4d8e:	e2 e1       	ldi	r30, 0x12	; 18
    4d90:	0c 94 f6 2a 	jmp	0x55ec	; 0x55ec <__epilogue_restores__>

00004d94 <__subsf3>:
    4d94:	a0 e2       	ldi	r26, 0x20	; 32
    4d96:	b0 e0       	ldi	r27, 0x00	; 0
    4d98:	e0 ed       	ldi	r30, 0xD0	; 208
    4d9a:	f6 e2       	ldi	r31, 0x26	; 38
    4d9c:	0c 94 e6 2a 	jmp	0x55cc	; 0x55cc <__prologue_saves__+0x18>
    4da0:	69 83       	std	Y+1, r22	; 0x01
    4da2:	7a 83       	std	Y+2, r23	; 0x02
    4da4:	8b 83       	std	Y+3, r24	; 0x03
    4da6:	9c 83       	std	Y+4, r25	; 0x04
    4da8:	2d 83       	std	Y+5, r18	; 0x05
    4daa:	3e 83       	std	Y+6, r19	; 0x06
    4dac:	4f 83       	std	Y+7, r20	; 0x07
    4dae:	58 87       	std	Y+8, r21	; 0x08
    4db0:	e9 e0       	ldi	r30, 0x09	; 9
    4db2:	ee 2e       	mov	r14, r30
    4db4:	f1 2c       	mov	r15, r1
    4db6:	ec 0e       	add	r14, r28
    4db8:	fd 1e       	adc	r15, r29
    4dba:	ce 01       	movw	r24, r28
    4dbc:	01 96       	adiw	r24, 0x01	; 1
    4dbe:	b7 01       	movw	r22, r14
    4dc0:	0e 94 db 29 	call	0x53b6	; 0x53b6 <__unpack_f>
    4dc4:	8e 01       	movw	r16, r28
    4dc6:	0f 5e       	subi	r16, 0xEF	; 239
    4dc8:	1f 4f       	sbci	r17, 0xFF	; 255
    4dca:	ce 01       	movw	r24, r28
    4dcc:	05 96       	adiw	r24, 0x05	; 5
    4dce:	b8 01       	movw	r22, r16
    4dd0:	0e 94 db 29 	call	0x53b6	; 0x53b6 <__unpack_f>
    4dd4:	8a 89       	ldd	r24, Y+18	; 0x12
    4dd6:	91 e0       	ldi	r25, 0x01	; 1
    4dd8:	89 27       	eor	r24, r25
    4dda:	8a 8b       	std	Y+18, r24	; 0x12
    4ddc:	c7 01       	movw	r24, r14
    4dde:	b8 01       	movw	r22, r16
    4de0:	ae 01       	movw	r20, r28
    4de2:	47 5e       	subi	r20, 0xE7	; 231
    4de4:	5f 4f       	sbci	r21, 0xFF	; 255
    4de6:	0e 94 7e 25 	call	0x4afc	; 0x4afc <_fpadd_parts>
    4dea:	0e 94 06 29 	call	0x520c	; 0x520c <__pack_f>
    4dee:	a0 96       	adiw	r28, 0x20	; 32
    4df0:	e6 e0       	ldi	r30, 0x06	; 6
    4df2:	0c 94 02 2b 	jmp	0x5604	; 0x5604 <__epilogue_restores__+0x18>

00004df6 <__addsf3>:
    4df6:	a0 e2       	ldi	r26, 0x20	; 32
    4df8:	b0 e0       	ldi	r27, 0x00	; 0
    4dfa:	e1 e0       	ldi	r30, 0x01	; 1
    4dfc:	f7 e2       	ldi	r31, 0x27	; 39
    4dfe:	0c 94 e6 2a 	jmp	0x55cc	; 0x55cc <__prologue_saves__+0x18>
    4e02:	69 83       	std	Y+1, r22	; 0x01
    4e04:	7a 83       	std	Y+2, r23	; 0x02
    4e06:	8b 83       	std	Y+3, r24	; 0x03
    4e08:	9c 83       	std	Y+4, r25	; 0x04
    4e0a:	2d 83       	std	Y+5, r18	; 0x05
    4e0c:	3e 83       	std	Y+6, r19	; 0x06
    4e0e:	4f 83       	std	Y+7, r20	; 0x07
    4e10:	58 87       	std	Y+8, r21	; 0x08
    4e12:	f9 e0       	ldi	r31, 0x09	; 9
    4e14:	ef 2e       	mov	r14, r31
    4e16:	f1 2c       	mov	r15, r1
    4e18:	ec 0e       	add	r14, r28
    4e1a:	fd 1e       	adc	r15, r29
    4e1c:	ce 01       	movw	r24, r28
    4e1e:	01 96       	adiw	r24, 0x01	; 1
    4e20:	b7 01       	movw	r22, r14
    4e22:	0e 94 db 29 	call	0x53b6	; 0x53b6 <__unpack_f>
    4e26:	8e 01       	movw	r16, r28
    4e28:	0f 5e       	subi	r16, 0xEF	; 239
    4e2a:	1f 4f       	sbci	r17, 0xFF	; 255
    4e2c:	ce 01       	movw	r24, r28
    4e2e:	05 96       	adiw	r24, 0x05	; 5
    4e30:	b8 01       	movw	r22, r16
    4e32:	0e 94 db 29 	call	0x53b6	; 0x53b6 <__unpack_f>
    4e36:	c7 01       	movw	r24, r14
    4e38:	b8 01       	movw	r22, r16
    4e3a:	ae 01       	movw	r20, r28
    4e3c:	47 5e       	subi	r20, 0xE7	; 231
    4e3e:	5f 4f       	sbci	r21, 0xFF	; 255
    4e40:	0e 94 7e 25 	call	0x4afc	; 0x4afc <_fpadd_parts>
    4e44:	0e 94 06 29 	call	0x520c	; 0x520c <__pack_f>
    4e48:	a0 96       	adiw	r28, 0x20	; 32
    4e4a:	e6 e0       	ldi	r30, 0x06	; 6
    4e4c:	0c 94 02 2b 	jmp	0x5604	; 0x5604 <__epilogue_restores__+0x18>

00004e50 <__mulsf3>:
    4e50:	a0 e2       	ldi	r26, 0x20	; 32
    4e52:	b0 e0       	ldi	r27, 0x00	; 0
    4e54:	ee e2       	ldi	r30, 0x2E	; 46
    4e56:	f7 e2       	ldi	r31, 0x27	; 39
    4e58:	0c 94 da 2a 	jmp	0x55b4	; 0x55b4 <__prologue_saves__>
    4e5c:	69 83       	std	Y+1, r22	; 0x01
    4e5e:	7a 83       	std	Y+2, r23	; 0x02
    4e60:	8b 83       	std	Y+3, r24	; 0x03
    4e62:	9c 83       	std	Y+4, r25	; 0x04
    4e64:	2d 83       	std	Y+5, r18	; 0x05
    4e66:	3e 83       	std	Y+6, r19	; 0x06
    4e68:	4f 83       	std	Y+7, r20	; 0x07
    4e6a:	58 87       	std	Y+8, r21	; 0x08
    4e6c:	ce 01       	movw	r24, r28
    4e6e:	01 96       	adiw	r24, 0x01	; 1
    4e70:	be 01       	movw	r22, r28
    4e72:	67 5f       	subi	r22, 0xF7	; 247
    4e74:	7f 4f       	sbci	r23, 0xFF	; 255
    4e76:	0e 94 db 29 	call	0x53b6	; 0x53b6 <__unpack_f>
    4e7a:	ce 01       	movw	r24, r28
    4e7c:	05 96       	adiw	r24, 0x05	; 5
    4e7e:	be 01       	movw	r22, r28
    4e80:	6f 5e       	subi	r22, 0xEF	; 239
    4e82:	7f 4f       	sbci	r23, 0xFF	; 255
    4e84:	0e 94 db 29 	call	0x53b6	; 0x53b6 <__unpack_f>
    4e88:	99 85       	ldd	r25, Y+9	; 0x09
    4e8a:	92 30       	cpi	r25, 0x02	; 2
    4e8c:	88 f0       	brcs	.+34     	; 0x4eb0 <__mulsf3+0x60>
    4e8e:	89 89       	ldd	r24, Y+17	; 0x11
    4e90:	82 30       	cpi	r24, 0x02	; 2
    4e92:	c8 f0       	brcs	.+50     	; 0x4ec6 <__mulsf3+0x76>
    4e94:	94 30       	cpi	r25, 0x04	; 4
    4e96:	19 f4       	brne	.+6      	; 0x4e9e <__mulsf3+0x4e>
    4e98:	82 30       	cpi	r24, 0x02	; 2
    4e9a:	51 f4       	brne	.+20     	; 0x4eb0 <__mulsf3+0x60>
    4e9c:	04 c0       	rjmp	.+8      	; 0x4ea6 <__mulsf3+0x56>
    4e9e:	84 30       	cpi	r24, 0x04	; 4
    4ea0:	29 f4       	brne	.+10     	; 0x4eac <__mulsf3+0x5c>
    4ea2:	92 30       	cpi	r25, 0x02	; 2
    4ea4:	81 f4       	brne	.+32     	; 0x4ec6 <__mulsf3+0x76>
    4ea6:	8f e2       	ldi	r24, 0x2F	; 47
    4ea8:	91 e0       	ldi	r25, 0x01	; 1
    4eaa:	c6 c0       	rjmp	.+396    	; 0x5038 <__mulsf3+0x1e8>
    4eac:	92 30       	cpi	r25, 0x02	; 2
    4eae:	49 f4       	brne	.+18     	; 0x4ec2 <__mulsf3+0x72>
    4eb0:	20 e0       	ldi	r18, 0x00	; 0
    4eb2:	9a 85       	ldd	r25, Y+10	; 0x0a
    4eb4:	8a 89       	ldd	r24, Y+18	; 0x12
    4eb6:	98 13       	cpse	r25, r24
    4eb8:	21 e0       	ldi	r18, 0x01	; 1
    4eba:	2a 87       	std	Y+10, r18	; 0x0a
    4ebc:	ce 01       	movw	r24, r28
    4ebe:	09 96       	adiw	r24, 0x09	; 9
    4ec0:	bb c0       	rjmp	.+374    	; 0x5038 <__mulsf3+0x1e8>
    4ec2:	82 30       	cpi	r24, 0x02	; 2
    4ec4:	49 f4       	brne	.+18     	; 0x4ed8 <__mulsf3+0x88>
    4ec6:	20 e0       	ldi	r18, 0x00	; 0
    4ec8:	9a 85       	ldd	r25, Y+10	; 0x0a
    4eca:	8a 89       	ldd	r24, Y+18	; 0x12
    4ecc:	98 13       	cpse	r25, r24
    4ece:	21 e0       	ldi	r18, 0x01	; 1
    4ed0:	2a 8b       	std	Y+18, r18	; 0x12
    4ed2:	ce 01       	movw	r24, r28
    4ed4:	41 96       	adiw	r24, 0x11	; 17
    4ed6:	b0 c0       	rjmp	.+352    	; 0x5038 <__mulsf3+0x1e8>
    4ed8:	2d 84       	ldd	r2, Y+13	; 0x0d
    4eda:	3e 84       	ldd	r3, Y+14	; 0x0e
    4edc:	4f 84       	ldd	r4, Y+15	; 0x0f
    4ede:	58 88       	ldd	r5, Y+16	; 0x10
    4ee0:	6d 88       	ldd	r6, Y+21	; 0x15
    4ee2:	7e 88       	ldd	r7, Y+22	; 0x16
    4ee4:	8f 88       	ldd	r8, Y+23	; 0x17
    4ee6:	98 8c       	ldd	r9, Y+24	; 0x18
    4ee8:	ee 24       	eor	r14, r14
    4eea:	ff 24       	eor	r15, r15
    4eec:	87 01       	movw	r16, r14
    4eee:	aa 24       	eor	r10, r10
    4ef0:	bb 24       	eor	r11, r11
    4ef2:	65 01       	movw	r12, r10
    4ef4:	40 e0       	ldi	r20, 0x00	; 0
    4ef6:	50 e0       	ldi	r21, 0x00	; 0
    4ef8:	60 e0       	ldi	r22, 0x00	; 0
    4efa:	70 e0       	ldi	r23, 0x00	; 0
    4efc:	e0 e0       	ldi	r30, 0x00	; 0
    4efe:	f0 e0       	ldi	r31, 0x00	; 0
    4f00:	c1 01       	movw	r24, r2
    4f02:	81 70       	andi	r24, 0x01	; 1
    4f04:	90 70       	andi	r25, 0x00	; 0
    4f06:	89 2b       	or	r24, r25
    4f08:	e9 f0       	breq	.+58     	; 0x4f44 <__mulsf3+0xf4>
    4f0a:	e6 0c       	add	r14, r6
    4f0c:	f7 1c       	adc	r15, r7
    4f0e:	08 1d       	adc	r16, r8
    4f10:	19 1d       	adc	r17, r9
    4f12:	9a 01       	movw	r18, r20
    4f14:	ab 01       	movw	r20, r22
    4f16:	2a 0d       	add	r18, r10
    4f18:	3b 1d       	adc	r19, r11
    4f1a:	4c 1d       	adc	r20, r12
    4f1c:	5d 1d       	adc	r21, r13
    4f1e:	80 e0       	ldi	r24, 0x00	; 0
    4f20:	90 e0       	ldi	r25, 0x00	; 0
    4f22:	a0 e0       	ldi	r26, 0x00	; 0
    4f24:	b0 e0       	ldi	r27, 0x00	; 0
    4f26:	e6 14       	cp	r14, r6
    4f28:	f7 04       	cpc	r15, r7
    4f2a:	08 05       	cpc	r16, r8
    4f2c:	19 05       	cpc	r17, r9
    4f2e:	20 f4       	brcc	.+8      	; 0x4f38 <__mulsf3+0xe8>
    4f30:	81 e0       	ldi	r24, 0x01	; 1
    4f32:	90 e0       	ldi	r25, 0x00	; 0
    4f34:	a0 e0       	ldi	r26, 0x00	; 0
    4f36:	b0 e0       	ldi	r27, 0x00	; 0
    4f38:	ba 01       	movw	r22, r20
    4f3a:	a9 01       	movw	r20, r18
    4f3c:	48 0f       	add	r20, r24
    4f3e:	59 1f       	adc	r21, r25
    4f40:	6a 1f       	adc	r22, r26
    4f42:	7b 1f       	adc	r23, r27
    4f44:	aa 0c       	add	r10, r10
    4f46:	bb 1c       	adc	r11, r11
    4f48:	cc 1c       	adc	r12, r12
    4f4a:	dd 1c       	adc	r13, r13
    4f4c:	97 fe       	sbrs	r9, 7
    4f4e:	08 c0       	rjmp	.+16     	; 0x4f60 <__mulsf3+0x110>
    4f50:	81 e0       	ldi	r24, 0x01	; 1
    4f52:	90 e0       	ldi	r25, 0x00	; 0
    4f54:	a0 e0       	ldi	r26, 0x00	; 0
    4f56:	b0 e0       	ldi	r27, 0x00	; 0
    4f58:	a8 2a       	or	r10, r24
    4f5a:	b9 2a       	or	r11, r25
    4f5c:	ca 2a       	or	r12, r26
    4f5e:	db 2a       	or	r13, r27
    4f60:	31 96       	adiw	r30, 0x01	; 1
    4f62:	e0 32       	cpi	r30, 0x20	; 32
    4f64:	f1 05       	cpc	r31, r1
    4f66:	49 f0       	breq	.+18     	; 0x4f7a <__mulsf3+0x12a>
    4f68:	66 0c       	add	r6, r6
    4f6a:	77 1c       	adc	r7, r7
    4f6c:	88 1c       	adc	r8, r8
    4f6e:	99 1c       	adc	r9, r9
    4f70:	56 94       	lsr	r5
    4f72:	47 94       	ror	r4
    4f74:	37 94       	ror	r3
    4f76:	27 94       	ror	r2
    4f78:	c3 cf       	rjmp	.-122    	; 0x4f00 <__mulsf3+0xb0>
    4f7a:	fa 85       	ldd	r31, Y+10	; 0x0a
    4f7c:	ea 89       	ldd	r30, Y+18	; 0x12
    4f7e:	2b 89       	ldd	r18, Y+19	; 0x13
    4f80:	3c 89       	ldd	r19, Y+20	; 0x14
    4f82:	8b 85       	ldd	r24, Y+11	; 0x0b
    4f84:	9c 85       	ldd	r25, Y+12	; 0x0c
    4f86:	28 0f       	add	r18, r24
    4f88:	39 1f       	adc	r19, r25
    4f8a:	2e 5f       	subi	r18, 0xFE	; 254
    4f8c:	3f 4f       	sbci	r19, 0xFF	; 255
    4f8e:	17 c0       	rjmp	.+46     	; 0x4fbe <__mulsf3+0x16e>
    4f90:	ca 01       	movw	r24, r20
    4f92:	81 70       	andi	r24, 0x01	; 1
    4f94:	90 70       	andi	r25, 0x00	; 0
    4f96:	89 2b       	or	r24, r25
    4f98:	61 f0       	breq	.+24     	; 0x4fb2 <__mulsf3+0x162>
    4f9a:	16 95       	lsr	r17
    4f9c:	07 95       	ror	r16
    4f9e:	f7 94       	ror	r15
    4fa0:	e7 94       	ror	r14
    4fa2:	80 e0       	ldi	r24, 0x00	; 0
    4fa4:	90 e0       	ldi	r25, 0x00	; 0
    4fa6:	a0 e0       	ldi	r26, 0x00	; 0
    4fa8:	b0 e8       	ldi	r27, 0x80	; 128
    4faa:	e8 2a       	or	r14, r24
    4fac:	f9 2a       	or	r15, r25
    4fae:	0a 2b       	or	r16, r26
    4fb0:	1b 2b       	or	r17, r27
    4fb2:	76 95       	lsr	r23
    4fb4:	67 95       	ror	r22
    4fb6:	57 95       	ror	r21
    4fb8:	47 95       	ror	r20
    4fba:	2f 5f       	subi	r18, 0xFF	; 255
    4fbc:	3f 4f       	sbci	r19, 0xFF	; 255
    4fbe:	77 fd       	sbrc	r23, 7
    4fc0:	e7 cf       	rjmp	.-50     	; 0x4f90 <__mulsf3+0x140>
    4fc2:	0c c0       	rjmp	.+24     	; 0x4fdc <__mulsf3+0x18c>
    4fc4:	44 0f       	add	r20, r20
    4fc6:	55 1f       	adc	r21, r21
    4fc8:	66 1f       	adc	r22, r22
    4fca:	77 1f       	adc	r23, r23
    4fcc:	17 fd       	sbrc	r17, 7
    4fce:	41 60       	ori	r20, 0x01	; 1
    4fd0:	ee 0c       	add	r14, r14
    4fd2:	ff 1c       	adc	r15, r15
    4fd4:	00 1f       	adc	r16, r16
    4fd6:	11 1f       	adc	r17, r17
    4fd8:	21 50       	subi	r18, 0x01	; 1
    4fda:	30 40       	sbci	r19, 0x00	; 0
    4fdc:	40 30       	cpi	r20, 0x00	; 0
    4fde:	90 e0       	ldi	r25, 0x00	; 0
    4fe0:	59 07       	cpc	r21, r25
    4fe2:	90 e0       	ldi	r25, 0x00	; 0
    4fe4:	69 07       	cpc	r22, r25
    4fe6:	90 e4       	ldi	r25, 0x40	; 64
    4fe8:	79 07       	cpc	r23, r25
    4fea:	60 f3       	brcs	.-40     	; 0x4fc4 <__mulsf3+0x174>
    4fec:	2b 8f       	std	Y+27, r18	; 0x1b
    4fee:	3c 8f       	std	Y+28, r19	; 0x1c
    4ff0:	db 01       	movw	r26, r22
    4ff2:	ca 01       	movw	r24, r20
    4ff4:	8f 77       	andi	r24, 0x7F	; 127
    4ff6:	90 70       	andi	r25, 0x00	; 0
    4ff8:	a0 70       	andi	r26, 0x00	; 0
    4ffa:	b0 70       	andi	r27, 0x00	; 0
    4ffc:	80 34       	cpi	r24, 0x40	; 64
    4ffe:	91 05       	cpc	r25, r1
    5000:	a1 05       	cpc	r26, r1
    5002:	b1 05       	cpc	r27, r1
    5004:	61 f4       	brne	.+24     	; 0x501e <__mulsf3+0x1ce>
    5006:	47 fd       	sbrc	r20, 7
    5008:	0a c0       	rjmp	.+20     	; 0x501e <__mulsf3+0x1ce>
    500a:	e1 14       	cp	r14, r1
    500c:	f1 04       	cpc	r15, r1
    500e:	01 05       	cpc	r16, r1
    5010:	11 05       	cpc	r17, r1
    5012:	29 f0       	breq	.+10     	; 0x501e <__mulsf3+0x1ce>
    5014:	40 5c       	subi	r20, 0xC0	; 192
    5016:	5f 4f       	sbci	r21, 0xFF	; 255
    5018:	6f 4f       	sbci	r22, 0xFF	; 255
    501a:	7f 4f       	sbci	r23, 0xFF	; 255
    501c:	40 78       	andi	r20, 0x80	; 128
    501e:	1a 8e       	std	Y+26, r1	; 0x1a
    5020:	fe 17       	cp	r31, r30
    5022:	11 f0       	breq	.+4      	; 0x5028 <__mulsf3+0x1d8>
    5024:	81 e0       	ldi	r24, 0x01	; 1
    5026:	8a 8f       	std	Y+26, r24	; 0x1a
    5028:	4d 8f       	std	Y+29, r20	; 0x1d
    502a:	5e 8f       	std	Y+30, r21	; 0x1e
    502c:	6f 8f       	std	Y+31, r22	; 0x1f
    502e:	78 a3       	std	Y+32, r23	; 0x20
    5030:	83 e0       	ldi	r24, 0x03	; 3
    5032:	89 8f       	std	Y+25, r24	; 0x19
    5034:	ce 01       	movw	r24, r28
    5036:	49 96       	adiw	r24, 0x19	; 25
    5038:	0e 94 06 29 	call	0x520c	; 0x520c <__pack_f>
    503c:	a0 96       	adiw	r28, 0x20	; 32
    503e:	e2 e1       	ldi	r30, 0x12	; 18
    5040:	0c 94 f6 2a 	jmp	0x55ec	; 0x55ec <__epilogue_restores__>

00005044 <__gtsf2>:
    5044:	a8 e1       	ldi	r26, 0x18	; 24
    5046:	b0 e0       	ldi	r27, 0x00	; 0
    5048:	e8 e2       	ldi	r30, 0x28	; 40
    504a:	f8 e2       	ldi	r31, 0x28	; 40
    504c:	0c 94 e6 2a 	jmp	0x55cc	; 0x55cc <__prologue_saves__+0x18>
    5050:	69 83       	std	Y+1, r22	; 0x01
    5052:	7a 83       	std	Y+2, r23	; 0x02
    5054:	8b 83       	std	Y+3, r24	; 0x03
    5056:	9c 83       	std	Y+4, r25	; 0x04
    5058:	2d 83       	std	Y+5, r18	; 0x05
    505a:	3e 83       	std	Y+6, r19	; 0x06
    505c:	4f 83       	std	Y+7, r20	; 0x07
    505e:	58 87       	std	Y+8, r21	; 0x08
    5060:	89 e0       	ldi	r24, 0x09	; 9
    5062:	e8 2e       	mov	r14, r24
    5064:	f1 2c       	mov	r15, r1
    5066:	ec 0e       	add	r14, r28
    5068:	fd 1e       	adc	r15, r29
    506a:	ce 01       	movw	r24, r28
    506c:	01 96       	adiw	r24, 0x01	; 1
    506e:	b7 01       	movw	r22, r14
    5070:	0e 94 db 29 	call	0x53b6	; 0x53b6 <__unpack_f>
    5074:	8e 01       	movw	r16, r28
    5076:	0f 5e       	subi	r16, 0xEF	; 239
    5078:	1f 4f       	sbci	r17, 0xFF	; 255
    507a:	ce 01       	movw	r24, r28
    507c:	05 96       	adiw	r24, 0x05	; 5
    507e:	b8 01       	movw	r22, r16
    5080:	0e 94 db 29 	call	0x53b6	; 0x53b6 <__unpack_f>
    5084:	89 85       	ldd	r24, Y+9	; 0x09
    5086:	82 30       	cpi	r24, 0x02	; 2
    5088:	40 f0       	brcs	.+16     	; 0x509a <__gtsf2+0x56>
    508a:	89 89       	ldd	r24, Y+17	; 0x11
    508c:	82 30       	cpi	r24, 0x02	; 2
    508e:	28 f0       	brcs	.+10     	; 0x509a <__gtsf2+0x56>
    5090:	c7 01       	movw	r24, r14
    5092:	b8 01       	movw	r22, r16
    5094:	0e 94 53 2a 	call	0x54a6	; 0x54a6 <__fpcmp_parts_f>
    5098:	01 c0       	rjmp	.+2      	; 0x509c <__gtsf2+0x58>
    509a:	8f ef       	ldi	r24, 0xFF	; 255
    509c:	68 96       	adiw	r28, 0x18	; 24
    509e:	e6 e0       	ldi	r30, 0x06	; 6
    50a0:	0c 94 02 2b 	jmp	0x5604	; 0x5604 <__epilogue_restores__+0x18>

000050a4 <__gesf2>:
    50a4:	a8 e1       	ldi	r26, 0x18	; 24
    50a6:	b0 e0       	ldi	r27, 0x00	; 0
    50a8:	e8 e5       	ldi	r30, 0x58	; 88
    50aa:	f8 e2       	ldi	r31, 0x28	; 40
    50ac:	0c 94 e6 2a 	jmp	0x55cc	; 0x55cc <__prologue_saves__+0x18>
    50b0:	69 83       	std	Y+1, r22	; 0x01
    50b2:	7a 83       	std	Y+2, r23	; 0x02
    50b4:	8b 83       	std	Y+3, r24	; 0x03
    50b6:	9c 83       	std	Y+4, r25	; 0x04
    50b8:	2d 83       	std	Y+5, r18	; 0x05
    50ba:	3e 83       	std	Y+6, r19	; 0x06
    50bc:	4f 83       	std	Y+7, r20	; 0x07
    50be:	58 87       	std	Y+8, r21	; 0x08
    50c0:	89 e0       	ldi	r24, 0x09	; 9
    50c2:	e8 2e       	mov	r14, r24
    50c4:	f1 2c       	mov	r15, r1
    50c6:	ec 0e       	add	r14, r28
    50c8:	fd 1e       	adc	r15, r29
    50ca:	ce 01       	movw	r24, r28
    50cc:	01 96       	adiw	r24, 0x01	; 1
    50ce:	b7 01       	movw	r22, r14
    50d0:	0e 94 db 29 	call	0x53b6	; 0x53b6 <__unpack_f>
    50d4:	8e 01       	movw	r16, r28
    50d6:	0f 5e       	subi	r16, 0xEF	; 239
    50d8:	1f 4f       	sbci	r17, 0xFF	; 255
    50da:	ce 01       	movw	r24, r28
    50dc:	05 96       	adiw	r24, 0x05	; 5
    50de:	b8 01       	movw	r22, r16
    50e0:	0e 94 db 29 	call	0x53b6	; 0x53b6 <__unpack_f>
    50e4:	89 85       	ldd	r24, Y+9	; 0x09
    50e6:	82 30       	cpi	r24, 0x02	; 2
    50e8:	40 f0       	brcs	.+16     	; 0x50fa <__gesf2+0x56>
    50ea:	89 89       	ldd	r24, Y+17	; 0x11
    50ec:	82 30       	cpi	r24, 0x02	; 2
    50ee:	28 f0       	brcs	.+10     	; 0x50fa <__gesf2+0x56>
    50f0:	c7 01       	movw	r24, r14
    50f2:	b8 01       	movw	r22, r16
    50f4:	0e 94 53 2a 	call	0x54a6	; 0x54a6 <__fpcmp_parts_f>
    50f8:	01 c0       	rjmp	.+2      	; 0x50fc <__gesf2+0x58>
    50fa:	8f ef       	ldi	r24, 0xFF	; 255
    50fc:	68 96       	adiw	r28, 0x18	; 24
    50fe:	e6 e0       	ldi	r30, 0x06	; 6
    5100:	0c 94 02 2b 	jmp	0x5604	; 0x5604 <__epilogue_restores__+0x18>

00005104 <__ltsf2>:
    5104:	a8 e1       	ldi	r26, 0x18	; 24
    5106:	b0 e0       	ldi	r27, 0x00	; 0
    5108:	e8 e8       	ldi	r30, 0x88	; 136
    510a:	f8 e2       	ldi	r31, 0x28	; 40
    510c:	0c 94 e6 2a 	jmp	0x55cc	; 0x55cc <__prologue_saves__+0x18>
    5110:	69 83       	std	Y+1, r22	; 0x01
    5112:	7a 83       	std	Y+2, r23	; 0x02
    5114:	8b 83       	std	Y+3, r24	; 0x03
    5116:	9c 83       	std	Y+4, r25	; 0x04
    5118:	2d 83       	std	Y+5, r18	; 0x05
    511a:	3e 83       	std	Y+6, r19	; 0x06
    511c:	4f 83       	std	Y+7, r20	; 0x07
    511e:	58 87       	std	Y+8, r21	; 0x08
    5120:	89 e0       	ldi	r24, 0x09	; 9
    5122:	e8 2e       	mov	r14, r24
    5124:	f1 2c       	mov	r15, r1
    5126:	ec 0e       	add	r14, r28
    5128:	fd 1e       	adc	r15, r29
    512a:	ce 01       	movw	r24, r28
    512c:	01 96       	adiw	r24, 0x01	; 1
    512e:	b7 01       	movw	r22, r14
    5130:	0e 94 db 29 	call	0x53b6	; 0x53b6 <__unpack_f>
    5134:	8e 01       	movw	r16, r28
    5136:	0f 5e       	subi	r16, 0xEF	; 239
    5138:	1f 4f       	sbci	r17, 0xFF	; 255
    513a:	ce 01       	movw	r24, r28
    513c:	05 96       	adiw	r24, 0x05	; 5
    513e:	b8 01       	movw	r22, r16
    5140:	0e 94 db 29 	call	0x53b6	; 0x53b6 <__unpack_f>
    5144:	89 85       	ldd	r24, Y+9	; 0x09
    5146:	82 30       	cpi	r24, 0x02	; 2
    5148:	40 f0       	brcs	.+16     	; 0x515a <__ltsf2+0x56>
    514a:	89 89       	ldd	r24, Y+17	; 0x11
    514c:	82 30       	cpi	r24, 0x02	; 2
    514e:	28 f0       	brcs	.+10     	; 0x515a <__ltsf2+0x56>
    5150:	c7 01       	movw	r24, r14
    5152:	b8 01       	movw	r22, r16
    5154:	0e 94 53 2a 	call	0x54a6	; 0x54a6 <__fpcmp_parts_f>
    5158:	01 c0       	rjmp	.+2      	; 0x515c <__ltsf2+0x58>
    515a:	81 e0       	ldi	r24, 0x01	; 1
    515c:	68 96       	adiw	r28, 0x18	; 24
    515e:	e6 e0       	ldi	r30, 0x06	; 6
    5160:	0c 94 02 2b 	jmp	0x5604	; 0x5604 <__epilogue_restores__+0x18>

00005164 <__fixsfsi>:
    5164:	ac e0       	ldi	r26, 0x0C	; 12
    5166:	b0 e0       	ldi	r27, 0x00	; 0
    5168:	e8 eb       	ldi	r30, 0xB8	; 184
    516a:	f8 e2       	ldi	r31, 0x28	; 40
    516c:	0c 94 ea 2a 	jmp	0x55d4	; 0x55d4 <__prologue_saves__+0x20>
    5170:	69 83       	std	Y+1, r22	; 0x01
    5172:	7a 83       	std	Y+2, r23	; 0x02
    5174:	8b 83       	std	Y+3, r24	; 0x03
    5176:	9c 83       	std	Y+4, r25	; 0x04
    5178:	ce 01       	movw	r24, r28
    517a:	01 96       	adiw	r24, 0x01	; 1
    517c:	be 01       	movw	r22, r28
    517e:	6b 5f       	subi	r22, 0xFB	; 251
    5180:	7f 4f       	sbci	r23, 0xFF	; 255
    5182:	0e 94 db 29 	call	0x53b6	; 0x53b6 <__unpack_f>
    5186:	8d 81       	ldd	r24, Y+5	; 0x05
    5188:	82 30       	cpi	r24, 0x02	; 2
    518a:	61 f1       	breq	.+88     	; 0x51e4 <__fixsfsi+0x80>
    518c:	82 30       	cpi	r24, 0x02	; 2
    518e:	50 f1       	brcs	.+84     	; 0x51e4 <__fixsfsi+0x80>
    5190:	84 30       	cpi	r24, 0x04	; 4
    5192:	21 f4       	brne	.+8      	; 0x519c <__fixsfsi+0x38>
    5194:	8e 81       	ldd	r24, Y+6	; 0x06
    5196:	88 23       	and	r24, r24
    5198:	51 f1       	breq	.+84     	; 0x51ee <__fixsfsi+0x8a>
    519a:	2e c0       	rjmp	.+92     	; 0x51f8 <__fixsfsi+0x94>
    519c:	2f 81       	ldd	r18, Y+7	; 0x07
    519e:	38 85       	ldd	r19, Y+8	; 0x08
    51a0:	37 fd       	sbrc	r19, 7
    51a2:	20 c0       	rjmp	.+64     	; 0x51e4 <__fixsfsi+0x80>
    51a4:	6e 81       	ldd	r22, Y+6	; 0x06
    51a6:	2f 31       	cpi	r18, 0x1F	; 31
    51a8:	31 05       	cpc	r19, r1
    51aa:	1c f0       	brlt	.+6      	; 0x51b2 <__fixsfsi+0x4e>
    51ac:	66 23       	and	r22, r22
    51ae:	f9 f0       	breq	.+62     	; 0x51ee <__fixsfsi+0x8a>
    51b0:	23 c0       	rjmp	.+70     	; 0x51f8 <__fixsfsi+0x94>
    51b2:	8e e1       	ldi	r24, 0x1E	; 30
    51b4:	90 e0       	ldi	r25, 0x00	; 0
    51b6:	82 1b       	sub	r24, r18
    51b8:	93 0b       	sbc	r25, r19
    51ba:	29 85       	ldd	r18, Y+9	; 0x09
    51bc:	3a 85       	ldd	r19, Y+10	; 0x0a
    51be:	4b 85       	ldd	r20, Y+11	; 0x0b
    51c0:	5c 85       	ldd	r21, Y+12	; 0x0c
    51c2:	04 c0       	rjmp	.+8      	; 0x51cc <__fixsfsi+0x68>
    51c4:	56 95       	lsr	r21
    51c6:	47 95       	ror	r20
    51c8:	37 95       	ror	r19
    51ca:	27 95       	ror	r18
    51cc:	8a 95       	dec	r24
    51ce:	d2 f7       	brpl	.-12     	; 0x51c4 <__fixsfsi+0x60>
    51d0:	66 23       	and	r22, r22
    51d2:	b1 f0       	breq	.+44     	; 0x5200 <__fixsfsi+0x9c>
    51d4:	50 95       	com	r21
    51d6:	40 95       	com	r20
    51d8:	30 95       	com	r19
    51da:	21 95       	neg	r18
    51dc:	3f 4f       	sbci	r19, 0xFF	; 255
    51de:	4f 4f       	sbci	r20, 0xFF	; 255
    51e0:	5f 4f       	sbci	r21, 0xFF	; 255
    51e2:	0e c0       	rjmp	.+28     	; 0x5200 <__fixsfsi+0x9c>
    51e4:	20 e0       	ldi	r18, 0x00	; 0
    51e6:	30 e0       	ldi	r19, 0x00	; 0
    51e8:	40 e0       	ldi	r20, 0x00	; 0
    51ea:	50 e0       	ldi	r21, 0x00	; 0
    51ec:	09 c0       	rjmp	.+18     	; 0x5200 <__fixsfsi+0x9c>
    51ee:	2f ef       	ldi	r18, 0xFF	; 255
    51f0:	3f ef       	ldi	r19, 0xFF	; 255
    51f2:	4f ef       	ldi	r20, 0xFF	; 255
    51f4:	5f e7       	ldi	r21, 0x7F	; 127
    51f6:	04 c0       	rjmp	.+8      	; 0x5200 <__fixsfsi+0x9c>
    51f8:	20 e0       	ldi	r18, 0x00	; 0
    51fa:	30 e0       	ldi	r19, 0x00	; 0
    51fc:	40 e0       	ldi	r20, 0x00	; 0
    51fe:	50 e8       	ldi	r21, 0x80	; 128
    5200:	b9 01       	movw	r22, r18
    5202:	ca 01       	movw	r24, r20
    5204:	2c 96       	adiw	r28, 0x0c	; 12
    5206:	e2 e0       	ldi	r30, 0x02	; 2
    5208:	0c 94 06 2b 	jmp	0x560c	; 0x560c <__epilogue_restores__+0x20>

0000520c <__pack_f>:
    520c:	df 92       	push	r13
    520e:	ef 92       	push	r14
    5210:	ff 92       	push	r15
    5212:	0f 93       	push	r16
    5214:	1f 93       	push	r17
    5216:	fc 01       	movw	r30, r24
    5218:	e4 80       	ldd	r14, Z+4	; 0x04
    521a:	f5 80       	ldd	r15, Z+5	; 0x05
    521c:	06 81       	ldd	r16, Z+6	; 0x06
    521e:	17 81       	ldd	r17, Z+7	; 0x07
    5220:	d1 80       	ldd	r13, Z+1	; 0x01
    5222:	80 81       	ld	r24, Z
    5224:	82 30       	cpi	r24, 0x02	; 2
    5226:	48 f4       	brcc	.+18     	; 0x523a <__pack_f+0x2e>
    5228:	80 e0       	ldi	r24, 0x00	; 0
    522a:	90 e0       	ldi	r25, 0x00	; 0
    522c:	a0 e1       	ldi	r26, 0x10	; 16
    522e:	b0 e0       	ldi	r27, 0x00	; 0
    5230:	e8 2a       	or	r14, r24
    5232:	f9 2a       	or	r15, r25
    5234:	0a 2b       	or	r16, r26
    5236:	1b 2b       	or	r17, r27
    5238:	a5 c0       	rjmp	.+330    	; 0x5384 <__pack_f+0x178>
    523a:	84 30       	cpi	r24, 0x04	; 4
    523c:	09 f4       	brne	.+2      	; 0x5240 <__pack_f+0x34>
    523e:	9f c0       	rjmp	.+318    	; 0x537e <__pack_f+0x172>
    5240:	82 30       	cpi	r24, 0x02	; 2
    5242:	21 f4       	brne	.+8      	; 0x524c <__pack_f+0x40>
    5244:	ee 24       	eor	r14, r14
    5246:	ff 24       	eor	r15, r15
    5248:	87 01       	movw	r16, r14
    524a:	05 c0       	rjmp	.+10     	; 0x5256 <__pack_f+0x4a>
    524c:	e1 14       	cp	r14, r1
    524e:	f1 04       	cpc	r15, r1
    5250:	01 05       	cpc	r16, r1
    5252:	11 05       	cpc	r17, r1
    5254:	19 f4       	brne	.+6      	; 0x525c <__pack_f+0x50>
    5256:	e0 e0       	ldi	r30, 0x00	; 0
    5258:	f0 e0       	ldi	r31, 0x00	; 0
    525a:	96 c0       	rjmp	.+300    	; 0x5388 <__pack_f+0x17c>
    525c:	62 81       	ldd	r22, Z+2	; 0x02
    525e:	73 81       	ldd	r23, Z+3	; 0x03
    5260:	9f ef       	ldi	r25, 0xFF	; 255
    5262:	62 38       	cpi	r22, 0x82	; 130
    5264:	79 07       	cpc	r23, r25
    5266:	0c f0       	brlt	.+2      	; 0x526a <__pack_f+0x5e>
    5268:	5b c0       	rjmp	.+182    	; 0x5320 <__pack_f+0x114>
    526a:	22 e8       	ldi	r18, 0x82	; 130
    526c:	3f ef       	ldi	r19, 0xFF	; 255
    526e:	26 1b       	sub	r18, r22
    5270:	37 0b       	sbc	r19, r23
    5272:	2a 31       	cpi	r18, 0x1A	; 26
    5274:	31 05       	cpc	r19, r1
    5276:	2c f0       	brlt	.+10     	; 0x5282 <__pack_f+0x76>
    5278:	20 e0       	ldi	r18, 0x00	; 0
    527a:	30 e0       	ldi	r19, 0x00	; 0
    527c:	40 e0       	ldi	r20, 0x00	; 0
    527e:	50 e0       	ldi	r21, 0x00	; 0
    5280:	2a c0       	rjmp	.+84     	; 0x52d6 <__pack_f+0xca>
    5282:	b8 01       	movw	r22, r16
    5284:	a7 01       	movw	r20, r14
    5286:	02 2e       	mov	r0, r18
    5288:	04 c0       	rjmp	.+8      	; 0x5292 <__pack_f+0x86>
    528a:	76 95       	lsr	r23
    528c:	67 95       	ror	r22
    528e:	57 95       	ror	r21
    5290:	47 95       	ror	r20
    5292:	0a 94       	dec	r0
    5294:	d2 f7       	brpl	.-12     	; 0x528a <__pack_f+0x7e>
    5296:	81 e0       	ldi	r24, 0x01	; 1
    5298:	90 e0       	ldi	r25, 0x00	; 0
    529a:	a0 e0       	ldi	r26, 0x00	; 0
    529c:	b0 e0       	ldi	r27, 0x00	; 0
    529e:	04 c0       	rjmp	.+8      	; 0x52a8 <__pack_f+0x9c>
    52a0:	88 0f       	add	r24, r24
    52a2:	99 1f       	adc	r25, r25
    52a4:	aa 1f       	adc	r26, r26
    52a6:	bb 1f       	adc	r27, r27
    52a8:	2a 95       	dec	r18
    52aa:	d2 f7       	brpl	.-12     	; 0x52a0 <__pack_f+0x94>
    52ac:	01 97       	sbiw	r24, 0x01	; 1
    52ae:	a1 09       	sbc	r26, r1
    52b0:	b1 09       	sbc	r27, r1
    52b2:	8e 21       	and	r24, r14
    52b4:	9f 21       	and	r25, r15
    52b6:	a0 23       	and	r26, r16
    52b8:	b1 23       	and	r27, r17
    52ba:	00 97       	sbiw	r24, 0x00	; 0
    52bc:	a1 05       	cpc	r26, r1
    52be:	b1 05       	cpc	r27, r1
    52c0:	21 f0       	breq	.+8      	; 0x52ca <__pack_f+0xbe>
    52c2:	81 e0       	ldi	r24, 0x01	; 1
    52c4:	90 e0       	ldi	r25, 0x00	; 0
    52c6:	a0 e0       	ldi	r26, 0x00	; 0
    52c8:	b0 e0       	ldi	r27, 0x00	; 0
    52ca:	9a 01       	movw	r18, r20
    52cc:	ab 01       	movw	r20, r22
    52ce:	28 2b       	or	r18, r24
    52d0:	39 2b       	or	r19, r25
    52d2:	4a 2b       	or	r20, r26
    52d4:	5b 2b       	or	r21, r27
    52d6:	da 01       	movw	r26, r20
    52d8:	c9 01       	movw	r24, r18
    52da:	8f 77       	andi	r24, 0x7F	; 127
    52dc:	90 70       	andi	r25, 0x00	; 0
    52de:	a0 70       	andi	r26, 0x00	; 0
    52e0:	b0 70       	andi	r27, 0x00	; 0
    52e2:	80 34       	cpi	r24, 0x40	; 64
    52e4:	91 05       	cpc	r25, r1
    52e6:	a1 05       	cpc	r26, r1
    52e8:	b1 05       	cpc	r27, r1
    52ea:	39 f4       	brne	.+14     	; 0x52fa <__pack_f+0xee>
    52ec:	27 ff       	sbrs	r18, 7
    52ee:	09 c0       	rjmp	.+18     	; 0x5302 <__pack_f+0xf6>
    52f0:	20 5c       	subi	r18, 0xC0	; 192
    52f2:	3f 4f       	sbci	r19, 0xFF	; 255
    52f4:	4f 4f       	sbci	r20, 0xFF	; 255
    52f6:	5f 4f       	sbci	r21, 0xFF	; 255
    52f8:	04 c0       	rjmp	.+8      	; 0x5302 <__pack_f+0xf6>
    52fa:	21 5c       	subi	r18, 0xC1	; 193
    52fc:	3f 4f       	sbci	r19, 0xFF	; 255
    52fe:	4f 4f       	sbci	r20, 0xFF	; 255
    5300:	5f 4f       	sbci	r21, 0xFF	; 255
    5302:	e0 e0       	ldi	r30, 0x00	; 0
    5304:	f0 e0       	ldi	r31, 0x00	; 0
    5306:	20 30       	cpi	r18, 0x00	; 0
    5308:	a0 e0       	ldi	r26, 0x00	; 0
    530a:	3a 07       	cpc	r19, r26
    530c:	a0 e0       	ldi	r26, 0x00	; 0
    530e:	4a 07       	cpc	r20, r26
    5310:	a0 e4       	ldi	r26, 0x40	; 64
    5312:	5a 07       	cpc	r21, r26
    5314:	10 f0       	brcs	.+4      	; 0x531a <__pack_f+0x10e>
    5316:	e1 e0       	ldi	r30, 0x01	; 1
    5318:	f0 e0       	ldi	r31, 0x00	; 0
    531a:	79 01       	movw	r14, r18
    531c:	8a 01       	movw	r16, r20
    531e:	27 c0       	rjmp	.+78     	; 0x536e <__pack_f+0x162>
    5320:	60 38       	cpi	r22, 0x80	; 128
    5322:	71 05       	cpc	r23, r1
    5324:	64 f5       	brge	.+88     	; 0x537e <__pack_f+0x172>
    5326:	fb 01       	movw	r30, r22
    5328:	e1 58       	subi	r30, 0x81	; 129
    532a:	ff 4f       	sbci	r31, 0xFF	; 255
    532c:	d8 01       	movw	r26, r16
    532e:	c7 01       	movw	r24, r14
    5330:	8f 77       	andi	r24, 0x7F	; 127
    5332:	90 70       	andi	r25, 0x00	; 0
    5334:	a0 70       	andi	r26, 0x00	; 0
    5336:	b0 70       	andi	r27, 0x00	; 0
    5338:	80 34       	cpi	r24, 0x40	; 64
    533a:	91 05       	cpc	r25, r1
    533c:	a1 05       	cpc	r26, r1
    533e:	b1 05       	cpc	r27, r1
    5340:	39 f4       	brne	.+14     	; 0x5350 <__pack_f+0x144>
    5342:	e7 fe       	sbrs	r14, 7
    5344:	0d c0       	rjmp	.+26     	; 0x5360 <__pack_f+0x154>
    5346:	80 e4       	ldi	r24, 0x40	; 64
    5348:	90 e0       	ldi	r25, 0x00	; 0
    534a:	a0 e0       	ldi	r26, 0x00	; 0
    534c:	b0 e0       	ldi	r27, 0x00	; 0
    534e:	04 c0       	rjmp	.+8      	; 0x5358 <__pack_f+0x14c>
    5350:	8f e3       	ldi	r24, 0x3F	; 63
    5352:	90 e0       	ldi	r25, 0x00	; 0
    5354:	a0 e0       	ldi	r26, 0x00	; 0
    5356:	b0 e0       	ldi	r27, 0x00	; 0
    5358:	e8 0e       	add	r14, r24
    535a:	f9 1e       	adc	r15, r25
    535c:	0a 1f       	adc	r16, r26
    535e:	1b 1f       	adc	r17, r27
    5360:	17 ff       	sbrs	r17, 7
    5362:	05 c0       	rjmp	.+10     	; 0x536e <__pack_f+0x162>
    5364:	16 95       	lsr	r17
    5366:	07 95       	ror	r16
    5368:	f7 94       	ror	r15
    536a:	e7 94       	ror	r14
    536c:	31 96       	adiw	r30, 0x01	; 1
    536e:	87 e0       	ldi	r24, 0x07	; 7
    5370:	16 95       	lsr	r17
    5372:	07 95       	ror	r16
    5374:	f7 94       	ror	r15
    5376:	e7 94       	ror	r14
    5378:	8a 95       	dec	r24
    537a:	d1 f7       	brne	.-12     	; 0x5370 <__pack_f+0x164>
    537c:	05 c0       	rjmp	.+10     	; 0x5388 <__pack_f+0x17c>
    537e:	ee 24       	eor	r14, r14
    5380:	ff 24       	eor	r15, r15
    5382:	87 01       	movw	r16, r14
    5384:	ef ef       	ldi	r30, 0xFF	; 255
    5386:	f0 e0       	ldi	r31, 0x00	; 0
    5388:	6e 2f       	mov	r22, r30
    538a:	67 95       	ror	r22
    538c:	66 27       	eor	r22, r22
    538e:	67 95       	ror	r22
    5390:	90 2f       	mov	r25, r16
    5392:	9f 77       	andi	r25, 0x7F	; 127
    5394:	d7 94       	ror	r13
    5396:	dd 24       	eor	r13, r13
    5398:	d7 94       	ror	r13
    539a:	8e 2f       	mov	r24, r30
    539c:	86 95       	lsr	r24
    539e:	49 2f       	mov	r20, r25
    53a0:	46 2b       	or	r20, r22
    53a2:	58 2f       	mov	r21, r24
    53a4:	5d 29       	or	r21, r13
    53a6:	b7 01       	movw	r22, r14
    53a8:	ca 01       	movw	r24, r20
    53aa:	1f 91       	pop	r17
    53ac:	0f 91       	pop	r16
    53ae:	ff 90       	pop	r15
    53b0:	ef 90       	pop	r14
    53b2:	df 90       	pop	r13
    53b4:	08 95       	ret

000053b6 <__unpack_f>:
    53b6:	fc 01       	movw	r30, r24
    53b8:	db 01       	movw	r26, r22
    53ba:	40 81       	ld	r20, Z
    53bc:	51 81       	ldd	r21, Z+1	; 0x01
    53be:	22 81       	ldd	r18, Z+2	; 0x02
    53c0:	62 2f       	mov	r22, r18
    53c2:	6f 77       	andi	r22, 0x7F	; 127
    53c4:	70 e0       	ldi	r23, 0x00	; 0
    53c6:	22 1f       	adc	r18, r18
    53c8:	22 27       	eor	r18, r18
    53ca:	22 1f       	adc	r18, r18
    53cc:	93 81       	ldd	r25, Z+3	; 0x03
    53ce:	89 2f       	mov	r24, r25
    53d0:	88 0f       	add	r24, r24
    53d2:	82 2b       	or	r24, r18
    53d4:	28 2f       	mov	r18, r24
    53d6:	30 e0       	ldi	r19, 0x00	; 0
    53d8:	99 1f       	adc	r25, r25
    53da:	99 27       	eor	r25, r25
    53dc:	99 1f       	adc	r25, r25
    53de:	11 96       	adiw	r26, 0x01	; 1
    53e0:	9c 93       	st	X, r25
    53e2:	11 97       	sbiw	r26, 0x01	; 1
    53e4:	21 15       	cp	r18, r1
    53e6:	31 05       	cpc	r19, r1
    53e8:	a9 f5       	brne	.+106    	; 0x5454 <__unpack_f+0x9e>
    53ea:	41 15       	cp	r20, r1
    53ec:	51 05       	cpc	r21, r1
    53ee:	61 05       	cpc	r22, r1
    53f0:	71 05       	cpc	r23, r1
    53f2:	11 f4       	brne	.+4      	; 0x53f8 <__unpack_f+0x42>
    53f4:	82 e0       	ldi	r24, 0x02	; 2
    53f6:	37 c0       	rjmp	.+110    	; 0x5466 <__unpack_f+0xb0>
    53f8:	82 e8       	ldi	r24, 0x82	; 130
    53fa:	9f ef       	ldi	r25, 0xFF	; 255
    53fc:	13 96       	adiw	r26, 0x03	; 3
    53fe:	9c 93       	st	X, r25
    5400:	8e 93       	st	-X, r24
    5402:	12 97       	sbiw	r26, 0x02	; 2
    5404:	9a 01       	movw	r18, r20
    5406:	ab 01       	movw	r20, r22
    5408:	67 e0       	ldi	r22, 0x07	; 7
    540a:	22 0f       	add	r18, r18
    540c:	33 1f       	adc	r19, r19
    540e:	44 1f       	adc	r20, r20
    5410:	55 1f       	adc	r21, r21
    5412:	6a 95       	dec	r22
    5414:	d1 f7       	brne	.-12     	; 0x540a <__unpack_f+0x54>
    5416:	83 e0       	ldi	r24, 0x03	; 3
    5418:	8c 93       	st	X, r24
    541a:	0d c0       	rjmp	.+26     	; 0x5436 <__unpack_f+0x80>
    541c:	22 0f       	add	r18, r18
    541e:	33 1f       	adc	r19, r19
    5420:	44 1f       	adc	r20, r20
    5422:	55 1f       	adc	r21, r21
    5424:	12 96       	adiw	r26, 0x02	; 2
    5426:	8d 91       	ld	r24, X+
    5428:	9c 91       	ld	r25, X
    542a:	13 97       	sbiw	r26, 0x03	; 3
    542c:	01 97       	sbiw	r24, 0x01	; 1
    542e:	13 96       	adiw	r26, 0x03	; 3
    5430:	9c 93       	st	X, r25
    5432:	8e 93       	st	-X, r24
    5434:	12 97       	sbiw	r26, 0x02	; 2
    5436:	20 30       	cpi	r18, 0x00	; 0
    5438:	80 e0       	ldi	r24, 0x00	; 0
    543a:	38 07       	cpc	r19, r24
    543c:	80 e0       	ldi	r24, 0x00	; 0
    543e:	48 07       	cpc	r20, r24
    5440:	80 e4       	ldi	r24, 0x40	; 64
    5442:	58 07       	cpc	r21, r24
    5444:	58 f3       	brcs	.-42     	; 0x541c <__unpack_f+0x66>
    5446:	14 96       	adiw	r26, 0x04	; 4
    5448:	2d 93       	st	X+, r18
    544a:	3d 93       	st	X+, r19
    544c:	4d 93       	st	X+, r20
    544e:	5c 93       	st	X, r21
    5450:	17 97       	sbiw	r26, 0x07	; 7
    5452:	08 95       	ret
    5454:	2f 3f       	cpi	r18, 0xFF	; 255
    5456:	31 05       	cpc	r19, r1
    5458:	79 f4       	brne	.+30     	; 0x5478 <__unpack_f+0xc2>
    545a:	41 15       	cp	r20, r1
    545c:	51 05       	cpc	r21, r1
    545e:	61 05       	cpc	r22, r1
    5460:	71 05       	cpc	r23, r1
    5462:	19 f4       	brne	.+6      	; 0x546a <__unpack_f+0xb4>
    5464:	84 e0       	ldi	r24, 0x04	; 4
    5466:	8c 93       	st	X, r24
    5468:	08 95       	ret
    546a:	64 ff       	sbrs	r22, 4
    546c:	03 c0       	rjmp	.+6      	; 0x5474 <__unpack_f+0xbe>
    546e:	81 e0       	ldi	r24, 0x01	; 1
    5470:	8c 93       	st	X, r24
    5472:	12 c0       	rjmp	.+36     	; 0x5498 <__unpack_f+0xe2>
    5474:	1c 92       	st	X, r1
    5476:	10 c0       	rjmp	.+32     	; 0x5498 <__unpack_f+0xe2>
    5478:	2f 57       	subi	r18, 0x7F	; 127
    547a:	30 40       	sbci	r19, 0x00	; 0
    547c:	13 96       	adiw	r26, 0x03	; 3
    547e:	3c 93       	st	X, r19
    5480:	2e 93       	st	-X, r18
    5482:	12 97       	sbiw	r26, 0x02	; 2
    5484:	83 e0       	ldi	r24, 0x03	; 3
    5486:	8c 93       	st	X, r24
    5488:	87 e0       	ldi	r24, 0x07	; 7
    548a:	44 0f       	add	r20, r20
    548c:	55 1f       	adc	r21, r21
    548e:	66 1f       	adc	r22, r22
    5490:	77 1f       	adc	r23, r23
    5492:	8a 95       	dec	r24
    5494:	d1 f7       	brne	.-12     	; 0x548a <__unpack_f+0xd4>
    5496:	70 64       	ori	r23, 0x40	; 64
    5498:	14 96       	adiw	r26, 0x04	; 4
    549a:	4d 93       	st	X+, r20
    549c:	5d 93       	st	X+, r21
    549e:	6d 93       	st	X+, r22
    54a0:	7c 93       	st	X, r23
    54a2:	17 97       	sbiw	r26, 0x07	; 7
    54a4:	08 95       	ret

000054a6 <__fpcmp_parts_f>:
    54a6:	1f 93       	push	r17
    54a8:	dc 01       	movw	r26, r24
    54aa:	fb 01       	movw	r30, r22
    54ac:	9c 91       	ld	r25, X
    54ae:	92 30       	cpi	r25, 0x02	; 2
    54b0:	08 f4       	brcc	.+2      	; 0x54b4 <__fpcmp_parts_f+0xe>
    54b2:	47 c0       	rjmp	.+142    	; 0x5542 <__fpcmp_parts_f+0x9c>
    54b4:	80 81       	ld	r24, Z
    54b6:	82 30       	cpi	r24, 0x02	; 2
    54b8:	08 f4       	brcc	.+2      	; 0x54bc <__fpcmp_parts_f+0x16>
    54ba:	43 c0       	rjmp	.+134    	; 0x5542 <__fpcmp_parts_f+0x9c>
    54bc:	94 30       	cpi	r25, 0x04	; 4
    54be:	51 f4       	brne	.+20     	; 0x54d4 <__fpcmp_parts_f+0x2e>
    54c0:	11 96       	adiw	r26, 0x01	; 1
    54c2:	1c 91       	ld	r17, X
    54c4:	84 30       	cpi	r24, 0x04	; 4
    54c6:	99 f5       	brne	.+102    	; 0x552e <__fpcmp_parts_f+0x88>
    54c8:	81 81       	ldd	r24, Z+1	; 0x01
    54ca:	68 2f       	mov	r22, r24
    54cc:	70 e0       	ldi	r23, 0x00	; 0
    54ce:	61 1b       	sub	r22, r17
    54d0:	71 09       	sbc	r23, r1
    54d2:	3f c0       	rjmp	.+126    	; 0x5552 <__fpcmp_parts_f+0xac>
    54d4:	84 30       	cpi	r24, 0x04	; 4
    54d6:	21 f0       	breq	.+8      	; 0x54e0 <__fpcmp_parts_f+0x3a>
    54d8:	92 30       	cpi	r25, 0x02	; 2
    54da:	31 f4       	brne	.+12     	; 0x54e8 <__fpcmp_parts_f+0x42>
    54dc:	82 30       	cpi	r24, 0x02	; 2
    54de:	b9 f1       	breq	.+110    	; 0x554e <__fpcmp_parts_f+0xa8>
    54e0:	81 81       	ldd	r24, Z+1	; 0x01
    54e2:	88 23       	and	r24, r24
    54e4:	89 f1       	breq	.+98     	; 0x5548 <__fpcmp_parts_f+0xa2>
    54e6:	2d c0       	rjmp	.+90     	; 0x5542 <__fpcmp_parts_f+0x9c>
    54e8:	11 96       	adiw	r26, 0x01	; 1
    54ea:	1c 91       	ld	r17, X
    54ec:	11 97       	sbiw	r26, 0x01	; 1
    54ee:	82 30       	cpi	r24, 0x02	; 2
    54f0:	f1 f0       	breq	.+60     	; 0x552e <__fpcmp_parts_f+0x88>
    54f2:	81 81       	ldd	r24, Z+1	; 0x01
    54f4:	18 17       	cp	r17, r24
    54f6:	d9 f4       	brne	.+54     	; 0x552e <__fpcmp_parts_f+0x88>
    54f8:	12 96       	adiw	r26, 0x02	; 2
    54fa:	2d 91       	ld	r18, X+
    54fc:	3c 91       	ld	r19, X
    54fe:	13 97       	sbiw	r26, 0x03	; 3
    5500:	82 81       	ldd	r24, Z+2	; 0x02
    5502:	93 81       	ldd	r25, Z+3	; 0x03
    5504:	82 17       	cp	r24, r18
    5506:	93 07       	cpc	r25, r19
    5508:	94 f0       	brlt	.+36     	; 0x552e <__fpcmp_parts_f+0x88>
    550a:	28 17       	cp	r18, r24
    550c:	39 07       	cpc	r19, r25
    550e:	bc f0       	brlt	.+46     	; 0x553e <__fpcmp_parts_f+0x98>
    5510:	14 96       	adiw	r26, 0x04	; 4
    5512:	8d 91       	ld	r24, X+
    5514:	9d 91       	ld	r25, X+
    5516:	0d 90       	ld	r0, X+
    5518:	bc 91       	ld	r27, X
    551a:	a0 2d       	mov	r26, r0
    551c:	24 81       	ldd	r18, Z+4	; 0x04
    551e:	35 81       	ldd	r19, Z+5	; 0x05
    5520:	46 81       	ldd	r20, Z+6	; 0x06
    5522:	57 81       	ldd	r21, Z+7	; 0x07
    5524:	28 17       	cp	r18, r24
    5526:	39 07       	cpc	r19, r25
    5528:	4a 07       	cpc	r20, r26
    552a:	5b 07       	cpc	r21, r27
    552c:	18 f4       	brcc	.+6      	; 0x5534 <__fpcmp_parts_f+0x8e>
    552e:	11 23       	and	r17, r17
    5530:	41 f0       	breq	.+16     	; 0x5542 <__fpcmp_parts_f+0x9c>
    5532:	0a c0       	rjmp	.+20     	; 0x5548 <__fpcmp_parts_f+0xa2>
    5534:	82 17       	cp	r24, r18
    5536:	93 07       	cpc	r25, r19
    5538:	a4 07       	cpc	r26, r20
    553a:	b5 07       	cpc	r27, r21
    553c:	40 f4       	brcc	.+16     	; 0x554e <__fpcmp_parts_f+0xa8>
    553e:	11 23       	and	r17, r17
    5540:	19 f0       	breq	.+6      	; 0x5548 <__fpcmp_parts_f+0xa2>
    5542:	61 e0       	ldi	r22, 0x01	; 1
    5544:	70 e0       	ldi	r23, 0x00	; 0
    5546:	05 c0       	rjmp	.+10     	; 0x5552 <__fpcmp_parts_f+0xac>
    5548:	6f ef       	ldi	r22, 0xFF	; 255
    554a:	7f ef       	ldi	r23, 0xFF	; 255
    554c:	02 c0       	rjmp	.+4      	; 0x5552 <__fpcmp_parts_f+0xac>
    554e:	60 e0       	ldi	r22, 0x00	; 0
    5550:	70 e0       	ldi	r23, 0x00	; 0
    5552:	cb 01       	movw	r24, r22
    5554:	1f 91       	pop	r17
    5556:	08 95       	ret

00005558 <__udivmodqi4>:
    5558:	99 1b       	sub	r25, r25
    555a:	79 e0       	ldi	r23, 0x09	; 9
    555c:	04 c0       	rjmp	.+8      	; 0x5566 <__udivmodqi4_ep>

0000555e <__udivmodqi4_loop>:
    555e:	99 1f       	adc	r25, r25
    5560:	96 17       	cp	r25, r22
    5562:	08 f0       	brcs	.+2      	; 0x5566 <__udivmodqi4_ep>
    5564:	96 1b       	sub	r25, r22

00005566 <__udivmodqi4_ep>:
    5566:	88 1f       	adc	r24, r24
    5568:	7a 95       	dec	r23
    556a:	c9 f7       	brne	.-14     	; 0x555e <__udivmodqi4_loop>
    556c:	80 95       	com	r24
    556e:	08 95       	ret

00005570 <__udivmodsi4>:
    5570:	a1 e2       	ldi	r26, 0x21	; 33
    5572:	1a 2e       	mov	r1, r26
    5574:	aa 1b       	sub	r26, r26
    5576:	bb 1b       	sub	r27, r27
    5578:	fd 01       	movw	r30, r26
    557a:	0d c0       	rjmp	.+26     	; 0x5596 <__udivmodsi4_ep>

0000557c <__udivmodsi4_loop>:
    557c:	aa 1f       	adc	r26, r26
    557e:	bb 1f       	adc	r27, r27
    5580:	ee 1f       	adc	r30, r30
    5582:	ff 1f       	adc	r31, r31
    5584:	a2 17       	cp	r26, r18
    5586:	b3 07       	cpc	r27, r19
    5588:	e4 07       	cpc	r30, r20
    558a:	f5 07       	cpc	r31, r21
    558c:	20 f0       	brcs	.+8      	; 0x5596 <__udivmodsi4_ep>
    558e:	a2 1b       	sub	r26, r18
    5590:	b3 0b       	sbc	r27, r19
    5592:	e4 0b       	sbc	r30, r20
    5594:	f5 0b       	sbc	r31, r21

00005596 <__udivmodsi4_ep>:
    5596:	66 1f       	adc	r22, r22
    5598:	77 1f       	adc	r23, r23
    559a:	88 1f       	adc	r24, r24
    559c:	99 1f       	adc	r25, r25
    559e:	1a 94       	dec	r1
    55a0:	69 f7       	brne	.-38     	; 0x557c <__udivmodsi4_loop>
    55a2:	60 95       	com	r22
    55a4:	70 95       	com	r23
    55a6:	80 95       	com	r24
    55a8:	90 95       	com	r25
    55aa:	9b 01       	movw	r18, r22
    55ac:	ac 01       	movw	r20, r24
    55ae:	bd 01       	movw	r22, r26
    55b0:	cf 01       	movw	r24, r30
    55b2:	08 95       	ret

000055b4 <__prologue_saves__>:
    55b4:	2f 92       	push	r2
    55b6:	3f 92       	push	r3
    55b8:	4f 92       	push	r4
    55ba:	5f 92       	push	r5
    55bc:	6f 92       	push	r6
    55be:	7f 92       	push	r7
    55c0:	8f 92       	push	r8
    55c2:	9f 92       	push	r9
    55c4:	af 92       	push	r10
    55c6:	bf 92       	push	r11
    55c8:	cf 92       	push	r12
    55ca:	df 92       	push	r13
    55cc:	ef 92       	push	r14
    55ce:	ff 92       	push	r15
    55d0:	0f 93       	push	r16
    55d2:	1f 93       	push	r17
    55d4:	cf 93       	push	r28
    55d6:	df 93       	push	r29
    55d8:	cd b7       	in	r28, 0x3d	; 61
    55da:	de b7       	in	r29, 0x3e	; 62
    55dc:	ca 1b       	sub	r28, r26
    55de:	db 0b       	sbc	r29, r27
    55e0:	0f b6       	in	r0, 0x3f	; 63
    55e2:	f8 94       	cli
    55e4:	de bf       	out	0x3e, r29	; 62
    55e6:	0f be       	out	0x3f, r0	; 63
    55e8:	cd bf       	out	0x3d, r28	; 61
    55ea:	09 94       	ijmp

000055ec <__epilogue_restores__>:
    55ec:	2a 88       	ldd	r2, Y+18	; 0x12
    55ee:	39 88       	ldd	r3, Y+17	; 0x11
    55f0:	48 88       	ldd	r4, Y+16	; 0x10
    55f2:	5f 84       	ldd	r5, Y+15	; 0x0f
    55f4:	6e 84       	ldd	r6, Y+14	; 0x0e
    55f6:	7d 84       	ldd	r7, Y+13	; 0x0d
    55f8:	8c 84       	ldd	r8, Y+12	; 0x0c
    55fa:	9b 84       	ldd	r9, Y+11	; 0x0b
    55fc:	aa 84       	ldd	r10, Y+10	; 0x0a
    55fe:	b9 84       	ldd	r11, Y+9	; 0x09
    5600:	c8 84       	ldd	r12, Y+8	; 0x08
    5602:	df 80       	ldd	r13, Y+7	; 0x07
    5604:	ee 80       	ldd	r14, Y+6	; 0x06
    5606:	fd 80       	ldd	r15, Y+5	; 0x05
    5608:	0c 81       	ldd	r16, Y+4	; 0x04
    560a:	1b 81       	ldd	r17, Y+3	; 0x03
    560c:	aa 81       	ldd	r26, Y+2	; 0x02
    560e:	b9 81       	ldd	r27, Y+1	; 0x01
    5610:	ce 0f       	add	r28, r30
    5612:	d1 1d       	adc	r29, r1
    5614:	0f b6       	in	r0, 0x3f	; 63
    5616:	f8 94       	cli
    5618:	de bf       	out	0x3e, r29	; 62
    561a:	0f be       	out	0x3f, r0	; 63
    561c:	cd bf       	out	0x3d, r28	; 61
    561e:	ed 01       	movw	r28, r26
    5620:	08 95       	ret

00005622 <_exit>:
    5622:	f8 94       	cli

00005624 <__stop_program>:
    5624:	ff cf       	rjmp	.-2      	; 0x5624 <__stop_program>
