
WiiController.elf:     file format elf32-avr

Sections:
Idx Name          Size      VMA       LMA       File off  Algn
  0 .data         00000020  00800100  000016d2  00001766  2**0
                  CONTENTS, ALLOC, LOAD, DATA
  1 .text         000016d2  00000000  00000000  00000094  2**1
                  CONTENTS, ALLOC, LOAD, READONLY, CODE
  2 .bss          00000094  00800120  00800120  00001786  2**0
                  ALLOC
  3 .debug_aranges 00000100  00000000  00000000  00001786  2**0
                  CONTENTS, READONLY, DEBUGGING
  4 .debug_pubnames 00000396  00000000  00000000  00001886  2**0
                  CONTENTS, READONLY, DEBUGGING
  5 .debug_info   00001d90  00000000  00000000  00001c1c  2**0
                  CONTENTS, READONLY, DEBUGGING
  6 .debug_abbrev 00000944  00000000  00000000  000039ac  2**0
                  CONTENTS, READONLY, DEBUGGING
  7 .debug_line   00001649  00000000  00000000  000042f0  2**0
                  CONTENTS, READONLY, DEBUGGING
  8 .debug_frame  00000330  00000000  00000000  0000593c  2**2
                  CONTENTS, READONLY, DEBUGGING
  9 .debug_str    000005e7  00000000  00000000  00005c6c  2**0
                  CONTENTS, READONLY, DEBUGGING
 10 .debug_loc    000007da  00000000  00000000  00006253  2**0
                  CONTENTS, READONLY, DEBUGGING

Disassembly of section .text:

00000000 <__vectors>:
       0:	19 c0       	rjmp	.+50     	; 0x34 <__ctors_end>
       2:	33 c0       	rjmp	.+102    	; 0x6a <__bad_interrupt>
       4:	32 c0       	rjmp	.+100    	; 0x6a <__bad_interrupt>
       6:	31 c0       	rjmp	.+98     	; 0x6a <__bad_interrupt>
       8:	30 c0       	rjmp	.+96     	; 0x6a <__bad_interrupt>
       a:	2f c0       	rjmp	.+94     	; 0x6a <__bad_interrupt>
       c:	2e c0       	rjmp	.+92     	; 0x6a <__bad_interrupt>
       e:	2d c0       	rjmp	.+90     	; 0x6a <__bad_interrupt>
      10:	2c c0       	rjmp	.+88     	; 0x6a <__bad_interrupt>
      12:	2b c0       	rjmp	.+86     	; 0x6a <__bad_interrupt>
      14:	2a c0       	rjmp	.+84     	; 0x6a <__bad_interrupt>
      16:	29 c0       	rjmp	.+82     	; 0x6a <__bad_interrupt>
      18:	28 c0       	rjmp	.+80     	; 0x6a <__bad_interrupt>
      1a:	27 c0       	rjmp	.+78     	; 0x6a <__bad_interrupt>
      1c:	26 c0       	rjmp	.+76     	; 0x6a <__bad_interrupt>
      1e:	25 c0       	rjmp	.+74     	; 0x6a <__bad_interrupt>
      20:	24 c0       	rjmp	.+72     	; 0x6a <__bad_interrupt>
      22:	23 c0       	rjmp	.+70     	; 0x6a <__bad_interrupt>
      24:	22 c0       	rjmp	.+68     	; 0x6a <__bad_interrupt>
      26:	a4 c5       	rjmp	.+2888   	; 0xb70 <__vector_19>
      28:	20 c0       	rjmp	.+64     	; 0x6a <__bad_interrupt>
      2a:	1f c0       	rjmp	.+62     	; 0x6a <__bad_interrupt>
      2c:	1e c0       	rjmp	.+60     	; 0x6a <__bad_interrupt>
      2e:	1d c0       	rjmp	.+58     	; 0x6a <__bad_interrupt>
      30:	1c c0       	rjmp	.+56     	; 0x6a <__bad_interrupt>
      32:	1b c0       	rjmp	.+54     	; 0x6a <__bad_interrupt>

00000034 <__ctors_end>:
      34:	11 24       	eor	r1, r1
      36:	1f be       	out	0x3f, r1	; 63
      38:	cf ef       	ldi	r28, 0xFF	; 255
      3a:	d4 e0       	ldi	r29, 0x04	; 4
      3c:	de bf       	out	0x3e, r29	; 62
      3e:	cd bf       	out	0x3d, r28	; 61

00000040 <__do_copy_data>:
      40:	11 e0       	ldi	r17, 0x01	; 1
      42:	a0 e0       	ldi	r26, 0x00	; 0
      44:	b1 e0       	ldi	r27, 0x01	; 1
      46:	e2 ed       	ldi	r30, 0xD2	; 210
      48:	f6 e1       	ldi	r31, 0x16	; 22
      4a:	02 c0       	rjmp	.+4      	; 0x50 <.do_copy_data_start>

0000004c <.do_copy_data_loop>:
      4c:	05 90       	lpm	r0, Z+
      4e:	0d 92       	st	X+, r0

00000050 <.do_copy_data_start>:
      50:	a0 32       	cpi	r26, 0x20	; 32
      52:	b1 07       	cpc	r27, r17
      54:	d9 f7       	brne	.-10     	; 0x4c <.do_copy_data_loop>

00000056 <__do_clear_bss>:
      56:	11 e0       	ldi	r17, 0x01	; 1
      58:	a0 e2       	ldi	r26, 0x20	; 32
      5a:	b1 e0       	ldi	r27, 0x01	; 1
      5c:	01 c0       	rjmp	.+2      	; 0x60 <.do_clear_bss_start>

0000005e <.do_clear_bss_loop>:
      5e:	1d 92       	st	X+, r1

00000060 <.do_clear_bss_start>:
      60:	a4 3b       	cpi	r26, 0xB4	; 180
      62:	b1 07       	cpc	r27, r17
      64:	e1 f7       	brne	.-8      	; 0x5e <.do_clear_bss_loop>
      66:	61 d0       	rcall	.+194    	; 0x12a <main>
      68:	32 cb       	rjmp	.-2460   	; 0xfffff6ce <__eeprom_end+0xff7ef6ce>

0000006a <__bad_interrupt>:
      6a:	ca cf       	rjmp	.-108    	; 0x0 <__vectors>

0000006c <classic>:
void MakeClassicRCData(union classic_data *rcdata,const union wii_classic *data, unsigned char *);
void wait(uint16_t);
void battery_check();

int classic(int mode,unsigned char *analog_data)
{
      6c:	8f 92       	push	r8
      6e:	9f 92       	push	r9
      70:	af 92       	push	r10
      72:	bf 92       	push	r11
      74:	cf 92       	push	r12
      76:	df 92       	push	r13
      78:	ef 92       	push	r14
      7a:	ff 92       	push	r15
      7c:	1f 93       	push	r17
      7e:	df 93       	push	r29
      80:	cf 93       	push	r28
      82:	cd b7       	in	r28, 0x3d	; 61
      84:	de b7       	in	r29, 0x3e	; 62
      86:	2e 97       	sbiw	r28, 0x0e	; 14
      88:	0f b6       	in	r0, 0x3f	; 63
      8a:	f8 94       	cli
      8c:	de bf       	out	0x3e, r29	; 62
      8e:	0f be       	out	0x3f, r0	; 63
      90:	cd bf       	out	0x3d, r28	; 61
      92:	5b 01       	movw	r10, r22
      94:	10 e0       	ldi	r17, 0x00	; 0
      96:	7e 01       	movw	r14, r28
      98:	08 94       	sec
      9a:	e1 1c       	adc	r14, r1
      9c:	f1 1c       	adc	r15, r1

	
 	while(1){
		for(count=0;count<5;count++) {
				set_controller();										//init controller
				get_value(data.buf);									//get data for controller
      9e:	99 e0       	ldi	r25, 0x09	; 9
      a0:	c9 2e       	mov	r12, r25
      a2:	d1 2c       	mov	r13, r1
      a4:	cc 0e       	add	r12, r28
      a6:	dd 1e       	adc	r13, r29
				get_classic_analog(&data,analog_data);					//get data for analog stick
				MakeClassicRCData(&rcdata,&data,analog_data);

				for(i=0;i<CLASSIC_DATA_LENGTH;i++) {
						if(prev.buf[i] != rcdata.buf[i]){
      a8:	85 e0       	ldi	r24, 0x05	; 5
      aa:	88 2e       	mov	r8, r24
      ac:	91 2c       	mov	r9, r1
      ae:	8c 0e       	add	r8, r28
      b0:	9d 1e       	adc	r9, r29
      b2:	2c c0       	rjmp	.+88     	; 0x10c <classic+0xa0>
	uint8_t i,count;

	
 	while(1){
		for(count=0;count<5;count++) {
				set_controller();										//init controller
      b4:	97 d1       	rcall	.+814    	; 0x3e4 <set_controller>
				get_value(data.buf);									//get data for controller
      b6:	c6 01       	movw	r24, r12
      b8:	d5 d1       	rcall	.+938    	; 0x464 <get_value>
				get_classic_analog(&data,analog_data);					//get data for analog stick
      ba:	c6 01       	movw	r24, r12
      bc:	b5 01       	movw	r22, r10
      be:	c3 d9       	rcall	.-3194   	; 0xfffff446 <__eeprom_end+0xff7ef446>
				MakeClassicRCData(&rcdata,&data,analog_data);
      c0:	c7 01       	movw	r24, r14
      c2:	b6 01       	movw	r22, r12
      c4:	a5 01       	movw	r20, r10
      c6:	db d8       	rcall	.-3658   	; 0xfffff27e <__eeprom_end+0xff7ef27e>
      c8:	20 e0       	ldi	r18, 0x00	; 0
      ca:	30 e0       	ldi	r19, 0x00	; 0

				for(i=0;i<CLASSIC_DATA_LENGTH;i++) {
						if(prev.buf[i] != rcdata.buf[i]){
      cc:	f4 01       	movw	r30, r8
      ce:	e2 0f       	add	r30, r18
      d0:	f3 1f       	adc	r31, r19
      d2:	d7 01       	movw	r26, r14
      d4:	a2 0f       	add	r26, r18
      d6:	b3 1f       	adc	r27, r19
      d8:	90 81       	ld	r25, Z
      da:	8c 91       	ld	r24, X
      dc:	98 17       	cp	r25, r24
      de:	69 f0       	breq	.+26     	; 0xfa <classic+0x8e>
								MU2_SendData(rcdata.buf,CLASSIC_DATA_LENGTH);
      e0:	c7 01       	movw	r24, r14
      e2:	64 e0       	ldi	r22, 0x04	; 4
      e4:	5c d7       	rcall	.+3768   	; 0xf9e <MU2_SendData>
								count = 0;
								for(i=0;i<CLASSIC_DATA_LENGTH;i++) {
										prev.buf[i] = rcdata.buf[i];
      e6:	89 81       	ldd	r24, Y+1	; 0x01
      e8:	8d 83       	std	Y+5, r24	; 0x05
      ea:	8a 81       	ldd	r24, Y+2	; 0x02
      ec:	8e 83       	std	Y+6, r24	; 0x06
      ee:	8b 81       	ldd	r24, Y+3	; 0x03
      f0:	8f 83       	std	Y+7, r24	; 0x07
      f2:	8c 81       	ldd	r24, Y+4	; 0x04
      f4:	88 87       	std	Y+8, r24	; 0x08
      f6:	10 e0       	ldi	r17, 0x00	; 0
      f8:	05 c0       	rjmp	.+10     	; 0x104 <classic+0x98>
      fa:	2f 5f       	subi	r18, 0xFF	; 255
      fc:	3f 4f       	sbci	r19, 0xFF	; 255
				set_controller();										//init controller
				get_value(data.buf);									//get data for controller
				get_classic_analog(&data,analog_data);					//get data for analog stick
				MakeClassicRCData(&rcdata,&data,analog_data);

				for(i=0;i<CLASSIC_DATA_LENGTH;i++) {
      fe:	24 30       	cpi	r18, 0x04	; 4
     100:	31 05       	cpc	r19, r1
     102:	21 f7       	brne	.-56     	; 0xcc <classic+0x60>
										prev.buf[i] = rcdata.buf[i];
									}
								break;
							}
					}
				wait(45);
     104:	8d e2       	ldi	r24, 0x2D	; 45
     106:	90 e0       	ldi	r25, 0x00	; 0
     108:	2b d1       	rcall	.+598    	; 0x360 <wait>
	union classic_data rcdata,prev;									//send data for MU2
	uint8_t i,count;

	
 	while(1){
		for(count=0;count<5;count++) {
     10a:	1f 5f       	subi	r17, 0xFF	; 255
     10c:	15 30       	cpi	r17, 0x05	; 5
     10e:	90 f2       	brcs	.-92     	; 0xb4 <classic+0x48>
								break;
							}
					}
				wait(45);
			}
		MU2_SendData(rcdata.buf,CLASSIC_DATA_LENGTH);
     110:	c7 01       	movw	r24, r14
     112:	64 e0       	ldi	r22, 0x04	; 4
     114:	44 d7       	rcall	.+3720   	; 0xf9e <MU2_SendData>
		for(i=0;i<CLASSIC_DATA_LENGTH;i++) {
				prev.buf[i] = rcdata.buf[i];
     116:	89 81       	ldd	r24, Y+1	; 0x01
     118:	8d 83       	std	Y+5, r24	; 0x05
     11a:	8a 81       	ldd	r24, Y+2	; 0x02
     11c:	8e 83       	std	Y+6, r24	; 0x06
     11e:	8b 81       	ldd	r24, Y+3	; 0x03
     120:	8f 83       	std	Y+7, r24	; 0x07
     122:	8c 81       	ldd	r24, Y+4	; 0x04
     124:	88 87       	std	Y+8, r24	; 0x08
     126:	10 e0       	ldi	r17, 0x00	; 0
     128:	f1 cf       	rjmp	.-30     	; 0x10c <classic+0xa0>

0000012a <main>:
int classic(int,unsigned char *);
int mode();
int controller_select();

int main(void)
{
     12a:	8f 92       	push	r8
     12c:	9f 92       	push	r9
     12e:	af 92       	push	r10
     130:	bf 92       	push	r11
     132:	cf 92       	push	r12
     134:	df 92       	push	r13
     136:	ef 92       	push	r14
     138:	ff 92       	push	r15
     13a:	0f 93       	push	r16
     13c:	1f 93       	push	r17
     13e:	df 93       	push	r29
     140:	cf 93       	push	r28
     142:	cd b7       	in	r28, 0x3d	; 61
     144:	de b7       	in	r29, 0x3e	; 62
     146:	65 97       	sbiw	r28, 0x15	; 21
     148:	0f b6       	in	r0, 0x3f	; 63
     14a:	f8 94       	cli
     14c:	de bf       	out	0x3e, r29	; 62
     14e:	0f be       	out	0x3f, r0	; 63
     150:	cd bf       	out	0x3d, r28	; 61
	if(controller==0){										//Classic Mode
		PORTC &=~_BV(PC2);									//LED ON
		classic(mode(),analog_data);
	}
	return 0;
}
     152:	8d b6       	in	r8, 0x3d	; 61
     154:	9e b6       	in	r9, 0x3e	; 62

int main(void)
{
	int len,controller;

	setup();												//Port Setting
     156:	2b d1       	rcall	.+598    	; 0x3ae <setup>
	set_adc();												//ADconvert Setting
     158:	3b d1       	rcall	.+630    	; 0x3d0 <set_adc>
	controller=controller_select();							//controller select(nunchuk or classic)										
     15a:	0e d3       	rcall	.+1564   	; 0x778 <controller_select>
     15c:	5c 01       	movw	r10, r24
	battery_states();
     15e:	e8 d3       	rcall	.+2000   	; 0x930 <battery_states>

	if(controller==1)	len=NUNCHUK_DATA_LENGTH;			//data length  
	if(controller==0)	len=CLASSIC_DATA_LENGTH;			
     160:	a1 14       	cp	r10, r1
     162:	b1 04       	cpc	r11, r1
     164:	19 f4       	brne	.+6      	; 0x16c <main+0x42>
     166:	84 e0       	ldi	r24, 0x04	; 4
     168:	90 e0       	ldi	r25, 0x00	; 0
     16a:	02 c0       	rjmp	.+4      	; 0x170 <main+0x46>
     16c:	83 e0       	ldi	r24, 0x03	; 3
     16e:	90 e0       	ldi	r25, 0x00	; 0

	unsigned char TxDataBuf[len*5];							//uart send buffer
     170:	8c 01       	movw	r16, r24
     172:	00 0f       	add	r16, r16
     174:	11 1f       	adc	r17, r17
     176:	00 0f       	add	r16, r16
     178:	11 1f       	adc	r17, r17
     17a:	08 0f       	add	r16, r24
     17c:	19 1f       	adc	r17, r25
     17e:	8d b7       	in	r24, 0x3d	; 61
     180:	9e b7       	in	r25, 0x3e	; 62
     182:	80 1b       	sub	r24, r16
     184:	91 0b       	sbc	r25, r17
     186:	0f b6       	in	r0, 0x3f	; 63
     188:	f8 94       	cli
     18a:	9e bf       	out	0x3e, r25	; 62
     18c:	0f be       	out	0x3f, r0	; 63
     18e:	8d bf       	out	0x3d, r24	; 61
     190:	ed b6       	in	r14, 0x3d	; 61
     192:	fe b6       	in	r15, 0x3e	; 62
     194:	08 94       	sec
     196:	e1 1c       	adc	r14, r1
     198:	f1 1c       	adc	r15, r1
	unsigned char DI[4] = {0x01,0x02,0x04,0x08}; //ID
	unsigned char EI[4] = {0x10,0x20,0x40,0x80}; //ID

	uint8_t _group,_channel;

	uart_init(UART_RE|UART_TE,19200);						//受信許可|送信許可|送信データ空割り込み許可，ボーレート
     19a:	88 e1       	ldi	r24, 0x18	; 24
     19c:	40 e0       	ldi	r20, 0x00	; 0
     19e:	5b e4       	ldi	r21, 0x4B	; 75
     1a0:	60 e0       	ldi	r22, 0x00	; 0
     1a2:	70 e0       	ldi	r23, 0x00	; 0
     1a4:	5b d4       	rcall	.+2230   	; 0xa5c <uart_init>
	uart_setbuffer(TxDataBuf,len*5);						//送信用バッファの設定
     1a6:	c7 01       	movw	r24, r14
     1a8:	b8 01       	movw	r22, r16
     1aa:	96 d4       	rcall	.+2348   	; 0xad8 <uart_setbuffer>
  
    MU2_SetRxHandler(uart_getchar);							//uartの1byte受信関数をセット
     1ac:	80 e8       	ldi	r24, 0x80	; 128
     1ae:	95 e0       	ldi	r25, 0x05	; 5
     1b0:	3d d6       	rcall	.+3194   	; 0xe2c <MU2_SetRxHandler>
    MU2_SetTxHandler(uart_putchar);							//uartの1byte送信予約関数をセット
     1b2:	80 e9       	ldi	r24, 0x90	; 144
     1b4:	95 e0       	ldi	r25, 0x05	; 5
     1b6:	35 d6       	rcall	.+3178   	; 0xe22 <MU2_SetTxHandler>

//	MU2_SetGroupID(Group[SWITCH>>2]);						//Set GroupID
//	MU2_SetChannel(Channel[SWITCH>>2][SWITCH & 0x03]);		//Set Channel

				if(SWITCH&0x01){
     1b8:	18 99       	sbic	0x03, 0	; 3
     1ba:	02 c0       	rjmp	.+4      	; 0x1c0 <main+0x96>
     1bc:	00 e0       	ldi	r16, 0x00	; 0
     1be:	09 c0       	rjmp	.+18     	; 0x1d2 <main+0xa8>
					_group=0;
					_channel=0;
					}
				else if(SWITCH&0x02){
     1c0:	19 99       	sbic	0x03, 1	; 3
     1c2:	02 c0       	rjmp	.+4      	; 0x1c8 <main+0x9e>
     1c4:	01 e0       	ldi	r16, 0x01	; 1
     1c6:	05 c0       	rjmp	.+10     	; 0x1d2 <main+0xa8>
					_group=1;
					_channel=1;
					}
				else if(SWITCH&0x04){
     1c8:	1a 9b       	sbis	0x03, 2	; 3
     1ca:	02 c0       	rjmp	.+4      	; 0x1d0 <main+0xa6>
     1cc:	03 e0       	ldi	r16, 0x03	; 3
     1ce:	01 c0       	rjmp	.+2      	; 0x1d2 <main+0xa8>
     1d0:	02 e0       	ldi	r16, 0x02	; 2
					}
				else{
					_group=3;
					_channel=3;
					}	
	MU2_SetGroupID(Group[_group]);
     1d2:	10 e0       	ldi	r17, 0x00	; 0
/*	unsigned char Group[4] 		 = {0x21,0x9A,0x44,0x80};	//GroupID List
	unsigned char Channel[4][4]  ={{0x07,0x08,0x09,0x0A},	//Channel List
							 	   {0x0C,0x0D,0x0E,0x0F},
								   {0x25,0x26,0x27,0x28},
								   {0x2A,0x2B,0x2C,0x2D}};*/
	unsigned char Group[4] 	= {0x01,0x02,0x03,0x04};	//GroupID List
     1d4:	cc 24       	eor	r12, r12
     1d6:	c3 94       	inc	r12
     1d8:	c9 82       	std	Y+1, r12	; 0x01
     1da:	22 e0       	ldi	r18, 0x02	; 2
     1dc:	d2 2e       	mov	r13, r18
     1de:	da 82       	std	Y+2, r13	; 0x02
     1e0:	83 e0       	ldi	r24, 0x03	; 3
     1e2:	8b 83       	std	Y+3, r24	; 0x03
     1e4:	94 e0       	ldi	r25, 0x04	; 4
     1e6:	e9 2e       	mov	r14, r25
     1e8:	ec 82       	std	Y+4, r14	; 0x04
					}
				else{
					_group=3;
					_channel=3;
					}	
	MU2_SetGroupID(Group[_group]);
     1ea:	fe 01       	movw	r30, r28
     1ec:	e0 0f       	add	r30, r16
     1ee:	f1 1f       	adc	r31, r17
     1f0:	81 81       	ldd	r24, Z+1	; 0x01
     1f2:	9e d7       	rcall	.+3900   	; 0x1130 <MU2_SetGroupID>
	unsigned char Channel[4][4]  ={{0x07,0x08,0x09,0x0A},	//Channel List
							 	   {0x0C,0x0D,0x0E,0x0F},
								   {0x25,0x26,0x27,0x28},
								   {0x2A,0x2B,0x2C,0x2D}};*/
	unsigned char Group[4] 	= {0x01,0x02,0x03,0x04};	//GroupID List
	unsigned char Channel[4] ={0x08,0x08,0x2E,0x2E};//Channel List
     1f4:	88 e0       	ldi	r24, 0x08	; 8
     1f6:	f8 2e       	mov	r15, r24
     1f8:	fd 82       	std	Y+5, r15	; 0x05
     1fa:	fe 82       	std	Y+6, r15	; 0x06
     1fc:	8e e2       	ldi	r24, 0x2E	; 46
     1fe:	8f 83       	std	Y+7, r24	; 0x07
     200:	88 87       	std	Y+8, r24	; 0x08
				else{
					_group=3;
					_channel=3;
					}	
	MU2_SetGroupID(Group[_group]);
	MU2_SetChannel(Channel[_channel]);
     202:	fe 01       	movw	r30, r28
     204:	e0 0f       	add	r30, r16
     206:	f1 1f       	adc	r31, r17
     208:	85 81       	ldd	r24, Z+5	; 0x05
     20a:	6d d7       	rcall	.+3802   	; 0x10e6 <MU2_SetChannel>
								   {0x25,0x26,0x27,0x28},
								   {0x2A,0x2B,0x2C,0x2D}};*/
	unsigned char Group[4] 	= {0x01,0x02,0x03,0x04};	//GroupID List
	unsigned char Channel[4] ={0x08,0x08,0x2E,0x2E};//Channel List
	unsigned char DI[4] = {0x01,0x02,0x04,0x08}; //ID
	unsigned char EI[4] = {0x10,0x20,0x40,0x80}; //ID
     20c:	80 e1       	ldi	r24, 0x10	; 16
     20e:	8d 87       	std	Y+13, r24	; 0x0d
     210:	80 e2       	ldi	r24, 0x20	; 32
     212:	8e 87       	std	Y+14, r24	; 0x0e
     214:	80 e4       	ldi	r24, 0x40	; 64
     216:	8f 87       	std	Y+15, r24	; 0x0f
     218:	80 e8       	ldi	r24, 0x80	; 128
     21a:	88 8b       	std	Y+16, r24	; 0x10
					_group=3;
					_channel=3;
					}	
	MU2_SetGroupID(Group[_group]);
	MU2_SetChannel(Channel[_channel]);
	MU2_SetEquipmentID(EI[_group]);
     21c:	fe 01       	movw	r30, r28
     21e:	e0 0f       	add	r30, r16
     220:	f1 1f       	adc	r31, r17
     222:	85 85       	ldd	r24, Z+13	; 0x0d
     224:	a1 d7       	rcall	.+3906   	; 0x1168 <MU2_SetEquipmentID>
							 	   {0x0C,0x0D,0x0E,0x0F},
								   {0x25,0x26,0x27,0x28},
								   {0x2A,0x2B,0x2C,0x2D}};*/
	unsigned char Group[4] 	= {0x01,0x02,0x03,0x04};	//GroupID List
	unsigned char Channel[4] ={0x08,0x08,0x2E,0x2E};//Channel List
	unsigned char DI[4] = {0x01,0x02,0x04,0x08}; //ID
     226:	c9 86       	std	Y+9, r12	; 0x09
     228:	da 86       	std	Y+10, r13	; 0x0a
     22a:	eb 86       	std	Y+11, r14	; 0x0b
     22c:	fc 86       	std	Y+12, r15	; 0x0c
					_channel=3;
					}	
	MU2_SetGroupID(Group[_group]);
	MU2_SetChannel(Channel[_channel]);
	MU2_SetEquipmentID(EI[_group]);
	MU2_SetDestinationID(DI[_group]);
     22e:	0c 0f       	add	r16, r28
     230:	1d 1f       	adc	r17, r29
     232:	f8 01       	movw	r30, r16
     234:	81 85       	ldd	r24, Z+9	; 0x09
     236:	b4 d7       	rcall	.+3944   	; 0x11a0 <MU2_SetDestinationID>

	wait(500);
     238:	84 ef       	ldi	r24, 0xF4	; 244
     23a:	91 e0       	ldi	r25, 0x01	; 1
     23c:	91 d0       	rcall	.+290    	; 0x360 <wait>
	wait(50);
     23e:	82 e3       	ldi	r24, 0x32	; 50
     240:	90 e0       	ldi	r25, 0x00	; 0
     242:	8e d0       	rcall	.+284    	; 0x360 <wait>
	uart_putchar('@');	
     244:	80 e4       	ldi	r24, 0x40	; 64
     246:	6c d4       	rcall	.+2264   	; 0xb20 <uart_putchar>
	uart_putchar('B');	
     248:	82 e4       	ldi	r24, 0x42	; 66
     24a:	6a d4       	rcall	.+2260   	; 0xb20 <uart_putchar>
	uart_putchar('R');	
     24c:	82 e5       	ldi	r24, 0x52	; 82
     24e:	68 d4       	rcall	.+2256   	; 0xb20 <uart_putchar>
	uart_putchar('4');	
     250:	84 e3       	ldi	r24, 0x34	; 52
     252:	66 d4       	rcall	.+2252   	; 0xb20 <uart_putchar>
	uart_putchar('8');	
     254:	88 e3       	ldi	r24, 0x38	; 56
     256:	64 d4       	rcall	.+2248   	; 0xb20 <uart_putchar>
	uart_putchar(0x0d);	
     258:	8d e0       	ldi	r24, 0x0D	; 13
     25a:	62 d4       	rcall	.+2244   	; 0xb20 <uart_putchar>
	uart_putchar(0x0a);
     25c:	8a e0       	ldi	r24, 0x0A	; 10
     25e:	60 d4       	rcall	.+2240   	; 0xb20 <uart_putchar>
	wait(500);
     260:	84 ef       	ldi	r24, 0xF4	; 244
     262:	91 e0       	ldi	r25, 0x01	; 1
     264:	7d d0       	rcall	.+250    	; 0x360 <wait>
	uart_init( UART_RE|UART_TE,4800);						//受信許可|送信許可|送信データ空割り込み許可，ボーレート
     266:	88 e1       	ldi	r24, 0x18	; 24
     268:	40 ec       	ldi	r20, 0xC0	; 192
     26a:	52 e1       	ldi	r21, 0x12	; 18
     26c:	60 e0       	ldi	r22, 0x00	; 0
     26e:	70 e0       	ldi	r23, 0x00	; 0
     270:	f5 d3       	rcall	.+2026   	; 0xa5c <uart_init>
	wait(500);
     272:	84 ef       	ldi	r24, 0xF4	; 244
     274:	91 e0       	ldi	r25, 0x01	; 1
     276:	74 d0       	rcall	.+232    	; 0x360 <wait>
	wdt_reset();
     278:	a8 95       	wdr
	wdt_disable();
     27a:	88 e1       	ldi	r24, 0x18	; 24
     27c:	0f b6       	in	r0, 0x3f	; 63
     27e:	f8 94       	cli
     280:	80 93 60 00 	sts	0x0060, r24
     284:	10 92 60 00 	sts	0x0060, r1
     288:	0f be       	out	0x3f, r0	; 63

	if(controller==1){										//Nunchuk Mode
     28a:	f1 e0       	ldi	r31, 0x01	; 1
     28c:	af 16       	cp	r10, r31
     28e:	b1 04       	cpc	r11, r1
     290:	39 f4       	brne	.+14     	; 0x2a0 <main+0x176>
		PORTC &=~_BV(PC1);									//LED ON
     292:	41 98       	cbi	0x08, 1	; 8
		nunchuk(mode(),analog_data);						
     294:	66 d1       	rcall	.+716    	; 0x562 <mode>
     296:	be 01       	movw	r22, r28
     298:	6f 5e       	subi	r22, 0xEF	; 239
     29a:	7f 4f       	sbci	r23, 0xFF	; 255
     29c:	23 d0       	rcall	.+70     	; 0x2e4 <nunchuk>
     29e:	08 c0       	rjmp	.+16     	; 0x2b0 <main+0x186>
	}
	if(controller==0){										//Classic Mode
     2a0:	ab 28       	or	r10, r11
     2a2:	31 f4       	brne	.+12     	; 0x2b0 <main+0x186>
		PORTC &=~_BV(PC2);									//LED ON
     2a4:	42 98       	cbi	0x08, 2	; 8
		classic(mode(),analog_data);
     2a6:	5d d1       	rcall	.+698    	; 0x562 <mode>
     2a8:	be 01       	movw	r22, r28
     2aa:	6f 5e       	subi	r22, 0xEF	; 239
     2ac:	7f 4f       	sbci	r23, 0xFF	; 255
     2ae:	de de       	rcall	.-580    	; 0x6c <classic>
	}
	return 0;
}
     2b0:	80 e0       	ldi	r24, 0x00	; 0
     2b2:	90 e0       	ldi	r25, 0x00	; 0
     2b4:	0f b6       	in	r0, 0x3f	; 63
     2b6:	f8 94       	cli
     2b8:	9e be       	out	0x3e, r9	; 62
     2ba:	0f be       	out	0x3f, r0	; 63
     2bc:	8d be       	out	0x3d, r8	; 61
     2be:	65 96       	adiw	r28, 0x15	; 21
     2c0:	0f b6       	in	r0, 0x3f	; 63
     2c2:	f8 94       	cli
     2c4:	de bf       	out	0x3e, r29	; 62
     2c6:	0f be       	out	0x3f, r0	; 63
     2c8:	cd bf       	out	0x3d, r28	; 61
     2ca:	cf 91       	pop	r28
     2cc:	df 91       	pop	r29
     2ce:	1f 91       	pop	r17
     2d0:	0f 91       	pop	r16
     2d2:	ff 90       	pop	r15
     2d4:	ef 90       	pop	r14
     2d6:	df 90       	pop	r13
     2d8:	cf 90       	pop	r12
     2da:	bf 90       	pop	r11
     2dc:	af 90       	pop	r10
     2de:	9f 90       	pop	r9
     2e0:	8f 90       	pop	r8
     2e2:	08 95       	ret

000002e4 <nunchuk>:
void MakeNunchukRCData(union nunchuk_data *rcdata,const union wii_nunchuk *data, unsigned char *);
void wait(uint16_t);
void battery_check();

int nunchuk(int mode,unsigned char *analog_data)
{
     2e4:	af 92       	push	r10
     2e6:	bf 92       	push	r11
     2e8:	cf 92       	push	r12
     2ea:	df 92       	push	r13
     2ec:	ef 92       	push	r14
     2ee:	ff 92       	push	r15
     2f0:	0f 93       	push	r16
     2f2:	1f 93       	push	r17
     2f4:	df 93       	push	r29
     2f6:	cf 93       	push	r28
     2f8:	cd b7       	in	r28, 0x3d	; 61
     2fa:	de b7       	in	r29, 0x3e	; 62
     2fc:	29 97       	sbiw	r28, 0x09	; 9
     2fe:	0f b6       	in	r0, 0x3f	; 63
     300:	f8 94       	cli
     302:	de bf       	out	0x3e, r29	; 62
     304:	0f be       	out	0x3f, r0	; 63
     306:	cd bf       	out	0x3d, r28	; 61
     308:	5c 01       	movw	r10, r24
     30a:	6b 01       	movw	r12, r22
	union wii_nunchuk data;										
	union nunchuk_data rcdata;										
	while(1){
		wdt_reset();
		set_controller();									//コントローラー初期化				
		get_value( data.buf );								//コントローラーから値取得(I2C)
     30c:	84 e0       	ldi	r24, 0x04	; 4
     30e:	e8 2e       	mov	r14, r24
     310:	f1 2c       	mov	r15, r1
     312:	ec 0e       	add	r14, r28
     314:	fd 1e       	adc	r15, r29
		get_nunchuk_analog(&data,analog_data);				//アナログスティックと加速度センサの値を取得
		MakeNunchukRCData(&rcdata,&data,analog_data);		//rcdataのバッファに値を入れる
     316:	8e 01       	movw	r16, r28
     318:	0f 5f       	subi	r16, 0xFF	; 255
     31a:	1f 4f       	sbci	r17, 0xFF	; 255
int nunchuk(int mode,unsigned char *analog_data)
{
	union wii_nunchuk data;										
	union nunchuk_data rcdata;										
	while(1){
		wdt_reset();
     31c:	a8 95       	wdr
		set_controller();									//コントローラー初期化				
     31e:	62 d0       	rcall	.+196    	; 0x3e4 <set_controller>
		get_value( data.buf );								//コントローラーから値取得(I2C)
     320:	c7 01       	movw	r24, r14
     322:	a0 d0       	rcall	.+320    	; 0x464 <get_value>
		get_nunchuk_analog(&data,analog_data);				//アナログスティックと加速度センサの値を取得
     324:	c7 01       	movw	r24, r14
     326:	b6 01       	movw	r22, r12
     328:	ab d4       	rcall	.+2390   	; 0xc80 <get_nunchuk_analog>
		MakeNunchukRCData(&rcdata,&data,analog_data);		//rcdataのバッファに値を入れる
     32a:	c8 01       	movw	r24, r16
     32c:	b7 01       	movw	r22, r14
     32e:	a6 01       	movw	r20, r12
     330:	5f d4       	rcall	.+2238   	; 0xbf0 <MakeNunchukRCData>
		if(mode==0)	MU2_SendData(rcdata.buf,NUNCHUK_DATA_LENGTH);//MU2でデータ送信
     332:	a1 14       	cp	r10, r1
     334:	b1 04       	cpc	r11, r1
     336:	21 f4       	brne	.+8      	; 0x340 <nunchuk+0x5c>
     338:	c8 01       	movw	r24, r16
     33a:	63 e0       	ldi	r22, 0x03	; 3
     33c:	30 d6       	rcall	.+3168   	; 0xf9e <MU2_SendData>
     33e:	07 c0       	rjmp	.+14     	; 0x34e <nunchuk+0x6a>
		if(mode==1)	MU2_SendDataBus(rcdata.buf,NUNCHUK_DATA_LENGTH);//Send Data for Serial
     340:	81 e0       	ldi	r24, 0x01	; 1
     342:	a8 16       	cp	r10, r24
     344:	b1 04       	cpc	r11, r1
     346:	19 f4       	brne	.+6      	; 0x34e <nunchuk+0x6a>
     348:	c8 01       	movw	r24, r16
     34a:	63 e0       	ldi	r22, 0x03	; 3
     34c:	45 d7       	rcall	.+3722   	; 0x11d8 <MU2_SendDataBus>
		wait(45);
     34e:	8d e2       	ldi	r24, 0x2D	; 45
     350:	90 e0       	ldi	r25, 0x00	; 0
     352:	06 d0       	rcall	.+12     	; 0x360 <wait>
		if(rcdata.detail.Button.C&&rcdata.detail.Button.Z) battery_check();
     354:	89 81       	ldd	r24, Y+1	; 0x01
     356:	80 7c       	andi	r24, 0xC0	; 192
     358:	80 3c       	cpi	r24, 0xC0	; 192
     35a:	01 f7       	brne	.-64     	; 0x31c <nunchuk+0x38>
     35c:	a0 d2       	rcall	.+1344   	; 0x89e <battery_check>
     35e:	de cf       	rjmp	.-68     	; 0x31c <nunchuk+0x38>

00000360 <wait>:

#define I2C_START 	(TWCR = _BV(TWINT) | _BV(TWSTA) | _BV(TWEN))
#define I2C_END	  	(TWCR = _BV(TWINT) | _BV(TWSTO) | _BV(TWEN))

void wait(uint16_t w)							//about 1ms scale 
{
     360:	df 93       	push	r29
     362:	cf 93       	push	r28
     364:	00 d0       	rcall	.+0      	; 0x366 <wait+0x6>
     366:	cd b7       	in	r28, 0x3d	; 61
     368:	de b7       	in	r29, 0x3e	; 62
     36a:	9c 01       	movw	r18, r24
	while(w--){
		volatile uint16_t i=160;
     36c:	40 ea       	ldi	r20, 0xA0	; 160
     36e:	50 e0       	ldi	r21, 0x00	; 0
     370:	0b c0       	rjmp	.+22     	; 0x388 <wait+0x28>
     372:	5a 83       	std	Y+2, r21	; 0x02
     374:	49 83       	std	Y+1, r20	; 0x01
		while(i--);
     376:	89 81       	ldd	r24, Y+1	; 0x01
     378:	9a 81       	ldd	r25, Y+2	; 0x02
     37a:	01 97       	sbiw	r24, 0x01	; 1
     37c:	9a 83       	std	Y+2, r25	; 0x02
     37e:	89 83       	std	Y+1, r24	; 0x01
     380:	01 96       	adiw	r24, 0x01	; 1
     382:	c9 f7       	brne	.-14     	; 0x376 <wait+0x16>
     384:	21 50       	subi	r18, 0x01	; 1
     386:	30 40       	sbci	r19, 0x00	; 0
#define I2C_START 	(TWCR = _BV(TWINT) | _BV(TWSTA) | _BV(TWEN))
#define I2C_END	  	(TWCR = _BV(TWINT) | _BV(TWSTO) | _BV(TWEN))

void wait(uint16_t w)							//about 1ms scale 
{
	while(w--){
     388:	21 15       	cp	r18, r1
     38a:	31 05       	cpc	r19, r1
     38c:	91 f7       	brne	.-28     	; 0x372 <wait+0x12>
		volatile uint16_t i=160;
		while(i--);
	}
}
     38e:	0f 90       	pop	r0
     390:	0f 90       	pop	r0
     392:	cf 91       	pop	r28
     394:	df 91       	pop	r29
     396:	08 95       	ret

00000398 <error>:

void error()									//Processing Some Errors
{
	while(1){									//LED flashing
		PORTC |= _BV(PC1);						
     398:	41 9a       	sbi	0x08, 1	; 8
		PORTC |= _BV(PC2);
     39a:	42 9a       	sbi	0x08, 2	; 8
		wait(750);
     39c:	8e ee       	ldi	r24, 0xEE	; 238
     39e:	92 e0       	ldi	r25, 0x02	; 2
     3a0:	df df       	rcall	.-66     	; 0x360 <wait>
		PORTC &=~_BV(PC1);
     3a2:	41 98       	cbi	0x08, 1	; 8
		PORTC &=~_BV(PC2); 
     3a4:	42 98       	cbi	0x08, 2	; 8
		wait(750);
     3a6:	8e ee       	ldi	r24, 0xEE	; 238
     3a8:	92 e0       	ldi	r25, 0x02	; 2
     3aa:	da df       	rcall	.-76     	; 0x360 <wait>
     3ac:	f5 cf       	rjmp	.-22     	; 0x398 <error>

000003ae <setup>:
	}
}

void setup()									//Init MicroComputer
{
	DDRB  = 0xC0;								//Set PortB(Input-5,4,3,2,1,0 Output-7.6)
     3ae:	80 ec       	ldi	r24, 0xC0	; 192
     3b0:	84 b9       	out	0x04, r24	; 4
	PORTB = 0xFF;								//Set PortB(1,1,1,1,1,1,1,1)　　　
     3b2:	9f ef       	ldi	r25, 0xFF	; 255
     3b4:	95 b9       	out	0x05, r25	; 5
	DDRC  = 0xFE;								//Set PortC(Input-0 Output-7.6.5.4.3.2.1)
     3b6:	8e ef       	ldi	r24, 0xFE	; 254
     3b8:	87 b9       	out	0x07, r24	; 7
	PORTC = 0xFE;								//Set PortC(1,1,1,1,1,1,1,0)
     3ba:	88 b9       	out	0x08, r24	; 8
	DDRD  = 0xFC;								//Set PortD(Input-3,2 Output-7,6,5,4,1,0)							
     3bc:	8c ef       	ldi	r24, 0xFC	; 252
     3be:	8a b9       	out	0x0a, r24	; 10
	PORTD = 0xFF;								//Set PortD(1,1,1,1,1,1,1,1)
     3c0:	9b b9       	out	0x0b, r25	; 11
	TWBR  = 3;									//Set  I2C    about 363kHz
     3c2:	83 e0       	ldi	r24, 0x03	; 3
     3c4:	80 93 b8 00 	sts	0x00B8, r24
	TWSR  = 0x00;								//Init TWSR
     3c8:	10 92 b9 00 	sts	0x00B9, r1
	PORTC &=~_BV(PC3);							//SETUP SUCCESS!!
     3cc:	43 98       	cbi	0x08, 3	; 8
}
     3ce:	08 95       	ret

000003d0 <set_adc>:

void set_adc()
{
	ADMUX = 0x60;								//Basic:AVcc,ADConvertPort:PC3
     3d0:	80 e6       	ldi	r24, 0x60	; 96
     3d2:	80 93 7c 00 	sts	0x007C, r24
	ADCSRA= 0x86;								//ADConvert Permission,Clock:125kHz
     3d6:	86 e8       	ldi	r24, 0x86	; 134
     3d8:	80 93 7a 00 	sts	0x007A, r24
	DIDR0 = 0x0f;								//Input digital prohibition for PC3
     3dc:	8f e0       	ldi	r24, 0x0F	; 15
     3de:	80 93 7e 00 	sts	0x007E, r24
}
     3e2:	08 95       	ret

000003e4 <set_controller>:

void set_controller()							//Setting Wii Controller
{												//Controller Address W:0xA4,R:0xA5
	I2C_START;									//Send I2C start condition
     3e4:	84 ea       	ldi	r24, 0xA4	; 164
     3e6:	80 93 bc 00 	sts	0x00BC, r24
	while(!(TWCR & _BV(TWINT)));				//Wait while TWINT flag = 1
     3ea:	80 91 bc 00 	lds	r24, 0x00BC
     3ee:	87 ff       	sbrs	r24, 7
     3f0:	fc cf       	rjmp	.-8      	; 0x3ea <set_controller+0x6>
	if((TWSR & 0xF8) != TW_START)		error();//Check TWSR
     3f2:	80 91 b9 00 	lds	r24, 0x00B9
     3f6:	88 7f       	andi	r24, 0xF8	; 248
     3f8:	88 30       	cpi	r24, 0x08	; 8
     3fa:	09 f0       	breq	.+2      	; 0x3fe <set_controller+0x1a>
     3fc:	cd df       	rcall	.-102    	; 0x398 <error>
	TWDR = 0xA4;								//Set Send Data Slave Address+W
     3fe:	84 ea       	ldi	r24, 0xA4	; 164
     400:	80 93 bb 00 	sts	0x00BB, r24
	TWCR = _BV(TWINT) | _BV(TWEN) ;				//Send Start(TWINT flag = 0)
     404:	84 e8       	ldi	r24, 0x84	; 132
     406:	80 93 bc 00 	sts	0x00BC, r24
	while(!(TWCR & _BV(TWINT))) ;				//Wait while TWINT-flag = 1
     40a:	80 91 bc 00 	lds	r24, 0x00BC
     40e:	87 ff       	sbrs	r24, 7
     410:	fc cf       	rjmp	.-8      	; 0x40a <set_controller+0x26>
	if((TWSR & 0xF8) != TW_MT_SLA_ACK)	error();//if not return ACK,it is error.
     412:	80 91 b9 00 	lds	r24, 0x00B9
     416:	88 7f       	andi	r24, 0xF8	; 248
     418:	88 31       	cpi	r24, 0x18	; 24
     41a:	09 f0       	breq	.+2      	; 0x41e <set_controller+0x3a>
     41c:	bd df       	rcall	.-134    	; 0x398 <error>
	TWDR = 0x40;								//Setting Send Data   
     41e:	80 e4       	ldi	r24, 0x40	; 64
     420:	80 93 bb 00 	sts	0x00BB, r24
	TWCR = _BV(TWINT) | _BV(TWEN) ;
     424:	84 e8       	ldi	r24, 0x84	; 132
     426:	80 93 bc 00 	sts	0x00BC, r24
	while(!(TWCR & _BV(TWINT))) ;				//Wait while TWINT-flag = 1
     42a:	80 91 bc 00 	lds	r24, 0x00BC
     42e:	87 ff       	sbrs	r24, 7
     430:	fc cf       	rjmp	.-8      	; 0x42a <set_controller+0x46>
	if((TWSR & 0xF8) != TW_MT_DATA_ACK)	error();//if not return ACK,it is error.
     432:	80 91 b9 00 	lds	r24, 0x00B9
     436:	88 7f       	andi	r24, 0xF8	; 248
     438:	88 32       	cpi	r24, 0x28	; 40
     43a:	09 f0       	breq	.+2      	; 0x43e <set_controller+0x5a>
     43c:	ad df       	rcall	.-166    	; 0x398 <error>
	TWDR = 0x00;								//Setting send data
     43e:	10 92 bb 00 	sts	0x00BB, r1
	TWCR = _BV(TWINT) | _BV(TWEN) ;
     442:	84 e8       	ldi	r24, 0x84	; 132
     444:	80 93 bc 00 	sts	0x00BC, r24
	while(!(TWCR & _BV(TWINT))) ;				//Wait while TWINT-flag = 1
     448:	80 91 bc 00 	lds	r24, 0x00BC
     44c:	87 ff       	sbrs	r24, 7
     44e:	fc cf       	rjmp	.-8      	; 0x448 <set_controller+0x64>
	if((TWSR & 0xF8) != TW_MT_DATA_ACK)	error();//if not return ACK,it is error.
     450:	80 91 b9 00 	lds	r24, 0x00B9
     454:	88 7f       	andi	r24, 0xF8	; 248
     456:	88 32       	cpi	r24, 0x28	; 40
     458:	09 f0       	breq	.+2      	; 0x45c <set_controller+0x78>
     45a:	9e df       	rcall	.-196    	; 0x398 <error>
	I2C_END;									//Send I2C end condition
     45c:	84 e9       	ldi	r24, 0x94	; 148
     45e:	80 93 bc 00 	sts	0x00BC, r24
}
     462:	08 95       	ret

00000464 <get_value>:

void get_value(unsigned char *Re_Data)
{
     464:	ef 92       	push	r14
     466:	ff 92       	push	r15
     468:	0f 93       	push	r16
     46a:	1f 93       	push	r17
     46c:	cf 93       	push	r28
     46e:	df 93       	push	r29
     470:	7c 01       	movw	r14, r24
	int i;
	wait(2);									//wait(2ms)
     472:	82 e0       	ldi	r24, 0x02	; 2
     474:	90 e0       	ldi	r25, 0x00	; 0
     476:	74 df       	rcall	.-280    	; 0x360 <wait>
	I2C_START;									//開始条件を送る
     478:	84 ea       	ldi	r24, 0xA4	; 164
     47a:	80 93 bc 00 	sts	0x00BC, r24
	while(!(TWCR & _BV(TWINT)));				//TWINTフラグが立つまで待機
     47e:	80 91 bc 00 	lds	r24, 0x00BC
     482:	87 ff       	sbrs	r24, 7
     484:	fc cf       	rjmp	.-8      	; 0x47e <get_value+0x1a>
	if((TWSR & 0xF8) != TW_START)		error();//状態コード(TWSR)を調べる
     486:	80 91 b9 00 	lds	r24, 0x00B9
     48a:	88 7f       	andi	r24, 0xF8	; 248
     48c:	88 30       	cpi	r24, 0x08	; 8
     48e:	09 f0       	breq	.+2      	; 0x492 <get_value+0x2e>
     490:	83 df       	rcall	.-250    	; 0x398 <error>
	TWDR = 0xA4;								//送信データにスレーブアドレス+Writeを設定
     492:	84 ea       	ldi	r24, 0xA4	; 164
     494:	80 93 bb 00 	sts	0x00BB, r24
	TWCR = _BV(TWINT) | _BV(TWEN);				//TWINTフラグを倒して送信開始
     498:	84 e8       	ldi	r24, 0x84	; 132
     49a:	80 93 bc 00 	sts	0x00BC, r24
	while(!(TWCR & _BV(TWINT)));				//TWINTフラグが立つまで待機
     49e:	80 91 bc 00 	lds	r24, 0x00BC
     4a2:	87 ff       	sbrs	r24, 7
     4a4:	fc cf       	rjmp	.-8      	; 0x49e <get_value+0x3a>
	if((TWSR & 0xF8) != TW_MT_SLA_ACK)	error();//ACKが返ってこなかったらerror
     4a6:	80 91 b9 00 	lds	r24, 0x00B9
     4aa:	88 7f       	andi	r24, 0xF8	; 248
     4ac:	88 31       	cpi	r24, 0x18	; 24
     4ae:	09 f0       	breq	.+2      	; 0x4b2 <get_value+0x4e>
     4b0:	73 df       	rcall	.-282    	; 0x398 <error>
	TWDR = 0x00;								//送信データを設定    
     4b2:	10 92 bb 00 	sts	0x00BB, r1
	TWCR = _BV(TWINT) | _BV(TWEN) ;				//TWINTフラグを倒して送信開始
     4b6:	84 e8       	ldi	r24, 0x84	; 132
     4b8:	80 93 bc 00 	sts	0x00BC, r24
	while(!(TWCR & _BV(TWINT))) ;				//TWINTフラグが立つまで待機
     4bc:	80 91 bc 00 	lds	r24, 0x00BC
     4c0:	87 ff       	sbrs	r24, 7
     4c2:	fc cf       	rjmp	.-8      	; 0x4bc <get_value+0x58>
	if((TWSR & 0xF8) != TW_MT_DATA_ACK)	error();//ACKが返ってこなかったらerror
     4c4:	80 91 b9 00 	lds	r24, 0x00B9
     4c8:	88 7f       	andi	r24, 0xF8	; 248
     4ca:	88 32       	cpi	r24, 0x28	; 40
     4cc:	09 f0       	breq	.+2      	; 0x4d0 <get_value+0x6c>
     4ce:	64 df       	rcall	.-312    	; 0x398 <error>
	I2C_END;									//終了条件を送る
     4d0:	84 e9       	ldi	r24, 0x94	; 148
     4d2:	80 93 bc 00 	sts	0x00BC, r24
	wait(1);									//wait(1ms)
     4d6:	81 e0       	ldi	r24, 0x01	; 1
     4d8:	90 e0       	ldi	r25, 0x00	; 0
     4da:	42 df       	rcall	.-380    	; 0x360 <wait>
	
	I2C_START;									//開始条件を送る
     4dc:	84 ea       	ldi	r24, 0xA4	; 164
     4de:	80 93 bc 00 	sts	0x00BC, r24
	while(!(TWCR & _BV(TWINT)));				//TWINTフラグが立つまで待機
     4e2:	80 91 bc 00 	lds	r24, 0x00BC
     4e6:	87 ff       	sbrs	r24, 7
     4e8:	fc cf       	rjmp	.-8      	; 0x4e2 <get_value+0x7e>
	if((TWSR & 0xF8) != TW_START)	error();//状態コード(TWSR)を調べる
     4ea:	80 91 b9 00 	lds	r24, 0x00B9
     4ee:	88 7f       	andi	r24, 0xF8	; 248
     4f0:	88 30       	cpi	r24, 0x08	; 8
     4f2:	09 f0       	breq	.+2      	; 0x4f6 <get_value+0x92>
     4f4:	51 df       	rcall	.-350    	; 0x398 <error>
	TWDR = 0xA5;								//送信データにスレーブアドレス+Readを設定
     4f6:	85 ea       	ldi	r24, 0xA5	; 165
     4f8:	80 93 bb 00 	sts	0x00BB, r24
	TWCR = _BV(TWINT) | _BV(TWEN) ;				//TWINTフラグを倒して送信開始
     4fc:	84 e8       	ldi	r24, 0x84	; 132
     4fe:	80 93 bc 00 	sts	0x00BC, r24
	while(!(TWCR & _BV(TWINT))) ;				//TWINTフラグが立つまで待機
     502:	80 91 bc 00 	lds	r24, 0x00BC
     506:	87 ff       	sbrs	r24, 7
     508:	fc cf       	rjmp	.-8      	; 0x502 <__stack+0x3>
	if((TWSR & 0xF8) != TW_MR_SLA_ACK)	error();//ACKが返ってこなかったらerror
     50a:	80 91 b9 00 	lds	r24, 0x00B9
     50e:	88 7f       	andi	r24, 0xF8	; 248
     510:	80 34       	cpi	r24, 0x40	; 64
     512:	09 f0       	breq	.+2      	; 0x516 <__stack+0x17>
     514:	41 df       	rcall	.-382    	; 0x398 <error>
     516:	c0 e0       	ldi	r28, 0x00	; 0
     518:	d0 e0       	ldi	r29, 0x00	; 0
	for(i=0; i<6; i++){
		TWCR=(1<<TWINT)|(1<<TWEN)|(1<<TWEA);	//data受信+ACK予約
     51a:	04 ec       	ldi	r16, 0xC4	; 196
		while(!(TWCR & _BV(TWINT))) ;			//TWINTフラグが立つまで待機
		if(TW_STATUS!=TW_MR_DATA_ACK)   error();//ACKが返ってこなかったらerror
		Re_Data[i] = (TWDR^0x17)+0x17;			//wii対応データに変換してRe_Dataに格納
     51c:	17 e1       	ldi	r17, 0x17	; 23
	TWDR = 0xA5;								//送信データにスレーブアドレス+Readを設定
	TWCR = _BV(TWINT) | _BV(TWEN) ;				//TWINTフラグを倒して送信開始
	while(!(TWCR & _BV(TWINT))) ;				//TWINTフラグが立つまで待機
	if((TWSR & 0xF8) != TW_MR_SLA_ACK)	error();//ACKが返ってこなかったらerror
	for(i=0; i<6; i++){
		TWCR=(1<<TWINT)|(1<<TWEN)|(1<<TWEA);	//data受信+ACK予約
     51e:	00 93 bc 00 	sts	0x00BC, r16
		while(!(TWCR & _BV(TWINT))) ;			//TWINTフラグが立つまで待機
     522:	80 91 bc 00 	lds	r24, 0x00BC
     526:	87 ff       	sbrs	r24, 7
     528:	fc cf       	rjmp	.-8      	; 0x522 <__stack+0x23>
		if(TW_STATUS!=TW_MR_DATA_ACK)   error();//ACKが返ってこなかったらerror
     52a:	80 91 b9 00 	lds	r24, 0x00B9
     52e:	88 7f       	andi	r24, 0xF8	; 248
     530:	80 35       	cpi	r24, 0x50	; 80
     532:	09 f0       	breq	.+2      	; 0x536 <__stack+0x37>
     534:	31 df       	rcall	.-414    	; 0x398 <error>
		Re_Data[i] = (TWDR^0x17)+0x17;			//wii対応データに変換してRe_Dataに格納
     536:	80 91 bb 00 	lds	r24, 0x00BB
     53a:	f7 01       	movw	r30, r14
     53c:	ec 0f       	add	r30, r28
     53e:	fd 1f       	adc	r31, r29
     540:	81 27       	eor	r24, r17
     542:	89 5e       	subi	r24, 0xE9	; 233
     544:	80 83       	st	Z, r24
	if((TWSR & 0xF8) != TW_START)	error();//状態コード(TWSR)を調べる
	TWDR = 0xA5;								//送信データにスレーブアドレス+Readを設定
	TWCR = _BV(TWINT) | _BV(TWEN) ;				//TWINTフラグを倒して送信開始
	while(!(TWCR & _BV(TWINT))) ;				//TWINTフラグが立つまで待機
	if((TWSR & 0xF8) != TW_MR_SLA_ACK)	error();//ACKが返ってこなかったらerror
	for(i=0; i<6; i++){
     546:	21 96       	adiw	r28, 0x01	; 1
     548:	c6 30       	cpi	r28, 0x06	; 6
     54a:	d1 05       	cpc	r29, r1
     54c:	41 f7       	brne	.-48     	; 0x51e <__stack+0x1f>
		TWCR=(1<<TWINT)|(1<<TWEN)|(1<<TWEA);	//data受信+ACK予約
		while(!(TWCR & _BV(TWINT))) ;			//TWINTフラグが立つまで待機
		if(TW_STATUS!=TW_MR_DATA_ACK)   error();//ACKが返ってこなかったらerror
		Re_Data[i] = (TWDR^0x17)+0x17;			//wii対応データに変換してRe_Dataに格納
		}
	I2C_END;									//終了条件を送る	
     54e:	84 e9       	ldi	r24, 0x94	; 148
     550:	80 93 bc 00 	sts	0x00BC, r24
}
     554:	df 91       	pop	r29
     556:	cf 91       	pop	r28
     558:	1f 91       	pop	r17
     55a:	0f 91       	pop	r16
     55c:	ff 90       	pop	r15
     55e:	ef 90       	pop	r14
     560:	08 95       	ret

00000562 <mode>:
//select MU2 or Serial
//mode　0･･･MU2　1･･･serial
int mode()
{
	int mode;	
	if(bit_is_set(PIND,PD2))	mode=0;
     562:	89 b1       	in	r24, 0x09	; 9
	if(bit_is_clear(PIND,PD2))	mode=1;
     564:	29 b1       	in	r18, 0x09	; 9
     566:	30 e0       	ldi	r19, 0x00	; 0
     568:	36 95       	lsr	r19
     56a:	27 95       	ror	r18
     56c:	36 95       	lsr	r19
     56e:	27 95       	ror	r18
     570:	20 95       	com	r18
     572:	30 95       	com	r19
     574:	21 70       	andi	r18, 0x01	; 1
     576:	30 70       	andi	r19, 0x00	; 0
	return mode;
}
     578:	c9 01       	movw	r24, r18
     57a:	08 95       	ret

0000057c <make_key>:

void make_key()									//暗号化鍵の送信/作成
{
     57c:	df 92       	push	r13
     57e:	ef 92       	push	r14
     580:	ff 92       	push	r15
     582:	0f 93       	push	r16
     584:	1f 93       	push	r17
     586:	df 93       	push	r29
     588:	cf 93       	push	r28
     58a:	cd b7       	in	r28, 0x3d	; 61
     58c:	de b7       	in	r29, 0x3e	; 62
     58e:	63 97       	sbiw	r28, 0x13	; 19
     590:	0f b6       	in	r0, 0x3f	; 63
     592:	f8 94       	cli
     594:	de bf       	out	0x3e, r29	; 62
     596:	0f be       	out	0x3f, r0	; 63
     598:	cd bf       	out	0x3d, r28	; 61
	int i;
	unsigned char data1[7]={0x40,0xA4,0xDD,0x6D,0x0C,0x2F,0x7E};
     59a:	de 01       	movw	r26, r28
     59c:	16 96       	adiw	r26, 0x06	; 6
     59e:	ec e0       	ldi	r30, 0x0C	; 12
     5a0:	f1 e0       	ldi	r31, 0x01	; 1
     5a2:	87 e0       	ldi	r24, 0x07	; 7
     5a4:	01 90       	ld	r0, Z+
     5a6:	0d 92       	st	X+, r0
     5a8:	81 50       	subi	r24, 0x01	; 1
     5aa:	e1 f7       	brne	.-8      	; 0x5a4 <make_key+0x28>
	unsigned char data2[7]={0x46,0xF2,0x83,0xD4,0xE0,0xFD,0x26};
     5ac:	de 01       	movw	r26, r28
     5ae:	1d 96       	adiw	r26, 0x0d	; 13
     5b0:	e5 e0       	ldi	r30, 0x05	; 5
     5b2:	f1 e0       	ldi	r31, 0x01	; 1
     5b4:	87 e0       	ldi	r24, 0x07	; 7
     5b6:	01 90       	ld	r0, Z+
     5b8:	0d 92       	st	X+, r0
     5ba:	81 50       	subi	r24, 0x01	; 1
     5bc:	e1 f7       	brne	.-8      	; 0x5b6 <make_key+0x3a>
	unsigned char data3[5]={0x4C,0xE3,0xB3,0x98,0x67};
     5be:	de 01       	movw	r26, r28
     5c0:	11 96       	adiw	r26, 0x01	; 1
     5c2:	e0 e0       	ldi	r30, 0x00	; 0
     5c4:	f1 e0       	ldi	r31, 0x01	; 1
     5c6:	85 e0       	ldi	r24, 0x05	; 5
     5c8:	01 90       	ld	r0, Z+
     5ca:	0d 92       	st	X+, r0
     5cc:	81 50       	subi	r24, 0x01	; 1
     5ce:	e1 f7       	brne	.-8      	; 0x5c8 <make_key+0x4c>
/*	unsigned char data1[7]={0x40,0x00,0x00,0x00,0x00,0x00,0x00};
	unsigned char data2[7]={0x46,0x00,0x00,0x00,0x00,0x00,0x00};
	unsigned char data3[5]={0x4C,0x00,0x00,0x00,0x00};*/
	
	wait(2);									//wait(2ms)	
     5d0:	82 e0       	ldi	r24, 0x02	; 2
     5d2:	90 e0       	ldi	r25, 0x00	; 0
     5d4:	c5 de       	rcall	.-630    	; 0x360 <wait>
	I2C_START;									//開始条件を送る
     5d6:	84 ea       	ldi	r24, 0xA4	; 164
     5d8:	80 93 bc 00 	sts	0x00BC, r24
	while(!(TWCR & _BV(TWINT)));				//TWINTフラグが立つまで待機
     5dc:	80 91 bc 00 	lds	r24, 0x00BC
     5e0:	87 ff       	sbrs	r24, 7
     5e2:	fc cf       	rjmp	.-8      	; 0x5dc <make_key+0x60>
	if((TWSR & 0xF8) != TW_START)		error();//状態コード(TWSR)を調べる
     5e4:	80 91 b9 00 	lds	r24, 0x00B9
     5e8:	88 7f       	andi	r24, 0xF8	; 248
     5ea:	88 30       	cpi	r24, 0x08	; 8
     5ec:	09 f0       	breq	.+2      	; 0x5f0 <make_key+0x74>
     5ee:	d4 de       	rcall	.-600    	; 0x398 <error>
	TWDR = 0xA4;								//送信データにスレーブアドレス+Writeを設定
     5f0:	84 ea       	ldi	r24, 0xA4	; 164
     5f2:	80 93 bb 00 	sts	0x00BB, r24
	TWCR = _BV(TWINT) | _BV(TWEN);				//TWINTフラグを倒して送信開始
     5f6:	84 e8       	ldi	r24, 0x84	; 132
     5f8:	80 93 bc 00 	sts	0x00BC, r24
	while(!(TWCR & _BV(TWINT)));				//TWINTフラグが立つまで待機
     5fc:	80 91 bc 00 	lds	r24, 0x00BC
     600:	87 ff       	sbrs	r24, 7
     602:	fc cf       	rjmp	.-8      	; 0x5fc <make_key+0x80>
	if((TWSR & 0xF8) != TW_MT_SLA_ACK)	error();//ACKが返ってこなかったらerror
     604:	80 91 b9 00 	lds	r24, 0x00B9
     608:	88 7f       	andi	r24, 0xF8	; 248
     60a:	88 31       	cpi	r24, 0x18	; 24
     60c:	09 f0       	breq	.+2      	; 0x610 <make_key+0x94>
     60e:	c4 de       	rcall	.-632    	; 0x398 <error>
     610:	8e 01       	movw	r16, r28
     612:	0a 5f       	subi	r16, 0xFA	; 250
     614:	1f 4f       	sbci	r17, 0xFF	; 255
	for(i=0;i<7;i++){
		TWDR = data1[i];						//送信データを設定    
		TWCR = _BV(TWINT) | _BV(TWEN);			//TWINTフラグを倒して送信開始
     616:	64 e8       	ldi	r22, 0x84	; 132
     618:	d6 2e       	mov	r13, r22
	if((TWSR & 0xF8) != TW_START)		error();//状態コード(TWSR)を調べる
	TWDR = 0xA4;								//送信データにスレーブアドレス+Writeを設定
	TWCR = _BV(TWINT) | _BV(TWEN);				//TWINTフラグを倒して送信開始
	while(!(TWCR & _BV(TWINT)));				//TWINTフラグが立つまで待機
	if((TWSR & 0xF8) != TW_MT_SLA_ACK)	error();//ACKが返ってこなかったらerror
	for(i=0;i<7;i++){
     61a:	5d e0       	ldi	r21, 0x0D	; 13
     61c:	e5 2e       	mov	r14, r21
     61e:	f1 2c       	mov	r15, r1
     620:	ec 0e       	add	r14, r28
     622:	fd 1e       	adc	r15, r29
		TWDR = data1[i];						//送信データを設定    
     624:	f8 01       	movw	r30, r16
     626:	80 81       	ld	r24, Z
     628:	80 93 bb 00 	sts	0x00BB, r24
		TWCR = _BV(TWINT) | _BV(TWEN);			//TWINTフラグを倒して送信開始
     62c:	d0 92 bc 00 	sts	0x00BC, r13
		while(!(TWCR & _BV(TWINT)));			//TWINTフラグが立つまで待機
     630:	80 91 bc 00 	lds	r24, 0x00BC
     634:	87 ff       	sbrs	r24, 7
     636:	fc cf       	rjmp	.-8      	; 0x630 <make_key+0xb4>
		if((TWSR & 0xF8)!=TW_MT_DATA_ACK)error();//ACKが返ってこなかったらerror
     638:	80 91 b9 00 	lds	r24, 0x00B9
     63c:	88 7f       	andi	r24, 0xF8	; 248
     63e:	88 32       	cpi	r24, 0x28	; 40
     640:	09 f0       	breq	.+2      	; 0x644 <make_key+0xc8>
     642:	aa de       	rcall	.-684    	; 0x398 <error>
     644:	0f 5f       	subi	r16, 0xFF	; 255
     646:	1f 4f       	sbci	r17, 0xFF	; 255
	if((TWSR & 0xF8) != TW_START)		error();//状態コード(TWSR)を調べる
	TWDR = 0xA4;								//送信データにスレーブアドレス+Writeを設定
	TWCR = _BV(TWINT) | _BV(TWEN);				//TWINTフラグを倒して送信開始
	while(!(TWCR & _BV(TWINT)));				//TWINTフラグが立つまで待機
	if((TWSR & 0xF8) != TW_MT_SLA_ACK)	error();//ACKが返ってこなかったらerror
	for(i=0;i<7;i++){
     648:	0e 15       	cp	r16, r14
     64a:	1f 05       	cpc	r17, r15
     64c:	59 f7       	brne	.-42     	; 0x624 <make_key+0xa8>
		TWDR = data1[i];						//送信データを設定    
		TWCR = _BV(TWINT) | _BV(TWEN);			//TWINTフラグを倒して送信開始
		while(!(TWCR & _BV(TWINT)));			//TWINTフラグが立つまで待機
		if((TWSR & 0xF8)!=TW_MT_DATA_ACK)error();//ACKが返ってこなかったらerror
	}
	I2C_END;									//終了条件を送る
     64e:	84 e9       	ldi	r24, 0x94	; 148
     650:	80 93 bc 00 	sts	0x00BC, r24
	
	wait(2);									//wait(2ms)	
     654:	82 e0       	ldi	r24, 0x02	; 2
     656:	90 e0       	ldi	r25, 0x00	; 0
     658:	83 de       	rcall	.-762    	; 0x360 <wait>
	I2C_START;									//開始条件を送る
     65a:	84 ea       	ldi	r24, 0xA4	; 164
     65c:	80 93 bc 00 	sts	0x00BC, r24
	while(!(TWCR & _BV(TWINT)));				//TWINTフラグが立つまで待機
     660:	80 91 bc 00 	lds	r24, 0x00BC
     664:	87 ff       	sbrs	r24, 7
     666:	fc cf       	rjmp	.-8      	; 0x660 <make_key+0xe4>
	if((TWSR & 0xF8) != TW_START)		error();//状態コード(TWSR)を調べる
     668:	80 91 b9 00 	lds	r24, 0x00B9
     66c:	88 7f       	andi	r24, 0xF8	; 248
     66e:	88 30       	cpi	r24, 0x08	; 8
     670:	09 f0       	breq	.+2      	; 0x674 <make_key+0xf8>
     672:	92 de       	rcall	.-732    	; 0x398 <error>
	TWDR = 0xA4;								//送信データにスレーブアドレス+Writeを設定
     674:	84 ea       	ldi	r24, 0xA4	; 164
     676:	80 93 bb 00 	sts	0x00BB, r24
	TWCR = _BV(TWINT) | _BV(TWEN);				//TWINTフラグを倒して送信開始
     67a:	84 e8       	ldi	r24, 0x84	; 132
     67c:	80 93 bc 00 	sts	0x00BC, r24
	while(!(TWCR & _BV(TWINT)));				//TWINTフラグが立つまで待機
     680:	80 91 bc 00 	lds	r24, 0x00BC
     684:	87 ff       	sbrs	r24, 7
     686:	fc cf       	rjmp	.-8      	; 0x680 <make_key+0x104>
	if((TWSR & 0xF8) != TW_MT_SLA_ACK)	error();//ACKが返ってこなかったらerror
     688:	80 91 b9 00 	lds	r24, 0x00B9
     68c:	88 7f       	andi	r24, 0xF8	; 248
     68e:	88 31       	cpi	r24, 0x18	; 24
     690:	09 f0       	breq	.+2      	; 0x694 <make_key+0x118>
     692:	82 de       	rcall	.-764    	; 0x398 <error>
     694:	8e 01       	movw	r16, r28
     696:	03 5f       	subi	r16, 0xF3	; 243
     698:	1f 4f       	sbci	r17, 0xFF	; 255
	for(i=0;i<7;i++){
		TWDR = data2[i];						//送信データを設定    
		TWCR = _BV(TWINT) | _BV(TWEN);			//TWINTフラグを倒して送信開始
     69a:	44 e8       	ldi	r20, 0x84	; 132
     69c:	d4 2e       	mov	r13, r20
	if((TWSR & 0xF8) != TW_START)		error();//状態コード(TWSR)を調べる
	TWDR = 0xA4;								//送信データにスレーブアドレス+Writeを設定
	TWCR = _BV(TWINT) | _BV(TWEN);				//TWINTフラグを倒して送信開始
	while(!(TWCR & _BV(TWINT)));				//TWINTフラグが立つまで待機
	if((TWSR & 0xF8) != TW_MT_SLA_ACK)	error();//ACKが返ってこなかったらerror
	for(i=0;i<7;i++){
     69e:	34 e1       	ldi	r19, 0x14	; 20
     6a0:	e3 2e       	mov	r14, r19
     6a2:	f1 2c       	mov	r15, r1
     6a4:	ec 0e       	add	r14, r28
     6a6:	fd 1e       	adc	r15, r29
		TWDR = data2[i];						//送信データを設定    
     6a8:	f8 01       	movw	r30, r16
     6aa:	80 81       	ld	r24, Z
     6ac:	80 93 bb 00 	sts	0x00BB, r24
		TWCR = _BV(TWINT) | _BV(TWEN);			//TWINTフラグを倒して送信開始
     6b0:	d0 92 bc 00 	sts	0x00BC, r13
		while(!(TWCR & _BV(TWINT)));			//TWINTフラグが立つまで待機
     6b4:	80 91 bc 00 	lds	r24, 0x00BC
     6b8:	87 ff       	sbrs	r24, 7
     6ba:	fc cf       	rjmp	.-8      	; 0x6b4 <make_key+0x138>
		if((TWSR & 0xF8)!=TW_MT_DATA_ACK)error();//ACKが返ってこなかったらerror
     6bc:	80 91 b9 00 	lds	r24, 0x00B9
     6c0:	88 7f       	andi	r24, 0xF8	; 248
     6c2:	88 32       	cpi	r24, 0x28	; 40
     6c4:	09 f0       	breq	.+2      	; 0x6c8 <make_key+0x14c>
     6c6:	68 de       	rcall	.-816    	; 0x398 <error>
     6c8:	0f 5f       	subi	r16, 0xFF	; 255
     6ca:	1f 4f       	sbci	r17, 0xFF	; 255
	if((TWSR & 0xF8) != TW_START)		error();//状態コード(TWSR)を調べる
	TWDR = 0xA4;								//送信データにスレーブアドレス+Writeを設定
	TWCR = _BV(TWINT) | _BV(TWEN);				//TWINTフラグを倒して送信開始
	while(!(TWCR & _BV(TWINT)));				//TWINTフラグが立つまで待機
	if((TWSR & 0xF8) != TW_MT_SLA_ACK)	error();//ACKが返ってこなかったらerror
	for(i=0;i<7;i++){
     6cc:	0e 15       	cp	r16, r14
     6ce:	1f 05       	cpc	r17, r15
     6d0:	59 f7       	brne	.-42     	; 0x6a8 <make_key+0x12c>
		TWDR = data2[i];						//送信データを設定    
		TWCR = _BV(TWINT) | _BV(TWEN);			//TWINTフラグを倒して送信開始
		while(!(TWCR & _BV(TWINT)));			//TWINTフラグが立つまで待機
		if((TWSR & 0xF8)!=TW_MT_DATA_ACK)error();//ACKが返ってこなかったらerror
	}
	I2C_END;									//終了条件を送る
     6d2:	84 e9       	ldi	r24, 0x94	; 148
     6d4:	80 93 bc 00 	sts	0x00BC, r24
	
	wait(2);									//wait(2ms)	
     6d8:	82 e0       	ldi	r24, 0x02	; 2
     6da:	90 e0       	ldi	r25, 0x00	; 0
     6dc:	41 de       	rcall	.-894    	; 0x360 <wait>
	I2C_START;									//開始条件を送る
     6de:	84 ea       	ldi	r24, 0xA4	; 164
     6e0:	80 93 bc 00 	sts	0x00BC, r24
	while(!(TWCR & _BV(TWINT)));				//TWINTフラグが立つまで待機
     6e4:	80 91 bc 00 	lds	r24, 0x00BC
     6e8:	87 ff       	sbrs	r24, 7
     6ea:	fc cf       	rjmp	.-8      	; 0x6e4 <make_key+0x168>
	if((TWSR & 0xF8) != TW_START)		error();//状態コード(TWSR)を調べる
     6ec:	80 91 b9 00 	lds	r24, 0x00B9
     6f0:	88 7f       	andi	r24, 0xF8	; 248
     6f2:	88 30       	cpi	r24, 0x08	; 8
     6f4:	09 f0       	breq	.+2      	; 0x6f8 <make_key+0x17c>
     6f6:	50 de       	rcall	.-864    	; 0x398 <error>
	TWDR = 0xA4;								//送信データにスレーブアドレス+Writeを設定
     6f8:	84 ea       	ldi	r24, 0xA4	; 164
     6fa:	80 93 bb 00 	sts	0x00BB, r24
	TWCR = _BV(TWINT) | _BV(TWEN);				//TWINTフラグを倒して送信開始
     6fe:	84 e8       	ldi	r24, 0x84	; 132
     700:	80 93 bc 00 	sts	0x00BC, r24
	while(!(TWCR & _BV(TWINT)));				//TWINTフラグが立つまで待機
     704:	80 91 bc 00 	lds	r24, 0x00BC
     708:	87 ff       	sbrs	r24, 7
     70a:	fc cf       	rjmp	.-8      	; 0x704 <make_key+0x188>
	if((TWSR & 0xF8) != TW_MT_SLA_ACK)	error();//ACKが返ってこなかったらerror
     70c:	80 91 b9 00 	lds	r24, 0x00B9
     710:	88 7f       	andi	r24, 0xF8	; 248
     712:	88 31       	cpi	r24, 0x18	; 24
     714:	09 f0       	breq	.+2      	; 0x718 <make_key+0x19c>
     716:	40 de       	rcall	.-896    	; 0x398 <error>
     718:	8e 01       	movw	r16, r28
     71a:	0f 5f       	subi	r16, 0xFF	; 255
     71c:	1f 4f       	sbci	r17, 0xFF	; 255
	for(i=0;i<5;i++){
		TWDR = data3[i];						//送信データを設定    
		TWCR = _BV(TWINT) | _BV(TWEN);			//TWINTフラグを倒して送信開始
     71e:	24 e8       	ldi	r18, 0x84	; 132
     720:	d2 2e       	mov	r13, r18
	if((TWSR & 0xF8) != TW_START)		error();//状態コード(TWSR)を調べる
	TWDR = 0xA4;								//送信データにスレーブアドレス+Writeを設定
	TWCR = _BV(TWINT) | _BV(TWEN);				//TWINTフラグを倒して送信開始
	while(!(TWCR & _BV(TWINT)));				//TWINTフラグが立つまで待機
	if((TWSR & 0xF8) != TW_MT_SLA_ACK)	error();//ACKが返ってこなかったらerror
	for(i=0;i<5;i++){
     722:	96 e0       	ldi	r25, 0x06	; 6
     724:	e9 2e       	mov	r14, r25
     726:	f1 2c       	mov	r15, r1
     728:	ec 0e       	add	r14, r28
     72a:	fd 1e       	adc	r15, r29
		TWDR = data3[i];						//送信データを設定    
     72c:	f8 01       	movw	r30, r16
     72e:	80 81       	ld	r24, Z
     730:	80 93 bb 00 	sts	0x00BB, r24
		TWCR = _BV(TWINT) | _BV(TWEN);			//TWINTフラグを倒して送信開始
     734:	d0 92 bc 00 	sts	0x00BC, r13
		while(!(TWCR & _BV(TWINT)));			//TWINTフラグが立つまで待機
     738:	80 91 bc 00 	lds	r24, 0x00BC
     73c:	87 ff       	sbrs	r24, 7
     73e:	fc cf       	rjmp	.-8      	; 0x738 <make_key+0x1bc>
		if((TWSR & 0xF8)!=TW_MT_DATA_ACK)error();//ACKが返ってこなかったらerror
     740:	80 91 b9 00 	lds	r24, 0x00B9
     744:	88 7f       	andi	r24, 0xF8	; 248
     746:	88 32       	cpi	r24, 0x28	; 40
     748:	09 f0       	breq	.+2      	; 0x74c <make_key+0x1d0>
     74a:	26 de       	rcall	.-948    	; 0x398 <error>
     74c:	0f 5f       	subi	r16, 0xFF	; 255
     74e:	1f 4f       	sbci	r17, 0xFF	; 255
	if((TWSR & 0xF8) != TW_START)		error();//状態コード(TWSR)を調べる
	TWDR = 0xA4;								//送信データにスレーブアドレス+Writeを設定
	TWCR = _BV(TWINT) | _BV(TWEN);				//TWINTフラグを倒して送信開始
	while(!(TWCR & _BV(TWINT)));				//TWINTフラグが立つまで待機
	if((TWSR & 0xF8) != TW_MT_SLA_ACK)	error();//ACKが返ってこなかったらerror
	for(i=0;i<5;i++){
     750:	0e 15       	cp	r16, r14
     752:	1f 05       	cpc	r17, r15
     754:	59 f7       	brne	.-42     	; 0x72c <make_key+0x1b0>
		TWDR = data3[i];						//送信データを設定    
		TWCR = _BV(TWINT) | _BV(TWEN);			//TWINTフラグを倒して送信開始
		while(!(TWCR & _BV(TWINT)));			//TWINTフラグが立つまで待機
		if((TWSR & 0xF8)!=TW_MT_DATA_ACK)error();//ACKが返ってこなかったらerror
	}
	I2C_END;									//終了条件を送る
     756:	84 e9       	ldi	r24, 0x94	; 148
     758:	80 93 bc 00 	sts	0x00BC, r24
}
     75c:	63 96       	adiw	r28, 0x13	; 19
     75e:	0f b6       	in	r0, 0x3f	; 63
     760:	f8 94       	cli
     762:	de bf       	out	0x3e, r29	; 62
     764:	0f be       	out	0x3f, r0	; 63
     766:	cd bf       	out	0x3d, r28	; 61
     768:	cf 91       	pop	r28
     76a:	df 91       	pop	r29
     76c:	1f 91       	pop	r17
     76e:	0f 91       	pop	r16
     770:	ff 90       	pop	r15
     772:	ef 90       	pop	r14
     774:	df 90       	pop	r13
     776:	08 95       	ret

00000778 <controller_select>:

//select Nunchuk or Classic
//1=nunchuk  0=classic
int controller_select()							//コントローラーの選択
{
     778:	df 92       	push	r13
     77a:	ef 92       	push	r14
     77c:	ff 92       	push	r15
     77e:	0f 93       	push	r16
     780:	1f 93       	push	r17
     782:	df 93       	push	r29
     784:	cf 93       	push	r28
     786:	00 d0       	rcall	.+0      	; 0x788 <controller_select+0x10>
     788:	cd b7       	in	r28, 0x3d	; 61
     78a:	de b7       	in	r29, 0x3e	; 62
	int i,ctrl;
	unsigned char data[2];
	
	make_key();									//暗号化鍵
     78c:	f7 de       	rcall	.-530    	; 0x57c <make_key>

	wait(2);									//wait(2ms)
     78e:	82 e0       	ldi	r24, 0x02	; 2
     790:	90 e0       	ldi	r25, 0x00	; 0
     792:	e6 dd       	rcall	.-1076   	; 0x360 <wait>
	I2C_START;									//開始条件を送る
     794:	84 ea       	ldi	r24, 0xA4	; 164
     796:	80 93 bc 00 	sts	0x00BC, r24
	while(!(TWCR & _BV(TWINT)));				//TWINTフラグが立つまで待機
     79a:	80 91 bc 00 	lds	r24, 0x00BC
     79e:	87 ff       	sbrs	r24, 7
     7a0:	fc cf       	rjmp	.-8      	; 0x79a <controller_select+0x22>
	if((TWSR & 0xF8) != TW_START)		error();//状態コード(TWSR)を調べる
     7a2:	80 91 b9 00 	lds	r24, 0x00B9
     7a6:	88 7f       	andi	r24, 0xF8	; 248
     7a8:	88 30       	cpi	r24, 0x08	; 8
     7aa:	09 f0       	breq	.+2      	; 0x7ae <controller_select+0x36>
     7ac:	f5 dd       	rcall	.-1046   	; 0x398 <error>
	TWDR = 0xA4;								//送信データにスレーブアドレス+Writeを設定
     7ae:	84 ea       	ldi	r24, 0xA4	; 164
     7b0:	80 93 bb 00 	sts	0x00BB, r24
	TWCR = _BV(TWINT) | _BV(TWEN);				//TWINTフラグを倒して送信開始
     7b4:	84 e8       	ldi	r24, 0x84	; 132
     7b6:	80 93 bc 00 	sts	0x00BC, r24
	while(!(TWCR & _BV(TWINT)));				//TWINTフラグが立つまで待機
     7ba:	80 91 bc 00 	lds	r24, 0x00BC
     7be:	87 ff       	sbrs	r24, 7
     7c0:	fc cf       	rjmp	.-8      	; 0x7ba <controller_select+0x42>
	if((TWSR & 0xF8) != TW_MT_SLA_ACK)	error();//ACKが返ってこなかったらerror
     7c2:	80 91 b9 00 	lds	r24, 0x00B9
     7c6:	88 7f       	andi	r24, 0xF8	; 248
     7c8:	88 31       	cpi	r24, 0x18	; 24
     7ca:	09 f0       	breq	.+2      	; 0x7ce <controller_select+0x56>
     7cc:	e5 dd       	rcall	.-1078   	; 0x398 <error>
	TWDR = 0xFE;								//送信データを設定    
     7ce:	8e ef       	ldi	r24, 0xFE	; 254
     7d0:	80 93 bb 00 	sts	0x00BB, r24
	TWCR = _BV(TWINT) | _BV(TWEN) ;				//TWINTフラグを倒して送信開始
     7d4:	84 e8       	ldi	r24, 0x84	; 132
     7d6:	80 93 bc 00 	sts	0x00BC, r24
	while(!(TWCR & _BV(TWINT))) ;				//TWINTフラグが立つまで待機
     7da:	80 91 bc 00 	lds	r24, 0x00BC
     7de:	87 ff       	sbrs	r24, 7
     7e0:	fc cf       	rjmp	.-8      	; 0x7da <controller_select+0x62>
	if((TWSR & 0xF8) != TW_MT_DATA_ACK)	error();//ACKが返ってこなかったらerror
     7e2:	80 91 b9 00 	lds	r24, 0x00B9
     7e6:	88 7f       	andi	r24, 0xF8	; 248
     7e8:	88 32       	cpi	r24, 0x28	; 40
     7ea:	09 f0       	breq	.+2      	; 0x7ee <controller_select+0x76>
     7ec:	d5 dd       	rcall	.-1110   	; 0x398 <error>
	I2C_END;									//終了条件を送る
     7ee:	84 e9       	ldi	r24, 0x94	; 148
     7f0:	80 93 bc 00 	sts	0x00BC, r24
	wait(1);									//wait(1ms)
     7f4:	81 e0       	ldi	r24, 0x01	; 1
     7f6:	90 e0       	ldi	r25, 0x00	; 0
     7f8:	b3 dd       	rcall	.-1178   	; 0x360 <wait>

	I2C_START;									//開始条件を送る
     7fa:	84 ea       	ldi	r24, 0xA4	; 164
     7fc:	80 93 bc 00 	sts	0x00BC, r24
	while(!(TWCR & _BV(TWINT)));				//TWINTフラグが立つまで待機
     800:	80 91 bc 00 	lds	r24, 0x00BC
     804:	87 ff       	sbrs	r24, 7
     806:	fc cf       	rjmp	.-8      	; 0x800 <controller_select+0x88>
	if((TWSR & 0xF8) != TW_START)		error();//状態コード(TWSR)を調べる
     808:	80 91 b9 00 	lds	r24, 0x00B9
     80c:	88 7f       	andi	r24, 0xF8	; 248
     80e:	88 30       	cpi	r24, 0x08	; 8
     810:	09 f0       	breq	.+2      	; 0x814 <controller_select+0x9c>
     812:	c2 dd       	rcall	.-1148   	; 0x398 <error>
	TWDR = 0xA5;								//送信データにスレーブアドレス+Readを設定
     814:	85 ea       	ldi	r24, 0xA5	; 165
     816:	80 93 bb 00 	sts	0x00BB, r24
	TWCR = _BV(TWINT) | _BV(TWEN) ;				//TWINTフラグを倒して送信開始
     81a:	84 e8       	ldi	r24, 0x84	; 132
     81c:	80 93 bc 00 	sts	0x00BC, r24
	while(!(TWCR & _BV(TWINT))) ;				//TWINTフラグが立つまで待機
     820:	80 91 bc 00 	lds	r24, 0x00BC
     824:	87 ff       	sbrs	r24, 7
     826:	fc cf       	rjmp	.-8      	; 0x820 <controller_select+0xa8>
	if((TWSR & 0xF8) != TW_MR_SLA_ACK)	error();//ACKが返ってこなかったらerror
     828:	80 91 b9 00 	lds	r24, 0x00B9
     82c:	88 7f       	andi	r24, 0xF8	; 248
     82e:	80 34       	cpi	r24, 0x40	; 64
     830:	59 f4       	brne	.+22     	; 0x848 <controller_select+0xd0>
     832:	8e 01       	movw	r16, r28
     834:	0f 5f       	subi	r16, 0xFF	; 255
     836:	1f 4f       	sbci	r17, 0xFF	; 255
	for(i=0;i<2;i++){
		TWCR=(1<<TWINT)|(1<<TWEN)|(1<<TWEA);	//data受信+ACK予約
     838:	e4 ec       	ldi	r30, 0xC4	; 196
     83a:	de 2e       	mov	r13, r30
	if((TWSR & 0xF8) != TW_START)		error();//状態コード(TWSR)を調べる
	TWDR = 0xA5;								//送信データにスレーブアドレス+Readを設定
	TWCR = _BV(TWINT) | _BV(TWEN) ;				//TWINTフラグを倒して送信開始
	while(!(TWCR & _BV(TWINT))) ;				//TWINTフラグが立つまで待機
	if((TWSR & 0xF8) != TW_MR_SLA_ACK)	error();//ACKが返ってこなかったらerror
	for(i=0;i<2;i++){
     83c:	73 e0       	ldi	r23, 0x03	; 3
     83e:	e7 2e       	mov	r14, r23
     840:	f1 2c       	mov	r15, r1
     842:	ec 0e       	add	r14, r28
     844:	fd 1e       	adc	r15, r29
     846:	02 c0       	rjmp	.+4      	; 0x84c <controller_select+0xd4>
	while(!(TWCR & _BV(TWINT)));				//TWINTフラグが立つまで待機
	if((TWSR & 0xF8) != TW_START)		error();//状態コード(TWSR)を調べる
	TWDR = 0xA5;								//送信データにスレーブアドレス+Readを設定
	TWCR = _BV(TWINT) | _BV(TWEN) ;				//TWINTフラグを倒して送信開始
	while(!(TWCR & _BV(TWINT))) ;				//TWINTフラグが立つまで待機
	if((TWSR & 0xF8) != TW_MR_SLA_ACK)	error();//ACKが返ってこなかったらerror
     848:	a7 dd       	rcall	.-1202   	; 0x398 <error>
     84a:	f3 cf       	rjmp	.-26     	; 0x832 <controller_select+0xba>
	for(i=0;i<2;i++){
		TWCR=(1<<TWINT)|(1<<TWEN)|(1<<TWEA);	//data受信+ACK予約
     84c:	d0 92 bc 00 	sts	0x00BC, r13
		while(!(TWCR & _BV(TWINT))) ;			//TWINTフラグが立つまで待機
     850:	80 91 bc 00 	lds	r24, 0x00BC
     854:	87 ff       	sbrs	r24, 7
     856:	fc cf       	rjmp	.-8      	; 0x850 <controller_select+0xd8>
		if(TW_STATUS!=TW_MR_DATA_ACK)   error();//ACKが返ってこなかったらerror
     858:	80 91 b9 00 	lds	r24, 0x00B9
     85c:	88 7f       	andi	r24, 0xF8	; 248
     85e:	80 35       	cpi	r24, 0x50	; 80
     860:	09 f0       	breq	.+2      	; 0x864 <controller_select+0xec>
     862:	9a dd       	rcall	.-1228   	; 0x398 <error>
		data[i] = TWDR;							//TWDRをdataに格納
     864:	80 91 bb 00 	lds	r24, 0x00BB
     868:	f8 01       	movw	r30, r16
     86a:	81 93       	st	Z+, r24
     86c:	8f 01       	movw	r16, r30
	if((TWSR & 0xF8) != TW_START)		error();//状態コード(TWSR)を調べる
	TWDR = 0xA5;								//送信データにスレーブアドレス+Readを設定
	TWCR = _BV(TWINT) | _BV(TWEN) ;				//TWINTフラグを倒して送信開始
	while(!(TWCR & _BV(TWINT))) ;				//TWINTフラグが立つまで待機
	if((TWSR & 0xF8) != TW_MR_SLA_ACK)	error();//ACKが返ってこなかったらerror
	for(i=0;i<2;i++){
     86e:	ee 15       	cp	r30, r14
     870:	ff 05       	cpc	r31, r15
     872:	61 f7       	brne	.-40     	; 0x84c <controller_select+0xd4>
		TWCR=(1<<TWINT)|(1<<TWEN)|(1<<TWEA);	//data受信+ACK予約
		while(!(TWCR & _BV(TWINT))) ;			//TWINTフラグが立つまで待機
		if(TW_STATUS!=TW_MR_DATA_ACK)   error();//ACKが返ってこなかったらerror
		data[i] = TWDR;							//TWDRをdataに格納
	}
	I2C_END;									//終了条件を送る	
     874:	84 e9       	ldi	r24, 0x94	; 148
     876:	80 93 bc 00 	sts	0x00BC, r24
     87a:	20 e0       	ldi	r18, 0x00	; 0
     87c:	30 e0       	ldi	r19, 0x00	; 0
     87e:	8a 81       	ldd	r24, Y+2	; 0x02
     880:	81 38       	cpi	r24, 0x81	; 129
     882:	10 f0       	brcs	.+4      	; 0x888 <controller_select+0x110>
     884:	21 e0       	ldi	r18, 0x01	; 1
     886:	30 e0       	ldi	r19, 0x00	; 0

//	if((data[0]==0x00)&&(data[1]==0x00))		ctrl =1;
//	if((data[0]==0x01)&&(data[1]==0x01))	ctrl =0;

	return ctrl;
}
     888:	c9 01       	movw	r24, r18
     88a:	0f 90       	pop	r0
     88c:	0f 90       	pop	r0
     88e:	cf 91       	pop	r28
     890:	df 91       	pop	r29
     892:	1f 91       	pop	r17
     894:	0f 91       	pop	r16
     896:	ff 90       	pop	r15
     898:	ef 90       	pop	r14
     89a:	df 90       	pop	r13
     89c:	08 95       	ret

0000089e <battery_check>:

//ADC=(Vin*1024)/AVcc
void battery_check()
{
     89e:	1f 93       	push	r17
//caution!!
	ADCSRA |= 0x50;						// start AD convert
     8a0:	80 91 7a 00 	lds	r24, 0x007A
     8a4:	80 65       	ori	r24, 0x50	; 80
     8a6:	80 93 7a 00 	sts	0x007A, r24
	while(ADIF==0);						// Waiting while converting
	if(ADCH < 0xA2){					// low battery
     8aa:	80 91 79 00 	lds	r24, 0x0079
     8ae:	82 3a       	cpi	r24, 0xA2	; 162
     8b0:	c8 f4       	brcc	.+50     	; 0x8e4 <battery_check+0x46>
		PORTD &= 0x0F;	  
     8b2:	8b b1       	in	r24, 0x0b	; 11
     8b4:	8f 70       	andi	r24, 0x0F	; 15
     8b6:	8b b9       	out	0x0b, r24	; 11
		PORTB &= 0x3F;	 
     8b8:	85 b1       	in	r24, 0x05	; 5
     8ba:	8f 73       	andi	r24, 0x3F	; 63
     8bc:	85 b9       	out	0x05, r24	; 5
		wait(ADCH*10);
     8be:	80 91 79 00 	lds	r24, 0x0079
     8c2:	1a e0       	ldi	r17, 0x0A	; 10
     8c4:	81 9f       	mul	r24, r17
     8c6:	c0 01       	movw	r24, r0
     8c8:	11 24       	eor	r1, r1
     8ca:	4a dd       	rcall	.-1388   	; 0x360 <wait>
		PORTD |= 0xF0;
     8cc:	8b b1       	in	r24, 0x0b	; 11
     8ce:	80 6f       	ori	r24, 0xF0	; 240
     8d0:	8b b9       	out	0x0b, r24	; 11
		PORTB |= 0xC0;	
     8d2:	85 b1       	in	r24, 0x05	; 5
     8d4:	80 6c       	ori	r24, 0xC0	; 192
     8d6:	85 b9       	out	0x05, r24	; 5
		wait(ADCH*10);
     8d8:	80 91 79 00 	lds	r24, 0x0079
     8dc:	81 9f       	mul	r24, r17
     8de:	c0 01       	movw	r24, r0
     8e0:	11 24       	eor	r1, r1
     8e2:	3e dd       	rcall	.-1412   	; 0x360 <wait>
	}

//states display
	PORTD &= 0x0F;						//LED ON  
     8e4:	8b b1       	in	r24, 0x0b	; 11
     8e6:	8f 70       	andi	r24, 0x0F	; 15
     8e8:	8b b9       	out	0x0b, r24	; 11
	PORTB &= 0x3F;						//LED ON  
     8ea:	85 b1       	in	r24, 0x05	; 5
     8ec:	8f 73       	andi	r24, 0x3F	; 63
     8ee:	85 b9       	out	0x05, r24	; 5
	if(ADCH < 0xC2)	PORTD |= _BV(PD7);	//LED OFF
     8f0:	80 91 79 00 	lds	r24, 0x0079
     8f4:	82 3c       	cpi	r24, 0xC2	; 194
     8f6:	08 f4       	brcc	.+2      	; 0x8fa <battery_check+0x5c>
     8f8:	5f 9a       	sbi	0x0b, 7	; 11
	if(ADCH < 0xBB) PORTD |= _BV(PD6);	//LED OFF
     8fa:	80 91 79 00 	lds	r24, 0x0079
     8fe:	8b 3b       	cpi	r24, 0xBB	; 187
     900:	08 f4       	brcc	.+2      	; 0x904 <battery_check+0x66>
     902:	5e 9a       	sbi	0x0b, 6	; 11
	if(ADCH < 0xB5) PORTD |= _BV(PD5);  //LED OFF
     904:	80 91 79 00 	lds	r24, 0x0079
     908:	85 3b       	cpi	r24, 0xB5	; 181
     90a:	08 f4       	brcc	.+2      	; 0x90e <battery_check+0x70>
     90c:	5d 9a       	sbi	0x0b, 5	; 11
	if(ADCH < 0xAF) PORTB |= _BV(PB7);	//LED OFF
     90e:	80 91 79 00 	lds	r24, 0x0079
     912:	8f 3a       	cpi	r24, 0xAF	; 175
     914:	08 f4       	brcc	.+2      	; 0x918 <battery_check+0x7a>
     916:	2f 9a       	sbi	0x05, 7	; 5
	if(ADCH < 0xAA) PORTB |= _BV(PB6);	//LED OFF
     918:	80 91 79 00 	lds	r24, 0x0079
     91c:	8a 3a       	cpi	r24, 0xAA	; 170
     91e:	08 f4       	brcc	.+2      	; 0x922 <battery_check+0x84>
     920:	2e 9a       	sbi	0x05, 6	; 5

	ADCSRA |= 0x10;					//ADCSRA INIT
     922:	80 91 7a 00 	lds	r24, 0x007A
     926:	80 61       	ori	r24, 0x10	; 16
     928:	80 93 7a 00 	sts	0x007A, r24
}
     92c:	1f 91       	pop	r17
     92e:	08 95       	ret

00000930 <battery_states>:

void battery_states()
{
	ADCSRA |= 0x50;					// start AD convert
     930:	80 91 7a 00 	lds	r24, 0x007A
     934:	80 65       	ori	r24, 0x50	; 80
     936:	80 93 7a 00 	sts	0x007A, r24
	while(ADIF==0);					// Waiting while converting
	PORTD &=~_BV(PD4);
     93a:	5c 98       	cbi	0x0b, 4	; 11
	wait(250);
     93c:	8a ef       	ldi	r24, 0xFA	; 250
     93e:	90 e0       	ldi	r25, 0x00	; 0
     940:	0f dd       	rcall	.-1506   	; 0x360 <wait>
	if(ADCH > 0xAA){
     942:	80 91 79 00 	lds	r24, 0x0079
     946:	8b 3a       	cpi	r24, 0xAB	; 171
     948:	20 f0       	brcs	.+8      	; 0x952 <battery_states+0x22>
		PORTB &=~_BV(PB6);
     94a:	2e 98       	cbi	0x05, 6	; 5
		wait(250);
     94c:	8a ef       	ldi	r24, 0xFA	; 250
     94e:	90 e0       	ldi	r25, 0x00	; 0
     950:	07 dd       	rcall	.-1522   	; 0x360 <wait>
	}
	if(ADCH > 0xAF){
     952:	80 91 79 00 	lds	r24, 0x0079
     956:	80 3b       	cpi	r24, 0xB0	; 176
     958:	20 f0       	brcs	.+8      	; 0x962 <battery_states+0x32>
		PORTB &=~_BV(PB7);
     95a:	2f 98       	cbi	0x05, 7	; 5
		wait(250);
     95c:	8a ef       	ldi	r24, 0xFA	; 250
     95e:	90 e0       	ldi	r25, 0x00	; 0
     960:	ff dc       	rcall	.-1538   	; 0x360 <wait>
	}
	if(ADCH > 0xB5){
     962:	80 91 79 00 	lds	r24, 0x0079
     966:	86 3b       	cpi	r24, 0xB6	; 182
     968:	20 f0       	brcs	.+8      	; 0x972 <battery_states+0x42>
		PORTD &=~_BV(PD5);
     96a:	5d 98       	cbi	0x0b, 5	; 11
		wait(250);
     96c:	8a ef       	ldi	r24, 0xFA	; 250
     96e:	90 e0       	ldi	r25, 0x00	; 0
     970:	f7 dc       	rcall	.-1554   	; 0x360 <wait>
	}
	if(ADCH > 0xBB){
     972:	80 91 79 00 	lds	r24, 0x0079
     976:	8c 3b       	cpi	r24, 0xBC	; 188
     978:	20 f0       	brcs	.+8      	; 0x982 <battery_states+0x52>
		PORTD &=~_BV(PD6);
     97a:	5e 98       	cbi	0x0b, 6	; 11
		wait(250);
     97c:	8a ef       	ldi	r24, 0xFA	; 250
     97e:	90 e0       	ldi	r25, 0x00	; 0
     980:	ef dc       	rcall	.-1570   	; 0x360 <wait>
	}
	if(ADCH > 0xC2){
     982:	80 91 79 00 	lds	r24, 0x0079
     986:	83 3c       	cpi	r24, 0xC3	; 195
     988:	20 f0       	brcs	.+8      	; 0x992 <battery_states+0x62>
		PORTD &=~_BV(PD7);
     98a:	5f 98       	cbi	0x0b, 7	; 11
		wait(250);	
     98c:	8a ef       	ldi	r24, 0xFA	; 250
     98e:	90 e0       	ldi	r25, 0x00	; 0
     990:	e7 dc       	rcall	.-1586   	; 0x360 <wait>
	}
	ADCSRA|= 0x10;					//ADCSRA INIT
     992:	80 91 7a 00 	lds	r24, 0x007A
     996:	80 61       	ori	r24, 0x10	; 16
     998:	80 93 7a 00 	sts	0x007A, r24
}
     99c:	08 95       	ret

0000099e <RingInit>:

#define TRUE	1
#define FALSE	0

__inline__ void RingInit(RingBuffer *ring, unsigned char *buf, unsigned int size)
{
     99e:	fc 01       	movw	r30, r24
	ring->buf = buf;
     9a0:	71 83       	std	Z+1, r23	; 0x01
     9a2:	60 83       	st	Z, r22
	ring->size = size;
     9a4:	57 83       	std	Z+7, r21	; 0x07
     9a6:	46 83       	std	Z+6, r20	; 0x06
	ring->rp = 0;
     9a8:	13 82       	std	Z+3, r1	; 0x03
     9aa:	12 82       	std	Z+2, r1	; 0x02
	ring->wp = 0;
     9ac:	15 82       	std	Z+5, r1	; 0x05
     9ae:	14 82       	std	Z+4, r1	; 0x04
	ring->empty = TRUE;
     9b0:	81 e0       	ldi	r24, 0x01	; 1
     9b2:	80 87       	std	Z+8, r24	; 0x08
}
     9b4:	08 95       	ret

000009b6 <RingPut>:

__inline__ int RingPut(RingBuffer *ring, unsigned char value)
{
     9b6:	cf 93       	push	r28
     9b8:	df 93       	push	r29
     9ba:	ec 01       	movw	r28, r24
	if( !ring->empty && ring->rp == ring->wp ){
     9bc:	88 85       	ldd	r24, Y+8	; 0x08
     9be:	88 23       	and	r24, r24
     9c0:	51 f4       	brne	.+20     	; 0x9d6 <RingPut+0x20>
     9c2:	2a 81       	ldd	r18, Y+2	; 0x02
     9c4:	3b 81       	ldd	r19, Y+3	; 0x03
     9c6:	8c 81       	ldd	r24, Y+4	; 0x04
     9c8:	9d 81       	ldd	r25, Y+5	; 0x05
     9ca:	28 17       	cp	r18, r24
     9cc:	39 07       	cpc	r19, r25
     9ce:	19 f4       	brne	.+6      	; 0x9d6 <RingPut+0x20>
     9d0:	20 e0       	ldi	r18, 0x00	; 0
     9d2:	30 e0       	ldi	r19, 0x00	; 0
     9d4:	12 c0       	rjmp	.+36     	; 0x9fa <RingPut+0x44>
		return FALSE;
	}
	ring->buf[ring->wp] = value;
     9d6:	e8 81       	ld	r30, Y
     9d8:	f9 81       	ldd	r31, Y+1	; 0x01
     9da:	8c 81       	ldd	r24, Y+4	; 0x04
     9dc:	9d 81       	ldd	r25, Y+5	; 0x05
     9de:	e8 0f       	add	r30, r24
     9e0:	f9 1f       	adc	r31, r25
     9e2:	60 83       	st	Z, r22
	ring->wp = (ring->wp+1) % ring->size;
     9e4:	8c 81       	ldd	r24, Y+4	; 0x04
     9e6:	9d 81       	ldd	r25, Y+5	; 0x05
     9e8:	6e 81       	ldd	r22, Y+6	; 0x06
     9ea:	7f 81       	ldd	r23, Y+7	; 0x07
     9ec:	01 96       	adiw	r24, 0x01	; 1
     9ee:	39 d6       	rcall	.+3186   	; 0x1662 <__udivmodhi4>
     9f0:	9d 83       	std	Y+5, r25	; 0x05
     9f2:	8c 83       	std	Y+4, r24	; 0x04

	ring->empty = FALSE;
     9f4:	18 86       	std	Y+8, r1	; 0x08
     9f6:	21 e0       	ldi	r18, 0x01	; 1
     9f8:	30 e0       	ldi	r19, 0x00	; 0

	return TRUE;
}
     9fa:	c9 01       	movw	r24, r18
     9fc:	df 91       	pop	r29
     9fe:	cf 91       	pop	r28
     a00:	08 95       	ret

00000a02 <RingGet>:

__inline__ int RingGet(RingBuffer *ring, unsigned char *value)
{
     a02:	cf 93       	push	r28
     a04:	df 93       	push	r29
     a06:	ec 01       	movw	r28, r24
     a08:	db 01       	movw	r26, r22
	if( !ring->empty ){
     a0a:	88 85       	ldd	r24, Y+8	; 0x08
     a0c:	88 23       	and	r24, r24
     a0e:	d9 f4       	brne	.+54     	; 0xa46 <RingGet+0x44>
		*value = ring->buf[ring->rp];
     a10:	e8 81       	ld	r30, Y
     a12:	f9 81       	ldd	r31, Y+1	; 0x01
     a14:	8a 81       	ldd	r24, Y+2	; 0x02
     a16:	9b 81       	ldd	r25, Y+3	; 0x03
     a18:	e8 0f       	add	r30, r24
     a1a:	f9 1f       	adc	r31, r25
     a1c:	80 81       	ld	r24, Z
     a1e:	8c 93       	st	X, r24
		ring->rp = (ring->rp+1) % ring->size;
     a20:	8a 81       	ldd	r24, Y+2	; 0x02
     a22:	9b 81       	ldd	r25, Y+3	; 0x03
     a24:	6e 81       	ldd	r22, Y+6	; 0x06
     a26:	7f 81       	ldd	r23, Y+7	; 0x07
     a28:	01 96       	adiw	r24, 0x01	; 1
     a2a:	1b d6       	rcall	.+3126   	; 0x1662 <__udivmodhi4>
     a2c:	9c 01       	movw	r18, r24
     a2e:	9b 83       	std	Y+3, r25	; 0x03
     a30:	8a 83       	std	Y+2, r24	; 0x02
		if( ring->rp == ring->wp )	ring->empty = TRUE;
     a32:	8c 81       	ldd	r24, Y+4	; 0x04
     a34:	9d 81       	ldd	r25, Y+5	; 0x05
     a36:	28 17       	cp	r18, r24
     a38:	39 07       	cpc	r19, r25
     a3a:	11 f4       	brne	.+4      	; 0xa40 <RingGet+0x3e>
     a3c:	81 e0       	ldi	r24, 0x01	; 1
     a3e:	88 87       	std	Y+8, r24	; 0x08
     a40:	21 e0       	ldi	r18, 0x01	; 1
     a42:	30 e0       	ldi	r19, 0x00	; 0
     a44:	03 c0       	rjmp	.+6      	; 0xa4c <RingGet+0x4a>

		return TRUE;
	}else{			// 繝ｪ繝ｳ繧ｰ繝舌ャ繝輔ぃ縺檎ｩｺ縺ｮ縺ｨ縺
		*value = 0;
     a46:	1c 92       	st	X, r1
     a48:	20 e0       	ldi	r18, 0x00	; 0
     a4a:	30 e0       	ldi	r19, 0x00	; 0
		return FALSE;
	}
}
     a4c:	c9 01       	movw	r24, r18
     a4e:	df 91       	pop	r29
     a50:	cf 91       	pop	r28
     a52:	08 95       	ret

00000a54 <isRingEmpty>:

__inline__ int isRingEmpty(RingBuffer *ring)
{
   return ring->empty;
}
     a54:	fc 01       	movw	r30, r24
     a56:	80 85       	ldd	r24, Z+8	; 0x08
     a58:	90 e0       	ldi	r25, 0x00	; 0
     a5a:	08 95       	ret

00000a5c <uart_init>:
/// </summary>
/// <param name="uart_no">UARTの選択 0 または 1</param>
/// <param name="option">uart.h にあるUART設定用マクロを使う</param>
/// <param name="speed">通信速度.ボーレート[bps]を入れる</param>
int uart_init(unsigned char option, unsigned long speed)
{
     a5c:	1f 93       	push	r17
     a5e:	df 93       	push	r29
     a60:	cf 93       	push	r28
     a62:	00 d0       	rcall	.+0      	; 0xa64 <uart_init+0x8>
     a64:	cd b7       	in	r28, 0x3d	; 61
     a66:	de b7       	in	r29, 0x3e	; 62
     a68:	18 2f       	mov	r17, r24
     a6a:	9a 01       	movw	r18, r20
     a6c:	ab 01       	movw	r20, r22
	volatile unsigned int i;
	unsigned int b;

	b = PERIPHERAL_CLOCK_FREQ / 8 / speed -1;
     a6e:	60 e4       	ldi	r22, 0x40	; 64
     a70:	72 e4       	ldi	r23, 0x42	; 66
     a72:	8f e0       	ldi	r24, 0x0F	; 15
     a74:	90 e0       	ldi	r25, 0x00	; 0
     a76:	09 d6       	rcall	.+3090   	; 0x168a <__udivmodsi4>
     a78:	21 50       	subi	r18, 0x01	; 1
     a7a:	30 40       	sbci	r19, 0x00	; 0

    sbi(UCSR0A,U2X0);			// 倍速許可
     a7c:	80 91 c0 00 	lds	r24, 0x00C0
     a80:	82 60       	ori	r24, 0x02	; 2
     a82:	80 93 c0 00 	sts	0x00C0, r24

    UCSR0B = 0x00;
     a86:	10 92 c1 00 	sts	0x00C1, r1
    UCSR0C |= 0x06;
     a8a:	80 91 c2 00 	lds	r24, 0x00C2
     a8e:	86 60       	ori	r24, 0x06	; 6
     a90:	80 93 c2 00 	sts	0x00C2, r24

    for(i=0; i<5000; i++);		// Wait
     a94:	1a 82       	std	Y+2, r1	; 0x02
     a96:	19 82       	std	Y+1, r1	; 0x01
     a98:	05 c0       	rjmp	.+10     	; 0xaa4 <uart_init+0x48>
     a9a:	89 81       	ldd	r24, Y+1	; 0x01
     a9c:	9a 81       	ldd	r25, Y+2	; 0x02
     a9e:	01 96       	adiw	r24, 0x01	; 1
     aa0:	9a 83       	std	Y+2, r25	; 0x02
     aa2:	89 83       	std	Y+1, r24	; 0x01
     aa4:	89 81       	ldd	r24, Y+1	; 0x01
     aa6:	9a 81       	ldd	r25, Y+2	; 0x02
     aa8:	88 58       	subi	r24, 0x88	; 136
     aaa:	93 41       	sbci	r25, 0x13	; 19
     aac:	b0 f3       	brcs	.-20     	; 0xa9a <uart_init+0x3e>

    UCSR0B = option;
     aae:	10 93 c1 00 	sts	0x00C1, r17

    UBRR0H = (unsigned char)(b>>8);
     ab2:	30 93 c5 00 	sts	0x00C5, r19
    UBRR0L = (unsigned char)b;
     ab6:	20 93 c4 00 	sts	0x00C4, r18

    UCSR0A;						// DummyRead
     aba:	80 91 c0 00 	lds	r24, 0x00C0
    UCSR0A &= 0xe3;				// Clear Error Flag
     abe:	80 91 c0 00 	lds	r24, 0x00C0
     ac2:	83 7e       	andi	r24, 0xE3	; 227
     ac4:	80 93 c0 00 	sts	0x00C0, r24

	return 0;
}
     ac8:	80 e0       	ldi	r24, 0x00	; 0
     aca:	90 e0       	ldi	r25, 0x00	; 0
     acc:	0f 90       	pop	r0
     ace:	0f 90       	pop	r0
     ad0:	cf 91       	pop	r28
     ad2:	df 91       	pop	r29
     ad4:	1f 91       	pop	r17
     ad6:	08 95       	ret

00000ad8 <uart_setbuffer>:
#define TRUE	1
#define FALSE	0

__inline__ void RingInit(RingBuffer *ring, unsigned char *buf, unsigned int size)
{
	ring->buf = buf;
     ad8:	90 93 21 01 	sts	0x0121, r25
     adc:	80 93 20 01 	sts	0x0120, r24
	ring->size = size;
     ae0:	70 93 27 01 	sts	0x0127, r23
     ae4:	60 93 26 01 	sts	0x0126, r22
	ring->rp = 0;
     ae8:	10 92 23 01 	sts	0x0123, r1
     aec:	10 92 22 01 	sts	0x0122, r1
	ring->wp = 0;
     af0:	10 92 25 01 	sts	0x0125, r1
     af4:	10 92 24 01 	sts	0x0124, r1
	ring->empty = TRUE;
     af8:	81 e0       	ldi	r24, 0x01	; 1
     afa:	80 93 28 01 	sts	0x0128, r24

void uart_setbuffer(unsigned char *buf, int size)
{
	RingInit(&__uartbuf, buf, size);
}
     afe:	08 95       	ret

00000b00 <uart_getchar>:

int uart_getchar(unsigned char *c)
{
     b00:	fc 01       	movw	r30, r24
	while( !bit_is_set(UCSR0A,RXC0) );
     b02:	80 91 c0 00 	lds	r24, 0x00C0
     b06:	87 ff       	sbrs	r24, 7
     b08:	fc cf       	rjmp	.-8      	; 0xb02 <uart_getchar+0x2>
	cbi(UCSR0A,RXC0);
     b0a:	80 91 c0 00 	lds	r24, 0x00C0
     b0e:	8f 77       	andi	r24, 0x7F	; 127
     b10:	80 93 c0 00 	sts	0x00C0, r24
	*c = UDR0;
     b14:	80 91 c6 00 	lds	r24, 0x00C6
     b18:	80 83       	st	Z, r24
	return 0;
}
     b1a:	80 e0       	ldi	r24, 0x00	; 0
     b1c:	90 e0       	ldi	r25, 0x00	; 0
     b1e:	08 95       	ret

00000b20 <uart_putchar>:

int uart_putchar(unsigned char c)
{
     b20:	98 2f       	mov	r25, r24
	while( !bit_is_set(UCSR0A,UDRE0) );
     b22:	80 91 c0 00 	lds	r24, 0x00C0
     b26:	85 ff       	sbrs	r24, 5
     b28:	fc cf       	rjmp	.-8      	; 0xb22 <uart_putchar+0x2>
	UDR0 = c;
     b2a:	90 93 c6 00 	sts	0x00C6, r25
	cbi(UCSR0A,UDRE0);
     b2e:	80 91 c0 00 	lds	r24, 0x00C0
     b32:	8f 7d       	andi	r24, 0xDF	; 223
     b34:	80 93 c0 00 	sts	0x00C0, r24

	return 0;
}
     b38:	80 e0       	ldi	r24, 0x00	; 0
     b3a:	90 e0       	ldi	r25, 0x00	; 0
     b3c:	08 95       	ret

00000b3e <uart_buf_putchar>:

int uart_buf_putchar(unsigned char c)
{
     b3e:	1f 93       	push	r17
     b40:	68 2f       	mov	r22, r24
	int ret;

	ret = 0;
	_uart_interrupt_status = SREG;
     b42:	1f b7       	in	r17, 0x3f	; 63
     b44:	10 93 29 01 	sts	0x0129, r17
	cli();
     b48:	f8 94       	cli

	if( !RingPut(&__uartbuf, c) ){
     b4a:	80 e2       	ldi	r24, 0x20	; 32
     b4c:	91 e0       	ldi	r25, 0x01	; 1
     b4e:	33 df       	rcall	.-410    	; 0x9b6 <RingPut>
     b50:	89 2b       	or	r24, r25
     b52:	19 f4       	brne	.+6      	; 0xb5a <uart_buf_putchar+0x1c>
     b54:	2f ef       	ldi	r18, 0xFF	; 255
     b56:	3f ef       	ldi	r19, 0xFF	; 255
     b58:	02 c0       	rjmp	.+4      	; 0xb5e <uart_buf_putchar+0x20>
     b5a:	20 e0       	ldi	r18, 0x00	; 0
     b5c:	30 e0       	ldi	r19, 0x00	; 0
		ret = -1;	// Buffer Full
	}
	start_uart_tx_interrupt();
     b5e:	80 91 c1 00 	lds	r24, 0x00C1
     b62:	80 62       	ori	r24, 0x20	; 32
     b64:	80 93 c1 00 	sts	0x00C1, r24

	SREG = _uart_interrupt_status;
     b68:	1f bf       	out	0x3f, r17	; 63

	return ret;
}
     b6a:	c9 01       	movw	r24, r18
     b6c:	1f 91       	pop	r17
     b6e:	08 95       	ret

00000b70 <__vector_19>:

ISR(USART_UDRE_vect)
{
     b70:	1f 92       	push	r1
     b72:	0f 92       	push	r0
     b74:	0f b6       	in	r0, 0x3f	; 63
     b76:	0f 92       	push	r0
     b78:	11 24       	eor	r1, r1
     b7a:	2f 93       	push	r18
     b7c:	3f 93       	push	r19
     b7e:	4f 93       	push	r20
     b80:	5f 93       	push	r21
     b82:	6f 93       	push	r22
     b84:	7f 93       	push	r23
     b86:	8f 93       	push	r24
     b88:	9f 93       	push	r25
     b8a:	af 93       	push	r26
     b8c:	bf 93       	push	r27
     b8e:	ef 93       	push	r30
     b90:	ff 93       	push	r31
     b92:	df 93       	push	r29
     b94:	cf 93       	push	r28
     b96:	0f 92       	push	r0
     b98:	cd b7       	in	r28, 0x3d	; 61
     b9a:	de b7       	in	r29, 0x3e	; 62
	unsigned char c;

	if( RingGet(&__uartbuf, &c) ){
     b9c:	80 e2       	ldi	r24, 0x20	; 32
     b9e:	91 e0       	ldi	r25, 0x01	; 1
     ba0:	be 01       	movw	r22, r28
     ba2:	6f 5f       	subi	r22, 0xFF	; 255
     ba4:	7f 4f       	sbci	r23, 0xFF	; 255
     ba6:	2d df       	rcall	.-422    	; 0xa02 <RingGet>
     ba8:	89 2b       	or	r24, r25
     baa:	21 f0       	breq	.+8      	; 0xbb4 <__vector_19+0x44>
		UDR0 = c;
     bac:	89 81       	ldd	r24, Y+1	; 0x01
     bae:	80 93 c6 00 	sts	0x00C6, r24
     bb2:	05 c0       	rjmp	.+10     	; 0xbbe <__vector_19+0x4e>
		cbi(UCSR0A,UDRE0);			// UDREクリア
	}else{
		stop_uart_tx_interrupt();
     bb4:	80 91 c1 00 	lds	r24, 0x00C1
     bb8:	8f 7d       	andi	r24, 0xDF	; 223
     bba:	80 93 c1 00 	sts	0x00C1, r24
		cbi(UCSR0A,UDRE0);
     bbe:	80 91 c0 00 	lds	r24, 0x00C0
     bc2:	8f 7d       	andi	r24, 0xDF	; 223
     bc4:	80 93 c0 00 	sts	0x00C0, r24
	}
}
     bc8:	0f 90       	pop	r0
     bca:	cf 91       	pop	r28
     bcc:	df 91       	pop	r29
     bce:	ff 91       	pop	r31
     bd0:	ef 91       	pop	r30
     bd2:	bf 91       	pop	r27
     bd4:	af 91       	pop	r26
     bd6:	9f 91       	pop	r25
     bd8:	8f 91       	pop	r24
     bda:	7f 91       	pop	r23
     bdc:	6f 91       	pop	r22
     bde:	5f 91       	pop	r21
     be0:	4f 91       	pop	r20
     be2:	3f 91       	pop	r19
     be4:	2f 91       	pop	r18
     be6:	0f 90       	pop	r0
     be8:	0f be       	out	0x3f, r0	; 63
     bea:	0f 90       	pop	r0
     bec:	1f 90       	pop	r1
     bee:	18 95       	reti

00000bf0 <MakeNunchukRCData>:
#include "nunchuk.h"
#include "rc_nunchuk.h"

void MakeNunchukRCData(union nunchuk_data *rcdata,const union wii_nunchuk *data, unsigned char *analog_data)
{
     bf0:	cf 93       	push	r28
     bf2:	df 93       	push	r29
     bf4:	fc 01       	movw	r30, r24
     bf6:	da 01       	movw	r26, r20
	rcdata->detail.Button.C				= data->detail.Button.C ^ 1;	//Button C
     bf8:	eb 01       	movw	r28, r22
     bfa:	8d 81       	ldd	r24, Y+5	; 0x05
     bfc:	86 95       	lsr	r24
     bfe:	81 70       	andi	r24, 0x01	; 1
     c00:	41 e0       	ldi	r20, 0x01	; 1
     c02:	84 27       	eor	r24, r20
     c04:	82 95       	swap	r24
     c06:	88 0f       	add	r24, r24
     c08:	88 0f       	add	r24, r24
     c0a:	80 7c       	andi	r24, 0xC0	; 192
     c0c:	90 81       	ld	r25, Z
     c0e:	9f 7b       	andi	r25, 0xBF	; 191
     c10:	98 2b       	or	r25, r24
     c12:	90 83       	st	Z, r25
	rcdata->detail.Button.Z				= data->detail.Button.Z ^ 1;	//Button Z
     c14:	8d 81       	ldd	r24, Y+5	; 0x05
     c16:	84 27       	eor	r24, r20
     c18:	87 95       	ror	r24
     c1a:	88 27       	eor	r24, r24
     c1c:	87 95       	ror	r24
     c1e:	9f 77       	andi	r25, 0x7F	; 127
     c20:	98 2b       	or	r25, r24
     c22:	90 83       	st	Z, r25
	rcdata->detail.Acceleration.X		= analog_data[0] & 0x07;		//acceleration axis:X
     c24:	9c 91       	ld	r25, X
     c26:	97 70       	andi	r25, 0x07	; 7
     c28:	99 0f       	add	r25, r25
     c2a:	99 0f       	add	r25, r25
     c2c:	99 0f       	add	r25, r25
     c2e:	82 81       	ldd	r24, Z+2	; 0x02
     c30:	87 7c       	andi	r24, 0xC7	; 199
     c32:	89 2b       	or	r24, r25
     c34:	82 83       	std	Z+2, r24	; 0x02
	rcdata->detail.Acceleration.Y		= analog_data[1] & 0x07;		//acceleration axis:Y
     c36:	11 96       	adiw	r26, 0x01	; 1
     c38:	9c 91       	ld	r25, X
     c3a:	11 97       	sbiw	r26, 0x01	; 1
     c3c:	97 70       	andi	r25, 0x07	; 7
     c3e:	88 7f       	andi	r24, 0xF8	; 248
     c40:	89 2b       	or	r24, r25
     c42:	82 83       	std	Z+2, r24	; 0x02
	rcdata->detail.Acceleration.Z		= analog_data[2] & 0x03;		//acceleration axis:Z
     c44:	12 96       	adiw	r26, 0x02	; 2
     c46:	9c 91       	ld	r25, X
     c48:	12 97       	sbiw	r26, 0x02	; 2
     c4a:	92 95       	swap	r25
     c4c:	99 0f       	add	r25, r25
     c4e:	99 0f       	add	r25, r25
     c50:	90 7c       	andi	r25, 0xC0	; 192
     c52:	8f 73       	andi	r24, 0x3F	; 63
     c54:	89 2b       	or	r24, r25
     c56:	82 83       	std	Z+2, r24	; 0x02
	rcdata->detail.Analog.X				=(   analog_data[3]) & 0x0f;	//analog stick axix:X
     c58:	13 96       	adiw	r26, 0x03	; 3
     c5a:	9c 91       	ld	r25, X
     c5c:	13 97       	sbiw	r26, 0x03	; 3
     c5e:	92 95       	swap	r25
     c60:	90 7f       	andi	r25, 0xF0	; 240
     c62:	81 81       	ldd	r24, Z+1	; 0x01
     c64:	8f 70       	andi	r24, 0x0F	; 15
     c66:	89 2b       	or	r24, r25
     c68:	81 83       	std	Z+1, r24	; 0x01
	rcdata->detail.Analog.Y				=(14-analog_data[4]) & 0x0f;	//analog stick axix:Y
     c6a:	9e e0       	ldi	r25, 0x0E	; 14
     c6c:	14 96       	adiw	r26, 0x04	; 4
     c6e:	2c 91       	ld	r18, X
     c70:	92 1b       	sub	r25, r18
     c72:	9f 70       	andi	r25, 0x0F	; 15
     c74:	80 7f       	andi	r24, 0xF0	; 240
     c76:	89 2b       	or	r24, r25
     c78:	81 83       	std	Z+1, r24	; 0x01
}
     c7a:	df 91       	pop	r29
     c7c:	cf 91       	pop	r28
     c7e:	08 95       	ret

00000c80 <get_nunchuk_analog>:

void get_nunchuk_analog( const union wii_nunchuk *data , unsigned char *analog_data)
{
     c80:	9f 92       	push	r9
     c82:	af 92       	push	r10
     c84:	bf 92       	push	r11
     c86:	cf 92       	push	r12
     c88:	df 92       	push	r13
     c8a:	ef 92       	push	r14
     c8c:	ff 92       	push	r15
     c8e:	0f 93       	push	r16
     c90:	1f 93       	push	r17
     c92:	cf 93       	push	r28
     c94:	df 93       	push	r29
     c96:	fc 01       	movw	r30, r24
     c98:	eb 01       	movw	r28, r22
	int i;
	analog_data[0] = (unsigned char)GetAnalogueX( data );				//analog stick axix:X
     c9a:	80 81       	ld	r24, Z
     c9c:	88 83       	st	Y, r24
	analog_data[1] = (unsigned char)GetAnalogueY( data );				//analog stick axis:Y
     c9e:	81 81       	ldd	r24, Z+1	; 0x01
     ca0:	89 83       	std	Y+1, r24	; 0x01
	analog_data[2] = (unsigned char)GetXacceleration( data )>>4;		//acceleration axis:X
     ca2:	82 81       	ldd	r24, Z+2	; 0x02
     ca4:	82 95       	swap	r24
     ca6:	8f 70       	andi	r24, 0x0F	; 15
     ca8:	8a 83       	std	Y+2, r24	; 0x02
	analog_data[3] = (unsigned char)GetYacceleration( data )>>4;		//acceleration axis:Y
     caa:	83 81       	ldd	r24, Z+3	; 0x03
     cac:	82 95       	swap	r24
     cae:	8f 70       	andi	r24, 0x0F	; 15
     cb0:	8b 83       	std	Y+3, r24	; 0x03
	analog_data[4] = (unsigned char)GetZacceleration( data )>>4;		//acceleration axis:Z
     cb2:	84 81       	ldd	r24, Z+4	; 0x04
     cb4:	82 95       	swap	r24
     cb6:	8f 70       	andi	r24, 0x0F	; 15
     cb8:	8c 83       	std	Y+4, r24	; 0x04
     cba:	db 01       	movw	r26, r22
     cbc:	fb 01       	movw	r30, r22
     cbe:	20 e0       	ldi	r18, 0x00	; 0
     cc0:	30 e0       	ldi	r19, 0x00	; 0
		else if(analog_data[i]<=195) analog_data[i] = 0x09;
		else if(analog_data[i]<=200) analog_data[i] = 0x0A;
		else if(analog_data[i]<=205) analog_data[i] = 0x0B;
		else if(analog_data[i]<=210) analog_data[i] = 0x0C;
		else if(analog_data[i]<=215) analog_data[i] = 0x0D;
		else if(analog_data[i]>=218) analog_data[i] = 0x0E;
     cc2:	1e e0       	ldi	r17, 0x0E	; 14
     cc4:	91 2e       	mov	r9, r17
		else if(analog_data[i]<=190) analog_data[i] = 0x08;
		else if(analog_data[i]<=195) analog_data[i] = 0x09;
		else if(analog_data[i]<=200) analog_data[i] = 0x0A;
		else if(analog_data[i]<=205) analog_data[i] = 0x0B;
		else if(analog_data[i]<=210) analog_data[i] = 0x0C;
		else if(analog_data[i]<=215) analog_data[i] = 0x0D;
     cc6:	7d e0       	ldi	r23, 0x0D	; 13
     cc8:	a7 2e       	mov	r10, r23
		else if(analog_data[i]<=135) analog_data[i] = 0x07;
		else if(analog_data[i]<=190) analog_data[i] = 0x08;
		else if(analog_data[i]<=195) analog_data[i] = 0x09;
		else if(analog_data[i]<=200) analog_data[i] = 0x0A;
		else if(analog_data[i]<=205) analog_data[i] = 0x0B;
		else if(analog_data[i]<=210) analog_data[i] = 0x0C;
     cca:	6c e0       	ldi	r22, 0x0C	; 12
     ccc:	b6 2e       	mov	r11, r22
		else if(analog_data[i]<=125) analog_data[i] = 0x06;
		else if(analog_data[i]<=135) analog_data[i] = 0x07;
		else if(analog_data[i]<=190) analog_data[i] = 0x08;
		else if(analog_data[i]<=195) analog_data[i] = 0x09;
		else if(analog_data[i]<=200) analog_data[i] = 0x0A;
		else if(analog_data[i]<=205) analog_data[i] = 0x0B;
     cce:	5b e0       	ldi	r21, 0x0B	; 11
     cd0:	c5 2e       	mov	r12, r21
		else if(analog_data[i]<=115) analog_data[i] = 0x05;
		else if(analog_data[i]<=125) analog_data[i] = 0x06;
		else if(analog_data[i]<=135) analog_data[i] = 0x07;
		else if(analog_data[i]<=190) analog_data[i] = 0x08;
		else if(analog_data[i]<=195) analog_data[i] = 0x09;
		else if(analog_data[i]<=200) analog_data[i] = 0x0A;
     cd2:	4a e0       	ldi	r20, 0x0A	; 10
     cd4:	d4 2e       	mov	r13, r20
		else if(analog_data[i]<=105) analog_data[i] = 0x04;
		else if(analog_data[i]<=115) analog_data[i] = 0x05;
		else if(analog_data[i]<=125) analog_data[i] = 0x06;
		else if(analog_data[i]<=135) analog_data[i] = 0x07;
		else if(analog_data[i]<=190) analog_data[i] = 0x08;
		else if(analog_data[i]<=195) analog_data[i] = 0x09;
     cd6:	99 e0       	ldi	r25, 0x09	; 9
     cd8:	e9 2e       	mov	r14, r25
		else if(analog_data[i]<= 95) analog_data[i] = 0x03;
		else if(analog_data[i]<=105) analog_data[i] = 0x04;
		else if(analog_data[i]<=115) analog_data[i] = 0x05;
		else if(analog_data[i]<=125) analog_data[i] = 0x06;
		else if(analog_data[i]<=135) analog_data[i] = 0x07;
		else if(analog_data[i]<=190) analog_data[i] = 0x08;
     cda:	88 e0       	ldi	r24, 0x08	; 8
     cdc:	f8 2e       	mov	r15, r24
		else if(analog_data[i]<= 85) analog_data[i] = 0x02;
		else if(analog_data[i]<= 95) analog_data[i] = 0x03;
		else if(analog_data[i]<=105) analog_data[i] = 0x04;
		else if(analog_data[i]<=115) analog_data[i] = 0x05;
		else if(analog_data[i]<=125) analog_data[i] = 0x06;
		else if(analog_data[i]<=135) analog_data[i] = 0x07;
     cde:	07 e0       	ldi	r16, 0x07	; 7
		else if(analog_data[i]<= 75) analog_data[i] = 0x01;
		else if(analog_data[i]<= 85) analog_data[i] = 0x02;
		else if(analog_data[i]<= 95) analog_data[i] = 0x03;
		else if(analog_data[i]<=105) analog_data[i] = 0x04;
		else if(analog_data[i]<=115) analog_data[i] = 0x05;
		else if(analog_data[i]<=125) analog_data[i] = 0x06;
     ce0:	16 e0       	ldi	r17, 0x06	; 6
		     if(analog_data[i]<= 65) analog_data[i] = 0x00;
		else if(analog_data[i]<= 75) analog_data[i] = 0x01;
		else if(analog_data[i]<= 85) analog_data[i] = 0x02;
		else if(analog_data[i]<= 95) analog_data[i] = 0x03;
		else if(analog_data[i]<=105) analog_data[i] = 0x04;
		else if(analog_data[i]<=115) analog_data[i] = 0x05;
     ce2:	75 e0       	ldi	r23, 0x05	; 5
	for(i=0; i<=1; i++){
		     if(analog_data[i]<= 65) analog_data[i] = 0x00;
		else if(analog_data[i]<= 75) analog_data[i] = 0x01;
		else if(analog_data[i]<= 85) analog_data[i] = 0x02;
		else if(analog_data[i]<= 95) analog_data[i] = 0x03;
		else if(analog_data[i]<=105) analog_data[i] = 0x04;
     ce4:	64 e0       	ldi	r22, 0x04	; 4
	analog_data[4] = (unsigned char)GetZacceleration( data )>>4;		//acceleration axis:Z
	for(i=0; i<=1; i++){
		     if(analog_data[i]<= 65) analog_data[i] = 0x00;
		else if(analog_data[i]<= 75) analog_data[i] = 0x01;
		else if(analog_data[i]<= 85) analog_data[i] = 0x02;
		else if(analog_data[i]<= 95) analog_data[i] = 0x03;
     ce6:	53 e0       	ldi	r21, 0x03	; 3
	analog_data[3] = (unsigned char)GetYacceleration( data )>>4;		//acceleration axis:Y
	analog_data[4] = (unsigned char)GetZacceleration( data )>>4;		//acceleration axis:Z
	for(i=0; i<=1; i++){
		     if(analog_data[i]<= 65) analog_data[i] = 0x00;
		else if(analog_data[i]<= 75) analog_data[i] = 0x01;
		else if(analog_data[i]<= 85) analog_data[i] = 0x02;
     ce8:	42 e0       	ldi	r20, 0x02	; 2
	analog_data[2] = (unsigned char)GetXacceleration( data )>>4;		//acceleration axis:X
	analog_data[3] = (unsigned char)GetYacceleration( data )>>4;		//acceleration axis:Y
	analog_data[4] = (unsigned char)GetZacceleration( data )>>4;		//acceleration axis:Z
	for(i=0; i<=1; i++){
		     if(analog_data[i]<= 65) analog_data[i] = 0x00;
		else if(analog_data[i]<= 75) analog_data[i] = 0x01;
     cea:	91 e0       	ldi	r25, 0x01	; 1
	analog_data[1] = (unsigned char)GetAnalogueY( data );				//analog stick axis:Y
	analog_data[2] = (unsigned char)GetXacceleration( data )>>4;		//acceleration axis:X
	analog_data[3] = (unsigned char)GetYacceleration( data )>>4;		//acceleration axis:Y
	analog_data[4] = (unsigned char)GetZacceleration( data )>>4;		//acceleration axis:Z
	for(i=0; i<=1; i++){
		     if(analog_data[i]<= 65) analog_data[i] = 0x00;
     cec:	80 81       	ld	r24, Z
     cee:	82 34       	cpi	r24, 0x42	; 66
     cf0:	10 f4       	brcc	.+4      	; 0xcf6 <get_nunchuk_analog+0x76>
     cf2:	10 82       	st	Z, r1
     cf4:	37 c0       	rjmp	.+110    	; 0xd64 <get_nunchuk_analog+0xe4>
		else if(analog_data[i]<= 75) analog_data[i] = 0x01;
     cf6:	8c 34       	cpi	r24, 0x4C	; 76
     cf8:	10 f4       	brcc	.+4      	; 0xcfe <get_nunchuk_analog+0x7e>
     cfa:	90 83       	st	Z, r25
     cfc:	33 c0       	rjmp	.+102    	; 0xd64 <get_nunchuk_analog+0xe4>
		else if(analog_data[i]<= 85) analog_data[i] = 0x02;
     cfe:	86 35       	cpi	r24, 0x56	; 86
     d00:	10 f4       	brcc	.+4      	; 0xd06 <get_nunchuk_analog+0x86>
     d02:	40 83       	st	Z, r20
     d04:	2f c0       	rjmp	.+94     	; 0xd64 <get_nunchuk_analog+0xe4>
		else if(analog_data[i]<= 95) analog_data[i] = 0x03;
     d06:	80 36       	cpi	r24, 0x60	; 96
     d08:	10 f4       	brcc	.+4      	; 0xd0e <get_nunchuk_analog+0x8e>
     d0a:	50 83       	st	Z, r21
     d0c:	2b c0       	rjmp	.+86     	; 0xd64 <get_nunchuk_analog+0xe4>
		else if(analog_data[i]<=105) analog_data[i] = 0x04;
     d0e:	8a 36       	cpi	r24, 0x6A	; 106
     d10:	10 f4       	brcc	.+4      	; 0xd16 <get_nunchuk_analog+0x96>
     d12:	60 83       	st	Z, r22
     d14:	27 c0       	rjmp	.+78     	; 0xd64 <get_nunchuk_analog+0xe4>
		else if(analog_data[i]<=115) analog_data[i] = 0x05;
     d16:	84 37       	cpi	r24, 0x74	; 116
     d18:	10 f4       	brcc	.+4      	; 0xd1e <get_nunchuk_analog+0x9e>
     d1a:	70 83       	st	Z, r23
     d1c:	23 c0       	rjmp	.+70     	; 0xd64 <get_nunchuk_analog+0xe4>
		else if(analog_data[i]<=125) analog_data[i] = 0x06;
     d1e:	8e 37       	cpi	r24, 0x7E	; 126
     d20:	10 f4       	brcc	.+4      	; 0xd26 <get_nunchuk_analog+0xa6>
     d22:	10 83       	st	Z, r17
     d24:	1f c0       	rjmp	.+62     	; 0xd64 <get_nunchuk_analog+0xe4>
		else if(analog_data[i]<=135) analog_data[i] = 0x07;
     d26:	88 38       	cpi	r24, 0x88	; 136
     d28:	10 f4       	brcc	.+4      	; 0xd2e <get_nunchuk_analog+0xae>
     d2a:	00 83       	st	Z, r16
     d2c:	1b c0       	rjmp	.+54     	; 0xd64 <get_nunchuk_analog+0xe4>
		else if(analog_data[i]<=190) analog_data[i] = 0x08;
     d2e:	8f 3b       	cpi	r24, 0xBF	; 191
     d30:	10 f4       	brcc	.+4      	; 0xd36 <get_nunchuk_analog+0xb6>
     d32:	f0 82       	st	Z, r15
     d34:	17 c0       	rjmp	.+46     	; 0xd64 <get_nunchuk_analog+0xe4>
		else if(analog_data[i]<=195) analog_data[i] = 0x09;
     d36:	84 3c       	cpi	r24, 0xC4	; 196
     d38:	10 f4       	brcc	.+4      	; 0xd3e <get_nunchuk_analog+0xbe>
     d3a:	e0 82       	st	Z, r14
     d3c:	13 c0       	rjmp	.+38     	; 0xd64 <get_nunchuk_analog+0xe4>
		else if(analog_data[i]<=200) analog_data[i] = 0x0A;
     d3e:	89 3c       	cpi	r24, 0xC9	; 201
     d40:	10 f4       	brcc	.+4      	; 0xd46 <get_nunchuk_analog+0xc6>
     d42:	d0 82       	st	Z, r13
     d44:	0f c0       	rjmp	.+30     	; 0xd64 <get_nunchuk_analog+0xe4>
		else if(analog_data[i]<=205) analog_data[i] = 0x0B;
     d46:	8e 3c       	cpi	r24, 0xCE	; 206
     d48:	10 f4       	brcc	.+4      	; 0xd4e <get_nunchuk_analog+0xce>
     d4a:	c0 82       	st	Z, r12
     d4c:	0b c0       	rjmp	.+22     	; 0xd64 <get_nunchuk_analog+0xe4>
		else if(analog_data[i]<=210) analog_data[i] = 0x0C;
     d4e:	83 3d       	cpi	r24, 0xD3	; 211
     d50:	10 f4       	brcc	.+4      	; 0xd56 <get_nunchuk_analog+0xd6>
     d52:	b0 82       	st	Z, r11
     d54:	07 c0       	rjmp	.+14     	; 0xd64 <get_nunchuk_analog+0xe4>
		else if(analog_data[i]<=215) analog_data[i] = 0x0D;
     d56:	88 3d       	cpi	r24, 0xD8	; 216
     d58:	10 f4       	brcc	.+4      	; 0xd5e <get_nunchuk_analog+0xde>
     d5a:	a0 82       	st	Z, r10
     d5c:	03 c0       	rjmp	.+6      	; 0xd64 <get_nunchuk_analog+0xe4>
		else if(analog_data[i]>=218) analog_data[i] = 0x0E;
     d5e:	8a 3d       	cpi	r24, 0xDA	; 218
     d60:	08 f0       	brcs	.+2      	; 0xd64 <get_nunchuk_analog+0xe4>
     d62:	90 82       	st	Z, r9
	analog_data[0] = (unsigned char)GetAnalogueX( data );				//analog stick axix:X
	analog_data[1] = (unsigned char)GetAnalogueY( data );				//analog stick axis:Y
	analog_data[2] = (unsigned char)GetXacceleration( data )>>4;		//acceleration axis:X
	analog_data[3] = (unsigned char)GetYacceleration( data )>>4;		//acceleration axis:Y
	analog_data[4] = (unsigned char)GetZacceleration( data )>>4;		//acceleration axis:Z
	for(i=0; i<=1; i++){
     d64:	2f 5f       	subi	r18, 0xFF	; 255
     d66:	3f 4f       	sbci	r19, 0xFF	; 255
     d68:	31 96       	adiw	r30, 0x01	; 1
     d6a:	22 30       	cpi	r18, 0x02	; 2
     d6c:	31 05       	cpc	r19, r1
     d6e:	09 f0       	breq	.+2      	; 0xd72 <get_nunchuk_analog+0xf2>
     d70:	bd cf       	rjmp	.-134    	; 0xcec <get_nunchuk_analog+0x6c>
		else if(analog_data[i]<=  6) analog_data[i] = 0x02;
		else if(analog_data[i]<=  7) analog_data[i] = 0x03;
		else if(analog_data[i]<=  8) analog_data[i] = 0x04;
		else if(analog_data[i]<=  9) analog_data[i] = 0x05;
		else if(analog_data[i]<= 10) analog_data[i] = 0x06;
		else if(analog_data[i]>  10) analog_data[i] = 0x07;
     d72:	f7 e0       	ldi	r31, 0x07	; 7
		else if(analog_data[i]<=  5) analog_data[i] = 0x01;
		else if(analog_data[i]<=  6) analog_data[i] = 0x02;
		else if(analog_data[i]<=  7) analog_data[i] = 0x03;
		else if(analog_data[i]<=  8) analog_data[i] = 0x04;
		else if(analog_data[i]<=  9) analog_data[i] = 0x05;
		else if(analog_data[i]<= 10) analog_data[i] = 0x06;
     d74:	e6 e0       	ldi	r30, 0x06	; 6
			 if(analog_data[i]<   4) analog_data[i] = 0x00;
		else if(analog_data[i]<=  5) analog_data[i] = 0x01;
		else if(analog_data[i]<=  6) analog_data[i] = 0x02;
		else if(analog_data[i]<=  7) analog_data[i] = 0x03;
		else if(analog_data[i]<=  8) analog_data[i] = 0x04;
		else if(analog_data[i]<=  9) analog_data[i] = 0x05;
     d76:	75 e0       	ldi	r23, 0x05	; 5
	for(i=2;i<=3;i++){
			 if(analog_data[i]<   4) analog_data[i] = 0x00;
		else if(analog_data[i]<=  5) analog_data[i] = 0x01;
		else if(analog_data[i]<=  6) analog_data[i] = 0x02;
		else if(analog_data[i]<=  7) analog_data[i] = 0x03;
		else if(analog_data[i]<=  8) analog_data[i] = 0x04;
     d78:	64 e0       	ldi	r22, 0x04	; 4
	}
	for(i=2;i<=3;i++){
			 if(analog_data[i]<   4) analog_data[i] = 0x00;
		else if(analog_data[i]<=  5) analog_data[i] = 0x01;
		else if(analog_data[i]<=  6) analog_data[i] = 0x02;
		else if(analog_data[i]<=  7) analog_data[i] = 0x03;
     d7a:	53 e0       	ldi	r21, 0x03	; 3
		else if(analog_data[i]>=218) analog_data[i] = 0x0E;
	}
	for(i=2;i<=3;i++){
			 if(analog_data[i]<   4) analog_data[i] = 0x00;
		else if(analog_data[i]<=  5) analog_data[i] = 0x01;
		else if(analog_data[i]<=  6) analog_data[i] = 0x02;
     d7c:	42 e0       	ldi	r20, 0x02	; 2
		else if(analog_data[i]<=215) analog_data[i] = 0x0D;
		else if(analog_data[i]>=218) analog_data[i] = 0x0E;
	}
	for(i=2;i<=3;i++){
			 if(analog_data[i]<   4) analog_data[i] = 0x00;
		else if(analog_data[i]<=  5) analog_data[i] = 0x01;
     d7e:	91 e0       	ldi	r25, 0x01	; 1
		else if(analog_data[i]<=210) analog_data[i] = 0x0C;
		else if(analog_data[i]<=215) analog_data[i] = 0x0D;
		else if(analog_data[i]>=218) analog_data[i] = 0x0E;
	}
	for(i=2;i<=3;i++){
			 if(analog_data[i]<   4) analog_data[i] = 0x00;
     d80:	12 96       	adiw	r26, 0x02	; 2
     d82:	8c 91       	ld	r24, X
     d84:	12 97       	sbiw	r26, 0x02	; 2
     d86:	84 30       	cpi	r24, 0x04	; 4
     d88:	20 f4       	brcc	.+8      	; 0xd92 <get_nunchuk_analog+0x112>
     d8a:	12 96       	adiw	r26, 0x02	; 2
     d8c:	1c 92       	st	X, r1
     d8e:	12 97       	sbiw	r26, 0x02	; 2
     d90:	27 c0       	rjmp	.+78     	; 0xde0 <get_nunchuk_analog+0x160>
		else if(analog_data[i]<=  5) analog_data[i] = 0x01;
     d92:	86 30       	cpi	r24, 0x06	; 6
     d94:	20 f4       	brcc	.+8      	; 0xd9e <get_nunchuk_analog+0x11e>
     d96:	12 96       	adiw	r26, 0x02	; 2
     d98:	9c 93       	st	X, r25
     d9a:	12 97       	sbiw	r26, 0x02	; 2
     d9c:	21 c0       	rjmp	.+66     	; 0xde0 <get_nunchuk_analog+0x160>
		else if(analog_data[i]<=  6) analog_data[i] = 0x02;
     d9e:	86 30       	cpi	r24, 0x06	; 6
     da0:	21 f4       	brne	.+8      	; 0xdaa <get_nunchuk_analog+0x12a>
     da2:	12 96       	adiw	r26, 0x02	; 2
     da4:	4c 93       	st	X, r20
     da6:	12 97       	sbiw	r26, 0x02	; 2
     da8:	1b c0       	rjmp	.+54     	; 0xde0 <get_nunchuk_analog+0x160>
		else if(analog_data[i]<=  7) analog_data[i] = 0x03;
     daa:	87 30       	cpi	r24, 0x07	; 7
     dac:	21 f4       	brne	.+8      	; 0xdb6 <get_nunchuk_analog+0x136>
     dae:	12 96       	adiw	r26, 0x02	; 2
     db0:	5c 93       	st	X, r21
     db2:	12 97       	sbiw	r26, 0x02	; 2
     db4:	15 c0       	rjmp	.+42     	; 0xde0 <get_nunchuk_analog+0x160>
		else if(analog_data[i]<=  8) analog_data[i] = 0x04;
     db6:	88 30       	cpi	r24, 0x08	; 8
     db8:	21 f4       	brne	.+8      	; 0xdc2 <get_nunchuk_analog+0x142>
     dba:	12 96       	adiw	r26, 0x02	; 2
     dbc:	6c 93       	st	X, r22
     dbe:	12 97       	sbiw	r26, 0x02	; 2
     dc0:	0f c0       	rjmp	.+30     	; 0xde0 <get_nunchuk_analog+0x160>
		else if(analog_data[i]<=  9) analog_data[i] = 0x05;
     dc2:	89 30       	cpi	r24, 0x09	; 9
     dc4:	21 f4       	brne	.+8      	; 0xdce <get_nunchuk_analog+0x14e>
     dc6:	12 96       	adiw	r26, 0x02	; 2
     dc8:	7c 93       	st	X, r23
     dca:	12 97       	sbiw	r26, 0x02	; 2
     dcc:	09 c0       	rjmp	.+18     	; 0xde0 <get_nunchuk_analog+0x160>
		else if(analog_data[i]<= 10) analog_data[i] = 0x06;
     dce:	8a 30       	cpi	r24, 0x0A	; 10
     dd0:	21 f4       	brne	.+8      	; 0xdda <get_nunchuk_analog+0x15a>
     dd2:	12 96       	adiw	r26, 0x02	; 2
     dd4:	ec 93       	st	X, r30
     dd6:	12 97       	sbiw	r26, 0x02	; 2
     dd8:	03 c0       	rjmp	.+6      	; 0xde0 <get_nunchuk_analog+0x160>
		else if(analog_data[i]>  10) analog_data[i] = 0x07;
     dda:	12 96       	adiw	r26, 0x02	; 2
     ddc:	fc 93       	st	X, r31
     dde:	12 97       	sbiw	r26, 0x02	; 2
		else if(analog_data[i]<=205) analog_data[i] = 0x0B;
		else if(analog_data[i]<=210) analog_data[i] = 0x0C;
		else if(analog_data[i]<=215) analog_data[i] = 0x0D;
		else if(analog_data[i]>=218) analog_data[i] = 0x0E;
	}
	for(i=2;i<=3;i++){
     de0:	2f 5f       	subi	r18, 0xFF	; 255
     de2:	3f 4f       	sbci	r19, 0xFF	; 255
     de4:	11 96       	adiw	r26, 0x01	; 1
     de6:	24 30       	cpi	r18, 0x04	; 4
     de8:	31 05       	cpc	r19, r1
     dea:	51 f6       	brne	.-108    	; 0xd80 <get_nunchuk_analog+0x100>
		else if(analog_data[i]<=  9) analog_data[i] = 0x05;
		else if(analog_data[i]<= 10) analog_data[i] = 0x06;
		else if(analog_data[i]>  10) analog_data[i] = 0x07;
	}
	for(i=4;i==4;i++){
			 if(analog_data[i]<   5) analog_data[i] = 0x00;
     dec:	8c 81       	ldd	r24, Y+4	; 0x04
     dee:	85 30       	cpi	r24, 0x05	; 5
     df0:	10 f4       	brcc	.+4      	; 0xdf6 <get_nunchuk_analog+0x176>
     df2:	1c 82       	std	Y+4, r1	; 0x04
     df4:	0a c0       	rjmp	.+20     	; 0xe0a <get_nunchuk_analog+0x18a>
		else if(analog_data[i]<=  7) analog_data[i] = 0x01;
     df6:	88 30       	cpi	r24, 0x08	; 8
     df8:	10 f4       	brcc	.+4      	; 0xdfe <get_nunchuk_analog+0x17e>
     dfa:	81 e0       	ldi	r24, 0x01	; 1
     dfc:	05 c0       	rjmp	.+10     	; 0xe08 <get_nunchuk_analog+0x188>
		else if(analog_data[i]<   9) analog_data[i] = 0x02;
     dfe:	88 30       	cpi	r24, 0x08	; 8
     e00:	11 f4       	brne	.+4      	; 0xe06 <get_nunchuk_analog+0x186>
     e02:	82 e0       	ldi	r24, 0x02	; 2
     e04:	01 c0       	rjmp	.+2      	; 0xe08 <get_nunchuk_analog+0x188>
		else if(analog_data[i]>=  9) analog_data[i] = 0x03;
     e06:	83 e0       	ldi	r24, 0x03	; 3
     e08:	8c 83       	std	Y+4, r24	; 0x04
	}
}
     e0a:	df 91       	pop	r29
     e0c:	cf 91       	pop	r28
     e0e:	1f 91       	pop	r17
     e10:	0f 91       	pop	r16
     e12:	ff 90       	pop	r15
     e14:	ef 90       	pop	r14
     e16:	df 90       	pop	r13
     e18:	cf 90       	pop	r12
     e1a:	bf 90       	pop	r11
     e1c:	af 90       	pop	r10
     e1e:	9f 90       	pop	r9
     e20:	08 95       	ret

00000e22 <MU2_SetTxHandler>:
static unsigned char phase = 0;
static          char rx_buf[MU2_RX_BUF_SIZE];
static unsigned char rx_count;
static unsigned char i;

__inline__ void MU2_SetTxHandler(int (*fp)(unsigned char)){__mu2_tx_char=fp;}
     e22:	90 93 ae 01 	sts	0x01AE, r25
     e26:	80 93 ad 01 	sts	0x01AD, r24
     e2a:	08 95       	ret

00000e2c <MU2_SetRxHandler>:
__inline__ void MU2_SetRxHandler(int (*fp)(unsigned char *)){__mu2_rx_char=fp;}
     e2c:	90 93 b3 01 	sts	0x01B3, r25
     e30:	80 93 b2 01 	sts	0x01B2, r24
     e34:	08 95       	ret

00000e36 <MU2_TxChar>:
__inline__ int MU2_TxChar(unsigned char c){ return (*__mu2_tx_char)(c);	}
     e36:	e0 91 ad 01 	lds	r30, 0x01AD
     e3a:	f0 91 ae 01 	lds	r31, 0x01AE
     e3e:	09 95       	icall
     e40:	08 95       	ret

00000e42 <MU2_RxChar>:
__inline__ int MU2_RxChar(unsigned char *c){ return (*__mu2_rx_char)(c); }
     e42:	e0 91 b2 01 	lds	r30, 0x01B2
     e46:	f0 91 b3 01 	lds	r31, 0x01B3
     e4a:	09 95       	icall
     e4c:	08 95       	ret

00000e4e <Byte2Str>:


static __inline__ void Byte2Str(unsigned char num, char *str)
{
     e4e:	38 2f       	mov	r19, r24
     e50:	fb 01       	movw	r30, r22
	int tmp;

	tmp = (num >> 4) & 0x0F;
     e52:	28 2f       	mov	r18, r24
     e54:	22 95       	swap	r18
     e56:	2f 70       	andi	r18, 0x0F	; 15
	str[0] = tmp + ((tmp > 9) ? ('A'-10) : '0');
     e58:	82 2f       	mov	r24, r18
     e5a:	90 e0       	ldi	r25, 0x00	; 0
     e5c:	0a 97       	sbiw	r24, 0x0a	; 10
     e5e:	14 f4       	brge	.+4      	; 0xe64 <Byte2Str+0x16>
     e60:	80 e3       	ldi	r24, 0x30	; 48
     e62:	01 c0       	rjmp	.+2      	; 0xe66 <Byte2Str+0x18>
     e64:	87 e3       	ldi	r24, 0x37	; 55
     e66:	82 0f       	add	r24, r18
     e68:	80 83       	st	Z, r24
	tmp = num & 0x0F;
     e6a:	83 2f       	mov	r24, r19
     e6c:	90 e0       	ldi	r25, 0x00	; 0
     e6e:	8f 70       	andi	r24, 0x0F	; 15
     e70:	90 70       	andi	r25, 0x00	; 0
	str[1] = tmp + ((tmp > 9) ? ('A'-10) : '0');
     e72:	8a 30       	cpi	r24, 0x0A	; 10
     e74:	91 05       	cpc	r25, r1
     e76:	14 f0       	brlt	.+4      	; 0xe7c <Byte2Str+0x2e>
     e78:	27 e3       	ldi	r18, 0x37	; 55
     e7a:	01 c0       	rjmp	.+2      	; 0xe7e <Byte2Str+0x30>
     e7c:	20 e3       	ldi	r18, 0x30	; 48
     e7e:	28 0f       	add	r18, r24
     e80:	21 83       	std	Z+1, r18	; 0x01
	str[2] = '\0';
     e82:	12 82       	std	Z+2, r1	; 0x02
}
     e84:	08 95       	ret

00000e86 <MU2_CheckCommand>:
	return tmp;
}


int MU2_CheckCommand(char *prefix1, char *prefix2)
{
     e86:	fc 01       	movw	r30, r24
     e88:	db 01       	movw	r26, r22
	if( (prefix1[0] == prefix2[0]) && (prefix1[1] == prefix2[1]) ){
     e8a:	90 81       	ld	r25, Z
     e8c:	8c 91       	ld	r24, X
     e8e:	98 17       	cp	r25, r24
     e90:	41 f4       	brne	.+16     	; 0xea2 <MU2_CheckCommand+0x1c>
     e92:	91 81       	ldd	r25, Z+1	; 0x01
     e94:	11 96       	adiw	r26, 0x01	; 1
     e96:	8c 91       	ld	r24, X
     e98:	98 17       	cp	r25, r24
     e9a:	19 f4       	brne	.+6      	; 0xea2 <MU2_CheckCommand+0x1c>
     e9c:	20 e0       	ldi	r18, 0x00	; 0
     e9e:	30 e0       	ldi	r19, 0x00	; 0
     ea0:	02 c0       	rjmp	.+4      	; 0xea6 <MU2_CheckCommand+0x20>
     ea2:	2f ef       	ldi	r18, 0xFF	; 255
     ea4:	3f ef       	ldi	r19, 0xFF	; 255
		return 0;
	}else{
		return -1;
	}
}
     ea6:	c9 01       	movw	r24, r18
     ea8:	08 95       	ret

00000eaa <MU2_Command>:


int MU2_Command( char *cmd, char *value, unsigned char value_len )
{
     eaa:	ff 92       	push	r15
     eac:	0f 93       	push	r16
     eae:	1f 93       	push	r17
     eb0:	cf 93       	push	r28
     eb2:	df 93       	push	r29
     eb4:	8c 01       	movw	r16, r24
     eb6:	eb 01       	movw	r28, r22
     eb8:	f4 2e       	mov	r15, r20
static unsigned char rx_count;
static unsigned char i;

__inline__ void MU2_SetTxHandler(int (*fp)(unsigned char)){__mu2_tx_char=fp;}
__inline__ void MU2_SetRxHandler(int (*fp)(unsigned char *)){__mu2_rx_char=fp;}
__inline__ int MU2_TxChar(unsigned char c){ return (*__mu2_tx_char)(c);	}
     eba:	e0 91 ad 01 	lds	r30, 0x01AD
     ebe:	f0 91 ae 01 	lds	r31, 0x01AE
     ec2:	80 e4       	ldi	r24, 0x40	; 64
     ec4:	09 95       	icall
	// Command Name
	MU2_TxChar( cmd[0] );
	MU2_TxChar( cmd[1] );

	// Value 1
	while( value_len-- )	MU2_TxChar( *value++ );
     ec6:	e0 91 ad 01 	lds	r30, 0x01AD
     eca:	f0 91 ae 01 	lds	r31, 0x01AE
     ece:	d8 01       	movw	r26, r16
     ed0:	8c 91       	ld	r24, X
     ed2:	09 95       	icall
     ed4:	e0 91 ad 01 	lds	r30, 0x01AD
     ed8:	f0 91 ae 01 	lds	r31, 0x01AE
     edc:	d8 01       	movw	r26, r16
     ede:	11 96       	adiw	r26, 0x01	; 1
     ee0:	8c 91       	ld	r24, X
     ee2:	09 95       	icall
     ee4:	03 c0       	rjmp	.+6      	; 0xeec <MU2_Command+0x42>
     ee6:	89 91       	ld	r24, Y+
     ee8:	09 95       	icall
     eea:	fa 94       	dec	r15
     eec:	e0 91 ad 01 	lds	r30, 0x01AD
     ef0:	f0 91 ae 01 	lds	r31, 0x01AE
     ef4:	ff 20       	and	r15, r15
     ef6:	b9 f7       	brne	.-18     	; 0xee6 <MU2_Command+0x3c>
static unsigned char rx_count;
static unsigned char i;

__inline__ void MU2_SetTxHandler(int (*fp)(unsigned char)){__mu2_tx_char=fp;}
__inline__ void MU2_SetRxHandler(int (*fp)(unsigned char *)){__mu2_rx_char=fp;}
__inline__ int MU2_TxChar(unsigned char c){ return (*__mu2_tx_char)(c);	}
     ef8:	8d e0       	ldi	r24, 0x0D	; 13
     efa:	09 95       	icall

	// Terminator
	MU2_TxChar('\r');	MU2_TxChar('\n');

	return 0;
}
     efc:	e0 91 ad 01 	lds	r30, 0x01AD
     f00:	f0 91 ae 01 	lds	r31, 0x01AE
     f04:	8a e0       	ldi	r24, 0x0A	; 10
     f06:	09 95       	icall
     f08:	80 e0       	ldi	r24, 0x00	; 0
     f0a:	90 e0       	ldi	r25, 0x00	; 0
     f0c:	df 91       	pop	r29
     f0e:	cf 91       	pop	r28
     f10:	1f 91       	pop	r17
     f12:	0f 91       	pop	r16
     f14:	ff 90       	pop	r15
     f16:	08 95       	ret

00000f18 <MU2_Response>:


int MU2_Response(char rx_data,char *prefix, char *value)
{
     f18:	98 2f       	mov	r25, r24
     f1a:	da 01       	movw	r26, r20
    switch(phase){
     f1c:	80 91 2a 01 	lds	r24, 0x012A
     f20:	88 23       	and	r24, r24
     f22:	19 f0       	breq	.+6      	; 0xf2a <MU2_Response+0x12>
     f24:	81 30       	cpi	r24, 0x01	; 1
     f26:	69 f5       	brne	.+90     	; 0xf82 <MU2_Response+0x6a>
     f28:	08 c0       	rjmp	.+16     	; 0xf3a <MU2_Response+0x22>
        case 0:
            if(rx_data=='*')
     f2a:	9a 32       	cpi	r25, 0x2A	; 42
     f2c:	51 f5       	brne	.+84     	; 0xf82 <MU2_Response+0x6a>
                {
                    rx_count = 0;
     f2e:	10 92 6b 01 	sts	0x016B, r1
                    phase = 1;
     f32:	81 e0       	ldi	r24, 0x01	; 1
     f34:	80 93 2a 01 	sts	0x012A, r24
     f38:	24 c0       	rjmp	.+72     	; 0xf82 <MU2_Response+0x6a>
                }
            break;
        case 1:
            if( rx_data == '\n' ){
     f3a:	9a 30       	cpi	r25, 0x0A	; 10
     f3c:	11 f5       	brne	.+68     	; 0xf82 <MU2_Response+0x6a>
                if( rx_buf[rx_count-1] == '\r')
     f3e:	80 91 6b 01 	lds	r24, 0x016B
     f42:	28 2f       	mov	r18, r24
     f44:	30 e0       	ldi	r19, 0x00	; 0
     f46:	21 50       	subi	r18, 0x01	; 1
     f48:	30 40       	sbci	r19, 0x00	; 0
     f4a:	f9 01       	movw	r30, r18
     f4c:	e5 5d       	subi	r30, 0xD5	; 213
     f4e:	fe 4f       	sbci	r31, 0xFE	; 254
     f50:	80 81       	ld	r24, Z
     f52:	8d 30       	cpi	r24, 0x0D	; 13
     f54:	b1 f4       	brne	.+44     	; 0xf82 <MU2_Response+0x6a>
     f56:	83 e0       	ldi	r24, 0x03	; 3
     f58:	05 c0       	rjmp	.+10     	; 0xf64 <MU2_Response+0x4c>
                    {
                        for(i=3;i<rx_count-1;i++,value++)
                            {
                                *value = rx_buf[i];
     f5a:	e5 5d       	subi	r30, 0xD5	; 213
     f5c:	fe 4f       	sbci	r31, 0xFE	; 254
     f5e:	80 81       	ld	r24, Z
     f60:	8d 93       	st	X+, r24
            break;
        case 1:
            if( rx_data == '\n' ){
                if( rx_buf[rx_count-1] == '\r')
                    {
                        for(i=3;i<rx_count-1;i++,value++)
     f62:	89 2f       	mov	r24, r25
     f64:	e8 2f       	mov	r30, r24
     f66:	f0 e0       	ldi	r31, 0x00	; 0
     f68:	98 2f       	mov	r25, r24
     f6a:	9f 5f       	subi	r25, 0xFF	; 255
     f6c:	e2 17       	cp	r30, r18
     f6e:	f3 07       	cpc	r31, r19
     f70:	a4 f3       	brlt	.-24     	; 0xf5a <MU2_Response+0x42>
     f72:	80 93 6c 01 	sts	0x016C, r24
                            {
                                *value = rx_buf[i];
                            }
                        *value = '\0';
     f76:	1c 92       	st	X, r1
                        phase = 0;
     f78:	10 92 2a 01 	sts	0x012A, r1
     f7c:	21 e0       	ldi	r18, 0x01	; 1
     f7e:	30 e0       	ldi	r19, 0x00	; 0
     f80:	0c c0       	rjmp	.+24     	; 0xf9a <MU2_Response+0x82>
                    }
            }
            break;
    }

    rx_buf[rx_count++] = rx_data;
     f82:	80 91 6b 01 	lds	r24, 0x016B
     f86:	e8 2f       	mov	r30, r24
     f88:	f0 e0       	ldi	r31, 0x00	; 0
     f8a:	e5 5d       	subi	r30, 0xD5	; 213
     f8c:	fe 4f       	sbci	r31, 0xFE	; 254
     f8e:	90 83       	st	Z, r25
     f90:	8f 5f       	subi	r24, 0xFF	; 255
     f92:	80 93 6b 01 	sts	0x016B, r24
     f96:	20 e0       	ldi	r18, 0x00	; 0
     f98:	30 e0       	ldi	r19, 0x00	; 0

    return 0;
}
     f9a:	c9 01       	movw	r24, r18
     f9c:	08 95       	ret

00000f9e <MU2_SendData>:

int MU2_SendData(unsigned char *data, unsigned char len)
{
     f9e:	ef 92       	push	r14
     fa0:	ff 92       	push	r15
     fa2:	1f 93       	push	r17
     fa4:	df 93       	push	r29
     fa6:	cf 93       	push	r28
     fa8:	00 d0       	rcall	.+0      	; 0xfaa <MU2_SendData+0xc>
     faa:	0f 92       	push	r0
     fac:	cd b7       	in	r28, 0x3d	; 61
     fae:	de b7       	in	r29, 0x3e	; 62
     fb0:	7c 01       	movw	r14, r24
     fb2:	16 2f       	mov	r17, r22
static unsigned char rx_count;
static unsigned char i;

__inline__ void MU2_SetTxHandler(int (*fp)(unsigned char)){__mu2_tx_char=fp;}
__inline__ void MU2_SetRxHandler(int (*fp)(unsigned char *)){__mu2_rx_char=fp;}
__inline__ int MU2_TxChar(unsigned char c){ return (*__mu2_tx_char)(c);	}
     fb4:	e0 91 ad 01 	lds	r30, 0x01AD
     fb8:	f0 91 ae 01 	lds	r31, 0x01AE
     fbc:	80 e4       	ldi	r24, 0x40	; 64
     fbe:	09 95       	icall
	MU2_TxChar('@');
	// Command Name
	MU2_TxChar('D');	MU2_TxChar('T');

	// Data Size
	Byte2Str(len, size);
     fc0:	e0 91 ad 01 	lds	r30, 0x01AD
     fc4:	f0 91 ae 01 	lds	r31, 0x01AE
     fc8:	84 e4       	ldi	r24, 0x44	; 68
     fca:	09 95       	icall
     fcc:	e0 91 ad 01 	lds	r30, 0x01AD
     fd0:	f0 91 ae 01 	lds	r31, 0x01AE
     fd4:	84 e5       	ldi	r24, 0x54	; 84
     fd6:	09 95       	icall
     fd8:	81 2f       	mov	r24, r17
     fda:	be 01       	movw	r22, r28
     fdc:	6f 5f       	subi	r22, 0xFF	; 255
     fde:	7f 4f       	sbci	r23, 0xFF	; 255
     fe0:	36 df       	rcall	.-404    	; 0xe4e <Byte2Str>
static unsigned char rx_count;
static unsigned char i;

__inline__ void MU2_SetTxHandler(int (*fp)(unsigned char)){__mu2_tx_char=fp;}
__inline__ void MU2_SetRxHandler(int (*fp)(unsigned char *)){__mu2_rx_char=fp;}
__inline__ int MU2_TxChar(unsigned char c){ return (*__mu2_tx_char)(c);	}
     fe2:	e0 91 ad 01 	lds	r30, 0x01AD
     fe6:	f0 91 ae 01 	lds	r31, 0x01AE
     fea:	89 81       	ldd	r24, Y+1	; 0x01
     fec:	09 95       	icall
	Byte2Str(len, size);
	MU2_TxChar(size[0]);
	MU2_TxChar(size[1]);

	// Data
	while( len-- ){
     fee:	e0 91 ad 01 	lds	r30, 0x01AD
     ff2:	f0 91 ae 01 	lds	r31, 0x01AE
     ff6:	8a 81       	ldd	r24, Y+2	; 0x02
     ff8:	09 95       	icall
     ffa:	05 c0       	rjmp	.+10     	; 0x1006 <MU2_SendData+0x68>
     ffc:	d7 01       	movw	r26, r14
     ffe:	8d 91       	ld	r24, X+
    1000:	7d 01       	movw	r14, r26
    1002:	09 95       	icall
		MU2_TxChar(*data);
		data++;
    1004:	11 50       	subi	r17, 0x01	; 1
    1006:	e0 91 ad 01 	lds	r30, 0x01AD
    100a:	f0 91 ae 01 	lds	r31, 0x01AE
	Byte2Str(len, size);
	MU2_TxChar(size[0]);
	MU2_TxChar(size[1]);

	// Data
	while( len-- ){
    100e:	11 23       	and	r17, r17
    1010:	a9 f7       	brne	.-22     	; 0xffc <MU2_SendData+0x5e>
static unsigned char rx_count;
static unsigned char i;

__inline__ void MU2_SetTxHandler(int (*fp)(unsigned char)){__mu2_tx_char=fp;}
__inline__ void MU2_SetRxHandler(int (*fp)(unsigned char *)){__mu2_rx_char=fp;}
__inline__ int MU2_TxChar(unsigned char c){ return (*__mu2_tx_char)(c);	}
    1012:	8d e0       	ldi	r24, 0x0D	; 13
    1014:	09 95       	icall

	// Terminator
	MU2_TxChar('\r');	MU2_TxChar('\n');

    return 0;
}
    1016:	e0 91 ad 01 	lds	r30, 0x01AD
    101a:	f0 91 ae 01 	lds	r31, 0x01AE
    101e:	8a e0       	ldi	r24, 0x0A	; 10
    1020:	09 95       	icall
    1022:	80 e0       	ldi	r24, 0x00	; 0
    1024:	90 e0       	ldi	r25, 0x00	; 0
    1026:	0f 90       	pop	r0
    1028:	0f 90       	pop	r0
    102a:	0f 90       	pop	r0
    102c:	cf 91       	pop	r28
    102e:	df 91       	pop	r29
    1030:	1f 91       	pop	r17
    1032:	ff 90       	pop	r15
    1034:	ef 90       	pop	r14
    1036:	08 95       	ret

00001038 <MU2_ReceiveData>:


int MU2_ReceiveData(unsigned char *buf, unsigned char size)
{
    1038:	ff 92       	push	r15
    103a:	0f 93       	push	r16
    103c:	1f 93       	push	r17
    103e:	df 93       	push	r29
    1040:	cf 93       	push	r28
    1042:	0f 92       	push	r0
    1044:	cd b7       	in	r28, 0x3d	; 61
    1046:	de b7       	in	r29, 0x3e	; 62
    1048:	8c 01       	movw	r16, r24
    104a:	f6 2e       	mov	r15, r22
static unsigned char i;

__inline__ void MU2_SetTxHandler(int (*fp)(unsigned char)){__mu2_tx_char=fp;}
__inline__ void MU2_SetRxHandler(int (*fp)(unsigned char *)){__mu2_rx_char=fp;}
__inline__ int MU2_TxChar(unsigned char c){ return (*__mu2_tx_char)(c);	}
__inline__ int MU2_RxChar(unsigned char *c){ return (*__mu2_rx_char)(c); }
    104c:	e0 91 b2 01 	lds	r30, 0x01B2
    1050:	f0 91 b3 01 	lds	r31, 0x01B3
    1054:	ce 01       	movw	r24, r28
    1056:	01 96       	adiw	r24, 0x01	; 1
    1058:	09 95       	icall

int MU2_ReceiveData(unsigned char *buf, unsigned char size)
{
    unsigned char c;
    MU2_RxChar(&c);
	if(MU2_Response(c,MU2_PREFIX, MU2_RX_BUF)){
    105a:	89 81       	ldd	r24, Y+1	; 0x01
    105c:	6f ea       	ldi	r22, 0xAF	; 175
    105e:	71 e0       	ldi	r23, 0x01	; 1
    1060:	4d e6       	ldi	r20, 0x6D	; 109
    1062:	51 e0       	ldi	r21, 0x01	; 1
    1064:	59 df       	rcall	.-334    	; 0xf18 <MU2_Response>
    1066:	89 2b       	or	r24, r25
    1068:	19 f4       	brne	.+6      	; 0x1070 <MU2_ReceiveData+0x38>
    106a:	40 e0       	ldi	r20, 0x00	; 0
    106c:	50 e0       	ldi	r21, 0x00	; 0
    106e:	33 c0       	rjmp	.+102    	; 0x10d6 <MU2_ReceiveData+0x9e>
}


int MU2_CheckCommand(char *prefix1, char *prefix2)
{
	if( (prefix1[0] == prefix2[0]) && (prefix1[1] == prefix2[1]) ){
    1070:	80 91 af 01 	lds	r24, 0x01AF
    1074:	84 34       	cpi	r24, 0x44	; 68
    1076:	69 f5       	brne	.+90     	; 0x10d2 <MU2_ReceiveData+0x9a>
    1078:	80 91 b0 01 	lds	r24, 0x01B0
    107c:	82 35       	cpi	r24, 0x52	; 82
    107e:	49 f5       	brne	.+82     	; 0x10d2 <MU2_ReceiveData+0x9a>
        if( MU2_CheckCommand(MU2_PREFIX, "DR") == 0){
            // RI=OFF縺ｮ譎
            // RI=ON縺ｮ譎
            unsigned char tmp[2];
            int len, i;
            tmp[0] = MU2_RX_BUF[0];
    1080:	90 91 6d 01 	lds	r25, 0x016D
            tmp[1] = MU2_RX_BUF[1];
    1084:	80 91 6e 01 	lds	r24, 0x016E

static __inline__ unsigned char Str2Byte(char *str)
{
	unsigned char tmp;

	tmp = str[0] - ((str[0] >= 'A') ? ('A'-10) : '0' );
    1088:	91 34       	cpi	r25, 0x41	; 65
    108a:	10 f4       	brcc	.+4      	; 0x1090 <MU2_ReceiveData+0x58>
    108c:	30 e3       	ldi	r19, 0x30	; 48
    108e:	01 c0       	rjmp	.+2      	; 0x1092 <MU2_ReceiveData+0x5a>
    1090:	37 e3       	ldi	r19, 0x37	; 55
	tmp <<= 4;
	tmp |= str[1] - ((str[1] >= 'A') ? ('A'-10) : '0' );
    1092:	81 34       	cpi	r24, 0x41	; 65
    1094:	10 f4       	brcc	.+4      	; 0x109a <MU2_ReceiveData+0x62>
    1096:	20 e3       	ldi	r18, 0x30	; 48
    1098:	01 c0       	rjmp	.+2      	; 0x109c <MU2_ReceiveData+0x64>
    109a:	27 e3       	ldi	r18, 0x37	; 55

static __inline__ unsigned char Str2Byte(char *str)
{
	unsigned char tmp;

	tmp = str[0] - ((str[0] >= 'A') ? ('A'-10) : '0' );
    109c:	93 1b       	sub	r25, r19
	tmp <<= 4;
	tmp |= str[1] - ((str[1] >= 'A') ? ('A'-10) : '0' );
    109e:	82 1b       	sub	r24, r18
    10a0:	92 95       	swap	r25
    10a2:	90 7f       	andi	r25, 0xF0	; 240
    10a4:	89 2b       	or	r24, r25
            // RI=ON縺ｮ譎
            unsigned char tmp[2];
            int len, i;
            tmp[0] = MU2_RX_BUF[0];
            tmp[1] = MU2_RX_BUF[1];
            len = Str2Byte((char *)tmp);
    10a6:	48 2f       	mov	r20, r24
    10a8:	50 e0       	ldi	r21, 0x00	; 0
    10aa:	ef e6       	ldi	r30, 0x6F	; 111
    10ac:	f1 e0       	ldi	r31, 0x01	; 1
    10ae:	21 e0       	ldi	r18, 0x01	; 1
    10b0:	30 e0       	ldi	r19, 0x00	; 0

            for( i=2; (i-2)<len && (i-2)<size; i++){
    10b2:	6f 2d       	mov	r22, r15
    10b4:	70 e0       	ldi	r23, 0x00	; 0
    10b6:	06 c0       	rjmp	.+12     	; 0x10c4 <MU2_ReceiveData+0x8c>
                *buf = MU2_RX_BUF[i];
    10b8:	81 91       	ld	r24, Z+
    10ba:	d8 01       	movw	r26, r16
    10bc:	8d 93       	st	X+, r24
    10be:	8d 01       	movw	r16, r26
                buf++;
    10c0:	2f 5f       	subi	r18, 0xFF	; 255
    10c2:	3f 4f       	sbci	r19, 0xFF	; 255
            int len, i;
            tmp[0] = MU2_RX_BUF[0];
            tmp[1] = MU2_RX_BUF[1];
            len = Str2Byte((char *)tmp);

            for( i=2; (i-2)<len && (i-2)<size; i++){
    10c4:	42 17       	cp	r20, r18
    10c6:	53 07       	cpc	r21, r19
    10c8:	34 f0       	brlt	.+12     	; 0x10d6 <MU2_ReceiveData+0x9e>
    10ca:	62 17       	cp	r22, r18
    10cc:	73 07       	cpc	r23, r19
    10ce:	a4 f7       	brge	.-24     	; 0x10b8 <MU2_ReceiveData+0x80>
    10d0:	02 c0       	rjmp	.+4      	; 0x10d6 <MU2_ReceiveData+0x9e>
    10d2:	4f ef       	ldi	r20, 0xFF	; 255
    10d4:	5f ef       	ldi	r21, 0xFF	; 255
        }else{
            return -1;
        }
	}
	return 0;
}
    10d6:	ca 01       	movw	r24, r20
    10d8:	0f 90       	pop	r0
    10da:	cf 91       	pop	r28
    10dc:	df 91       	pop	r29
    10de:	1f 91       	pop	r17
    10e0:	0f 91       	pop	r16
    10e2:	ff 90       	pop	r15
    10e4:	08 95       	ret

000010e6 <MU2_SetChannel>:

int MU2_SetChannel(unsigned char ch)
{
    10e6:	0f 93       	push	r16
    10e8:	1f 93       	push	r17
    10ea:	df 93       	push	r29
    10ec:	cf 93       	push	r28
    10ee:	00 d0       	rcall	.+0      	; 0x10f0 <MU2_SetChannel+0xa>
    10f0:	0f 92       	push	r0
    10f2:	cd b7       	in	r28, 0x3d	; 61
    10f4:	de b7       	in	r29, 0x3e	; 62
    10f6:	98 2f       	mov	r25, r24
	char value[3];

	if( ch<7 || ch>46 )		return -1;
    10f8:	87 50       	subi	r24, 0x07	; 7
    10fa:	88 32       	cpi	r24, 0x28	; 40
    10fc:	18 f0       	brcs	.+6      	; 0x1104 <MU2_SetChannel+0x1e>
    10fe:	2f ef       	ldi	r18, 0xFF	; 255
    1100:	3f ef       	ldi	r19, 0xFF	; 255
    1102:	0d c0       	rjmp	.+26     	; 0x111e <MU2_SetChannel+0x38>

	Byte2Str(ch, value);
    1104:	89 2f       	mov	r24, r25
    1106:	8e 01       	movw	r16, r28
    1108:	0f 5f       	subi	r16, 0xFF	; 255
    110a:	1f 4f       	sbci	r17, 0xFF	; 255
    110c:	b8 01       	movw	r22, r16
    110e:	9f de       	rcall	.-706    	; 0xe4e <Byte2Str>
	MU2_Command("CH", value, 2);
    1110:	83 e1       	ldi	r24, 0x13	; 19
    1112:	91 e0       	ldi	r25, 0x01	; 1
    1114:	b8 01       	movw	r22, r16
    1116:	42 e0       	ldi	r20, 0x02	; 2
    1118:	c8 de       	rcall	.-624    	; 0xeaa <MU2_Command>
    111a:	20 e0       	ldi	r18, 0x00	; 0
    111c:	30 e0       	ldi	r19, 0x00	; 0

	return 0;
}
    111e:	c9 01       	movw	r24, r18
    1120:	0f 90       	pop	r0
    1122:	0f 90       	pop	r0
    1124:	0f 90       	pop	r0
    1126:	cf 91       	pop	r28
    1128:	df 91       	pop	r29
    112a:	1f 91       	pop	r17
    112c:	0f 91       	pop	r16
    112e:	08 95       	ret

00001130 <MU2_SetGroupID>:

int MU2_SetGroupID(unsigned char id)
{
    1130:	0f 93       	push	r16
    1132:	1f 93       	push	r17
    1134:	df 93       	push	r29
    1136:	cf 93       	push	r28
    1138:	00 d0       	rcall	.+0      	; 0x113a <MU2_SetGroupID+0xa>
    113a:	0f 92       	push	r0
    113c:	cd b7       	in	r28, 0x3d	; 61
    113e:	de b7       	in	r29, 0x3e	; 62
	char id_str[3];

	Byte2Str(id, id_str);
    1140:	8e 01       	movw	r16, r28
    1142:	0f 5f       	subi	r16, 0xFF	; 255
    1144:	1f 4f       	sbci	r17, 0xFF	; 255
    1146:	b8 01       	movw	r22, r16
    1148:	82 de       	rcall	.-764    	; 0xe4e <Byte2Str>
	MU2_Command("GI", id_str, 2);
    114a:	86 e1       	ldi	r24, 0x16	; 22
    114c:	91 e0       	ldi	r25, 0x01	; 1
    114e:	b8 01       	movw	r22, r16
    1150:	42 e0       	ldi	r20, 0x02	; 2
    1152:	ab de       	rcall	.-682    	; 0xeaa <MU2_Command>

	return 0;
}
    1154:	80 e0       	ldi	r24, 0x00	; 0
    1156:	90 e0       	ldi	r25, 0x00	; 0
    1158:	0f 90       	pop	r0
    115a:	0f 90       	pop	r0
    115c:	0f 90       	pop	r0
    115e:	cf 91       	pop	r28
    1160:	df 91       	pop	r29
    1162:	1f 91       	pop	r17
    1164:	0f 91       	pop	r16
    1166:	08 95       	ret

00001168 <MU2_SetEquipmentID>:
int MU2_SetEquipmentID(unsigned char id)
{
    1168:	0f 93       	push	r16
    116a:	1f 93       	push	r17
    116c:	df 93       	push	r29
    116e:	cf 93       	push	r28
    1170:	00 d0       	rcall	.+0      	; 0x1172 <MU2_SetEquipmentID+0xa>
    1172:	0f 92       	push	r0
    1174:	cd b7       	in	r28, 0x3d	; 61
    1176:	de b7       	in	r29, 0x3e	; 62
	char id_str[3];

	Byte2Str(id, id_str);
    1178:	8e 01       	movw	r16, r28
    117a:	0f 5f       	subi	r16, 0xFF	; 255
    117c:	1f 4f       	sbci	r17, 0xFF	; 255
    117e:	b8 01       	movw	r22, r16
    1180:	66 de       	rcall	.-820    	; 0xe4e <Byte2Str>
	MU2_Command("EI", id_str, 2);
    1182:	89 e1       	ldi	r24, 0x19	; 25
    1184:	91 e0       	ldi	r25, 0x01	; 1
    1186:	b8 01       	movw	r22, r16
    1188:	42 e0       	ldi	r20, 0x02	; 2
    118a:	8f de       	rcall	.-738    	; 0xeaa <MU2_Command>

	return 0;
}
    118c:	80 e0       	ldi	r24, 0x00	; 0
    118e:	90 e0       	ldi	r25, 0x00	; 0
    1190:	0f 90       	pop	r0
    1192:	0f 90       	pop	r0
    1194:	0f 90       	pop	r0
    1196:	cf 91       	pop	r28
    1198:	df 91       	pop	r29
    119a:	1f 91       	pop	r17
    119c:	0f 91       	pop	r16
    119e:	08 95       	ret

000011a0 <MU2_SetDestinationID>:
int MU2_SetDestinationID(unsigned char id)
{
    11a0:	0f 93       	push	r16
    11a2:	1f 93       	push	r17
    11a4:	df 93       	push	r29
    11a6:	cf 93       	push	r28
    11a8:	00 d0       	rcall	.+0      	; 0x11aa <MU2_SetDestinationID+0xa>
    11aa:	0f 92       	push	r0
    11ac:	cd b7       	in	r28, 0x3d	; 61
    11ae:	de b7       	in	r29, 0x3e	; 62
	char id_str[3];

	Byte2Str(id, id_str);
    11b0:	8e 01       	movw	r16, r28
    11b2:	0f 5f       	subi	r16, 0xFF	; 255
    11b4:	1f 4f       	sbci	r17, 0xFF	; 255
    11b6:	b8 01       	movw	r22, r16
    11b8:	4a de       	rcall	.-876    	; 0xe4e <Byte2Str>
	MU2_Command("DI", id_str, 2);
    11ba:	8c e1       	ldi	r24, 0x1C	; 28
    11bc:	91 e0       	ldi	r25, 0x01	; 1
    11be:	b8 01       	movw	r22, r16
    11c0:	42 e0       	ldi	r20, 0x02	; 2
    11c2:	73 de       	rcall	.-794    	; 0xeaa <MU2_Command>

	return 0;
}
    11c4:	80 e0       	ldi	r24, 0x00	; 0
    11c6:	90 e0       	ldi	r25, 0x00	; 0
    11c8:	0f 90       	pop	r0
    11ca:	0f 90       	pop	r0
    11cc:	0f 90       	pop	r0
    11ce:	cf 91       	pop	r28
    11d0:	df 91       	pop	r29
    11d2:	1f 91       	pop	r17
    11d4:	0f 91       	pop	r16
    11d6:	08 95       	ret

000011d8 <MU2_SendDataBus>:

int MU2_SendDataBus(unsigned char *data, unsigned char len)
{
    11d8:	ef 92       	push	r14
    11da:	ff 92       	push	r15
    11dc:	1f 93       	push	r17
    11de:	df 93       	push	r29
    11e0:	cf 93       	push	r28
    11e2:	00 d0       	rcall	.+0      	; 0x11e4 <MU2_SendDataBus+0xc>
    11e4:	0f 92       	push	r0
    11e6:	cd b7       	in	r28, 0x3d	; 61
    11e8:	de b7       	in	r29, 0x3e	; 62
    11ea:	7c 01       	movw	r14, r24
    11ec:	16 2f       	mov	r17, r22
static unsigned char rx_count;
static unsigned char i;

__inline__ void MU2_SetTxHandler(int (*fp)(unsigned char)){__mu2_tx_char=fp;}
__inline__ void MU2_SetRxHandler(int (*fp)(unsigned char *)){__mu2_rx_char=fp;}
__inline__ int MU2_TxChar(unsigned char c){ return (*__mu2_tx_char)(c);	}
    11ee:	e0 91 ad 01 	lds	r30, 0x01AD
    11f2:	f0 91 ae 01 	lds	r31, 0x01AE
    11f6:	8a e2       	ldi	r24, 0x2A	; 42
    11f8:	09 95       	icall
	// Command Name
	MU2_TxChar('D');	MU2_TxChar('R');
	MU2_TxChar('=');

	// Data Size
	Byte2Str(len, size);
    11fa:	e0 91 ad 01 	lds	r30, 0x01AD
    11fe:	f0 91 ae 01 	lds	r31, 0x01AE
    1202:	84 e4       	ldi	r24, 0x44	; 68
    1204:	09 95       	icall
    1206:	e0 91 ad 01 	lds	r30, 0x01AD
    120a:	f0 91 ae 01 	lds	r31, 0x01AE
    120e:	82 e5       	ldi	r24, 0x52	; 82
    1210:	09 95       	icall
    1212:	e0 91 ad 01 	lds	r30, 0x01AD
    1216:	f0 91 ae 01 	lds	r31, 0x01AE
    121a:	8d e3       	ldi	r24, 0x3D	; 61
    121c:	09 95       	icall
    121e:	81 2f       	mov	r24, r17
    1220:	be 01       	movw	r22, r28
    1222:	6f 5f       	subi	r22, 0xFF	; 255
    1224:	7f 4f       	sbci	r23, 0xFF	; 255
    1226:	13 de       	rcall	.-986    	; 0xe4e <Byte2Str>
static unsigned char rx_count;
static unsigned char i;

__inline__ void MU2_SetTxHandler(int (*fp)(unsigned char)){__mu2_tx_char=fp;}
__inline__ void MU2_SetRxHandler(int (*fp)(unsigned char *)){__mu2_rx_char=fp;}
__inline__ int MU2_TxChar(unsigned char c){ return (*__mu2_tx_char)(c);	}
    1228:	e0 91 ad 01 	lds	r30, 0x01AD
    122c:	f0 91 ae 01 	lds	r31, 0x01AE
    1230:	89 81       	ldd	r24, Y+1	; 0x01
    1232:	09 95       	icall
	Byte2Str(len, size);
	MU2_TxChar(size[0]);
	MU2_TxChar(size[1]);

	// Data
	while( len-- ){
    1234:	e0 91 ad 01 	lds	r30, 0x01AD
    1238:	f0 91 ae 01 	lds	r31, 0x01AE
    123c:	8a 81       	ldd	r24, Y+2	; 0x02
    123e:	09 95       	icall
    1240:	05 c0       	rjmp	.+10     	; 0x124c <MU2_SendDataBus+0x74>
    1242:	d7 01       	movw	r26, r14
    1244:	8d 91       	ld	r24, X+
    1246:	7d 01       	movw	r14, r26
    1248:	09 95       	icall
		MU2_TxChar(*data);
		data++;
    124a:	11 50       	subi	r17, 0x01	; 1
    124c:	e0 91 ad 01 	lds	r30, 0x01AD
    1250:	f0 91 ae 01 	lds	r31, 0x01AE
	Byte2Str(len, size);
	MU2_TxChar(size[0]);
	MU2_TxChar(size[1]);

	// Data
	while( len-- ){
    1254:	11 23       	and	r17, r17
    1256:	a9 f7       	brne	.-22     	; 0x1242 <MU2_SendDataBus+0x6a>
static unsigned char rx_count;
static unsigned char i;

__inline__ void MU2_SetTxHandler(int (*fp)(unsigned char)){__mu2_tx_char=fp;}
__inline__ void MU2_SetRxHandler(int (*fp)(unsigned char *)){__mu2_rx_char=fp;}
__inline__ int MU2_TxChar(unsigned char c){ return (*__mu2_tx_char)(c);	}
    1258:	8d e0       	ldi	r24, 0x0D	; 13
    125a:	09 95       	icall

	// Terminator
	MU2_TxChar('\r');	MU2_TxChar('\n');

    return 0;
}
    125c:	e0 91 ad 01 	lds	r30, 0x01AD
    1260:	f0 91 ae 01 	lds	r31, 0x01AE
    1264:	8a e0       	ldi	r24, 0x0A	; 10
    1266:	09 95       	icall
    1268:	80 e0       	ldi	r24, 0x00	; 0
    126a:	90 e0       	ldi	r25, 0x00	; 0
    126c:	0f 90       	pop	r0
    126e:	0f 90       	pop	r0
    1270:	0f 90       	pop	r0
    1272:	cf 91       	pop	r28
    1274:	df 91       	pop	r29
    1276:	1f 91       	pop	r17
    1278:	ff 90       	pop	r15
    127a:	ef 90       	pop	r14
    127c:	08 95       	ret

0000127e <MakeClassicRCData>:
#include "classic.h"
#include "rc_classic.h"
#include "../mu2/mu2.h"

void MakeClassicRCData(union classic_data *rcdata, const union wii_classic *data, unsigned char *analog_data)
{
    127e:	fc 01       	movw	r30, r24
    1280:	db 01       	movw	r26, r22
	rcdata->detail.Button.LEFT		= data->detail.Button.Left	^ 1;
    1282:	15 96       	adiw	r26, 0x05	; 5
    1284:	8c 91       	ld	r24, X
    1286:	15 97       	sbiw	r26, 0x05	; 5
    1288:	86 95       	lsr	r24
    128a:	31 e0       	ldi	r19, 0x01	; 1
    128c:	83 27       	eor	r24, r19
    128e:	87 95       	ror	r24
    1290:	88 27       	eor	r24, r24
    1292:	87 95       	ror	r24
    1294:	90 81       	ld	r25, Z
    1296:	9f 77       	andi	r25, 0x7F	; 127
    1298:	98 2b       	or	r25, r24
    129a:	90 83       	st	Z, r25
	rcdata->detail.Button.DOWN		= data->detail.Button.Down	^ 1;
    129c:	14 96       	adiw	r26, 0x04	; 4
    129e:	8c 91       	ld	r24, X
    12a0:	14 97       	sbiw	r26, 0x04	; 4
    12a2:	82 95       	swap	r24
    12a4:	86 95       	lsr	r24
    12a6:	86 95       	lsr	r24
    12a8:	81 70       	andi	r24, 0x01	; 1
    12aa:	83 27       	eor	r24, r19
    12ac:	82 95       	swap	r24
    12ae:	88 0f       	add	r24, r24
    12b0:	88 0f       	add	r24, r24
    12b2:	80 7c       	andi	r24, 0xC0	; 192
    12b4:	9f 7b       	andi	r25, 0xBF	; 191
    12b6:	98 2b       	or	r25, r24
    12b8:	90 83       	st	Z, r25
	rcdata->detail.Button.RIGHT		= data->detail.Button.Right	^ 1;
    12ba:	14 96       	adiw	r26, 0x04	; 4
    12bc:	8c 91       	ld	r24, X
    12be:	14 97       	sbiw	r26, 0x04	; 4
    12c0:	88 1f       	adc	r24, r24
    12c2:	88 27       	eor	r24, r24
    12c4:	88 1f       	adc	r24, r24
    12c6:	83 27       	eor	r24, r19
    12c8:	82 95       	swap	r24
    12ca:	88 0f       	add	r24, r24
    12cc:	80 7e       	andi	r24, 0xE0	; 224
    12ce:	9f 7d       	andi	r25, 0xDF	; 223
    12d0:	98 2b       	or	r25, r24
    12d2:	90 83       	st	Z, r25
	rcdata->detail.Button.UP		= data->detail.Button.Up	^ 1;
    12d4:	15 96       	adiw	r26, 0x05	; 5
    12d6:	8c 91       	ld	r24, X
    12d8:	15 97       	sbiw	r26, 0x05	; 5
    12da:	81 70       	andi	r24, 0x01	; 1
    12dc:	83 27       	eor	r24, r19
    12de:	82 95       	swap	r24
    12e0:	80 7f       	andi	r24, 0xF0	; 240
    12e2:	9f 7e       	andi	r25, 0xEF	; 239
    12e4:	98 2b       	or	r25, r24
    12e6:	90 83       	st	Z, r25
	rcdata->detail.Button.Y			= data->detail.Button.y		^ 1;
    12e8:	15 96       	adiw	r26, 0x05	; 5
    12ea:	8c 91       	ld	r24, X
    12ec:	15 97       	sbiw	r26, 0x05	; 5
    12ee:	82 95       	swap	r24
    12f0:	86 95       	lsr	r24
    12f2:	81 70       	andi	r24, 0x01	; 1
    12f4:	83 27       	eor	r24, r19
    12f6:	88 0f       	add	r24, r24
    12f8:	88 0f       	add	r24, r24
    12fa:	88 0f       	add	r24, r24
    12fc:	97 7f       	andi	r25, 0xF7	; 247
    12fe:	98 2b       	or	r25, r24
    1300:	90 83       	st	Z, r25
	rcdata->detail.Button.B			= data->detail.Button.b		^ 1;
    1302:	15 96       	adiw	r26, 0x05	; 5
    1304:	8c 91       	ld	r24, X
    1306:	15 97       	sbiw	r26, 0x05	; 5
    1308:	82 95       	swap	r24
    130a:	86 95       	lsr	r24
    130c:	86 95       	lsr	r24
    130e:	81 70       	andi	r24, 0x01	; 1
    1310:	83 27       	eor	r24, r19
    1312:	88 0f       	add	r24, r24
    1314:	88 0f       	add	r24, r24
    1316:	9b 7f       	andi	r25, 0xFB	; 251
    1318:	98 2b       	or	r25, r24
    131a:	90 83       	st	Z, r25
	rcdata->detail.Button.A			= data->detail.Button.a		^ 1;
    131c:	15 96       	adiw	r26, 0x05	; 5
    131e:	8c 91       	ld	r24, X
    1320:	15 97       	sbiw	r26, 0x05	; 5
    1322:	82 95       	swap	r24
    1324:	81 70       	andi	r24, 0x01	; 1
    1326:	83 27       	eor	r24, r19
    1328:	88 0f       	add	r24, r24
    132a:	9d 7f       	andi	r25, 0xFD	; 253
    132c:	98 2b       	or	r25, r24
    132e:	90 83       	st	Z, r25
	rcdata->detail.Button.X			= data->detail.Button.x		^ 1;
    1330:	15 96       	adiw	r26, 0x05	; 5
    1332:	8c 91       	ld	r24, X
    1334:	15 97       	sbiw	r26, 0x05	; 5
    1336:	86 95       	lsr	r24
    1338:	86 95       	lsr	r24
    133a:	86 95       	lsr	r24
    133c:	81 70       	andi	r24, 0x01	; 1
    133e:	83 27       	eor	r24, r19
    1340:	9e 7f       	andi	r25, 0xFE	; 254
    1342:	98 2b       	or	r25, r24
    1344:	90 83       	st	Z, r25
	rcdata->detail.Button.R			= GetAnalogueRS( data )		>>4;
    1346:	13 96       	adiw	r26, 0x03	; 3
    1348:	8c 91       	ld	r24, X
    134a:	13 97       	sbiw	r26, 0x03	; 3
    134c:	8f 71       	andi	r24, 0x1F	; 31
    134e:	90 e0       	ldi	r25, 0x00	; 0
    1350:	74 e0       	ldi	r23, 0x04	; 4
    1352:	96 95       	lsr	r25
    1354:	87 95       	ror	r24
    1356:	7a 95       	dec	r23
    1358:	e1 f7       	brne	.-8      	; 0x1352 <MakeClassicRCData+0xd4>
    135a:	81 70       	andi	r24, 0x01	; 1
    135c:	82 95       	swap	r24
    135e:	88 0f       	add	r24, r24
    1360:	88 0f       	add	r24, r24
    1362:	80 7c       	andi	r24, 0xC0	; 192
    1364:	21 81       	ldd	r18, Z+1	; 0x01
    1366:	2f 7b       	andi	r18, 0xBF	; 191
    1368:	28 2b       	or	r18, r24
    136a:	21 83       	std	Z+1, r18	; 0x01
	rcdata->detail.Button.L			= GetAnalogueLS( data )		>>4;
    136c:	12 96       	adiw	r26, 0x02	; 2
    136e:	8c 91       	ld	r24, X
    1370:	12 97       	sbiw	r26, 0x02	; 2
    1372:	82 95       	swap	r24
    1374:	86 95       	lsr	r24
    1376:	83 70       	andi	r24, 0x03	; 3
    1378:	90 e0       	ldi	r25, 0x00	; 0
    137a:	96 95       	lsr	r25
    137c:	87 95       	ror	r24
    137e:	81 70       	andi	r24, 0x01	; 1
    1380:	82 95       	swap	r24
    1382:	88 0f       	add	r24, r24
    1384:	80 7e       	andi	r24, 0xE0	; 224
    1386:	2f 7d       	andi	r18, 0xDF	; 223
    1388:	28 2b       	or	r18, r24
    138a:	21 83       	std	Z+1, r18	; 0x01
	rcdata->detail.Button.ZR		= data->detail.Button.ZR	^ 1;
    138c:	15 96       	adiw	r26, 0x05	; 5
    138e:	8c 91       	ld	r24, X
    1390:	15 97       	sbiw	r26, 0x05	; 5
    1392:	86 95       	lsr	r24
    1394:	86 95       	lsr	r24
    1396:	81 70       	andi	r24, 0x01	; 1
    1398:	83 27       	eor	r24, r19
    139a:	82 95       	swap	r24
    139c:	80 7f       	andi	r24, 0xF0	; 240
    139e:	2f 7e       	andi	r18, 0xEF	; 239
    13a0:	28 2b       	or	r18, r24
    13a2:	21 83       	std	Z+1, r18	; 0x01
	rcdata->detail.Button.ZL		= data->detail.Button.ZL	^ 1;
    13a4:	15 96       	adiw	r26, 0x05	; 5
    13a6:	8c 91       	ld	r24, X
    13a8:	15 97       	sbiw	r26, 0x05	; 5
    13aa:	88 1f       	adc	r24, r24
    13ac:	88 27       	eor	r24, r24
    13ae:	88 1f       	adc	r24, r24
    13b0:	83 27       	eor	r24, r19
    13b2:	88 0f       	add	r24, r24
    13b4:	88 0f       	add	r24, r24
    13b6:	88 0f       	add	r24, r24
    13b8:	27 7f       	andi	r18, 0xF7	; 247
    13ba:	28 2b       	or	r18, r24
    13bc:	21 83       	std	Z+1, r18	; 0x01
	rcdata->detail.Button.START		= data->detail.Button.Start ^ 1;
    13be:	14 96       	adiw	r26, 0x04	; 4
    13c0:	8c 91       	ld	r24, X
    13c2:	14 97       	sbiw	r26, 0x04	; 4
    13c4:	86 95       	lsr	r24
    13c6:	86 95       	lsr	r24
    13c8:	81 70       	andi	r24, 0x01	; 1
    13ca:	83 27       	eor	r24, r19
    13cc:	88 0f       	add	r24, r24
    13ce:	88 0f       	add	r24, r24
    13d0:	2b 7f       	andi	r18, 0xFB	; 251
    13d2:	28 2b       	or	r18, r24
    13d4:	21 83       	std	Z+1, r18	; 0x01
	rcdata->detail.Button.HOME		= data->detail.Button.Home^ 1;
    13d6:	14 96       	adiw	r26, 0x04	; 4
    13d8:	8c 91       	ld	r24, X
    13da:	14 97       	sbiw	r26, 0x04	; 4
    13dc:	86 95       	lsr	r24
    13de:	86 95       	lsr	r24
    13e0:	86 95       	lsr	r24
    13e2:	81 70       	andi	r24, 0x01	; 1
    13e4:	83 27       	eor	r24, r19
    13e6:	88 0f       	add	r24, r24
    13e8:	2d 7f       	andi	r18, 0xFD	; 253
    13ea:	28 2b       	or	r18, r24
    13ec:	21 83       	std	Z+1, r18	; 0x01
	rcdata->detail.Button.SELECT	= data->detail.Button.Select^ 1;
    13ee:	14 96       	adiw	r26, 0x04	; 4
    13f0:	8c 91       	ld	r24, X
    13f2:	82 95       	swap	r24
    13f4:	81 70       	andi	r24, 0x01	; 1
    13f6:	83 27       	eor	r24, r19
    13f8:	2e 7f       	andi	r18, 0xFE	; 254
    13fa:	28 2b       	or	r18, r24
    13fc:	21 83       	std	Z+1, r18	; 0x01
	rcdata->detail.AnalogL.X		= (   analog_data[0]) & 0x0f;
    13fe:	da 01       	movw	r26, r20
    1400:	9c 91       	ld	r25, X
    1402:	92 95       	swap	r25
    1404:	90 7f       	andi	r25, 0xF0	; 240
    1406:	82 81       	ldd	r24, Z+2	; 0x02
    1408:	8f 70       	andi	r24, 0x0F	; 15
    140a:	89 2b       	or	r24, r25
    140c:	82 83       	std	Z+2, r24	; 0x02
	rcdata->detail.AnalogL.Y		= (14-analog_data[1]) & 0x0f;
    140e:	2e e0       	ldi	r18, 0x0E	; 14
    1410:	11 96       	adiw	r26, 0x01	; 1
    1412:	9c 91       	ld	r25, X
    1414:	b2 2f       	mov	r27, r18
    1416:	b9 1b       	sub	r27, r25
    1418:	9b 2f       	mov	r25, r27
    141a:	9f 70       	andi	r25, 0x0F	; 15
    141c:	80 7f       	andi	r24, 0xF0	; 240
    141e:	89 2b       	or	r24, r25
    1420:	82 83       	std	Z+2, r24	; 0x02
	rcdata->detail.AnalogR.X		= (   analog_data[2]) & 0x0f;	
    1422:	da 01       	movw	r26, r20
    1424:	12 96       	adiw	r26, 0x02	; 2
    1426:	9c 91       	ld	r25, X
    1428:	12 97       	sbiw	r26, 0x02	; 2
    142a:	92 95       	swap	r25
    142c:	90 7f       	andi	r25, 0xF0	; 240
    142e:	83 81       	ldd	r24, Z+3	; 0x03
    1430:	8f 70       	andi	r24, 0x0F	; 15
    1432:	89 2b       	or	r24, r25
    1434:	83 83       	std	Z+3, r24	; 0x03
	rcdata->detail.AnalogR.Y		= (14-analog_data[3]) & 0x0f;
    1436:	13 96       	adiw	r26, 0x03	; 3
    1438:	9c 91       	ld	r25, X
    143a:	29 1b       	sub	r18, r25
    143c:	2f 70       	andi	r18, 0x0F	; 15
    143e:	80 7f       	andi	r24, 0xF0	; 240
    1440:	82 2b       	or	r24, r18
    1442:	83 83       	std	Z+3, r24	; 0x03
}
    1444:	08 95       	ret

00001446 <get_classic_analog>:

void get_classic_analog( const union wii_classic *data, unsigned char *analog_data )
{
    1446:	9f 92       	push	r9
    1448:	af 92       	push	r10
    144a:	bf 92       	push	r11
    144c:	cf 92       	push	r12
    144e:	df 92       	push	r13
    1450:	ef 92       	push	r14
    1452:	ff 92       	push	r15
    1454:	0f 93       	push	r16
    1456:	1f 93       	push	r17
    1458:	fc 01       	movw	r30, r24
    145a:	db 01       	movw	r26, r22
	int i;	
	analog_data[0] = (unsigned char)GetAnalogueLeftX( data );
    145c:	80 81       	ld	r24, Z
    145e:	8f 73       	andi	r24, 0x3F	; 63
    1460:	8c 93       	st	X, r24
	analog_data[1] = (unsigned char)GetAnalogueLeftY( data );
    1462:	81 81       	ldd	r24, Z+1	; 0x01
    1464:	8f 73       	andi	r24, 0x3F	; 63
    1466:	11 96       	adiw	r26, 0x01	; 1
    1468:	8c 93       	st	X, r24
    146a:	11 97       	sbiw	r26, 0x01	; 1
	analog_data[2] = (unsigned char)GetAnalogueRightX( data );
    146c:	20 81       	ld	r18, Z
    146e:	22 95       	swap	r18
    1470:	26 95       	lsr	r18
    1472:	26 95       	lsr	r18
    1474:	23 70       	andi	r18, 0x03	; 3
    1476:	30 e0       	ldi	r19, 0x00	; 0
    1478:	53 e0       	ldi	r21, 0x03	; 3
    147a:	22 0f       	add	r18, r18
    147c:	33 1f       	adc	r19, r19
    147e:	5a 95       	dec	r21
    1480:	e1 f7       	brne	.-8      	; 0x147a <get_classic_analog+0x34>
    1482:	81 81       	ldd	r24, Z+1	; 0x01
    1484:	82 95       	swap	r24
    1486:	86 95       	lsr	r24
    1488:	86 95       	lsr	r24
    148a:	83 70       	andi	r24, 0x03	; 3
    148c:	90 e0       	ldi	r25, 0x00	; 0
    148e:	88 0f       	add	r24, r24
    1490:	99 1f       	adc	r25, r25
    1492:	28 2b       	or	r18, r24
    1494:	39 2b       	or	r19, r25
    1496:	82 81       	ldd	r24, Z+2	; 0x02
    1498:	88 1f       	adc	r24, r24
    149a:	88 27       	eor	r24, r24
    149c:	88 1f       	adc	r24, r24
    149e:	90 e0       	ldi	r25, 0x00	; 0
    14a0:	28 2b       	or	r18, r24
    14a2:	39 2b       	or	r19, r25
    14a4:	12 96       	adiw	r26, 0x02	; 2
    14a6:	2c 93       	st	X, r18
    14a8:	12 97       	sbiw	r26, 0x02	; 2
	analog_data[3] = (unsigned char)GetAnalogueRightY( data );
    14aa:	82 81       	ldd	r24, Z+2	; 0x02
    14ac:	8f 71       	andi	r24, 0x1F	; 31
    14ae:	13 96       	adiw	r26, 0x03	; 3
    14b0:	8c 93       	st	X, r24
    14b2:	13 97       	sbiw	r26, 0x03	; 3
    14b4:	fb 01       	movw	r30, r22
    14b6:	20 e0       	ldi	r18, 0x00	; 0
    14b8:	30 e0       	ldi	r19, 0x00	; 0
		else if(analog_data[i]<=42) analog_data[i] = 0x09;
		else if(analog_data[i]<=46) analog_data[i] = 0x0A;
		else if(analog_data[i]<=50) analog_data[i] = 0x0B;
		else if(analog_data[i]<=53) analog_data[i] = 0x0C;
		else if(analog_data[i]<=55) analog_data[i] = 0x0D;
		else if(analog_data[i]> 55) analog_data[i] = 0x0E;	
    14ba:	0e e0       	ldi	r16, 0x0E	; 14
    14bc:	90 2e       	mov	r9, r16
		else if(analog_data[i]<=38) analog_data[i] = 0x08;
		else if(analog_data[i]<=42) analog_data[i] = 0x09;
		else if(analog_data[i]<=46) analog_data[i] = 0x0A;
		else if(analog_data[i]<=50) analog_data[i] = 0x0B;
		else if(analog_data[i]<=53) analog_data[i] = 0x0C;
		else if(analog_data[i]<=55) analog_data[i] = 0x0D;
    14be:	1d e0       	ldi	r17, 0x0D	; 13
    14c0:	a1 2e       	mov	r10, r17
		else if(analog_data[i]<=34) analog_data[i] = 0x07;
		else if(analog_data[i]<=38) analog_data[i] = 0x08;
		else if(analog_data[i]<=42) analog_data[i] = 0x09;
		else if(analog_data[i]<=46) analog_data[i] = 0x0A;
		else if(analog_data[i]<=50) analog_data[i] = 0x0B;
		else if(analog_data[i]<=53) analog_data[i] = 0x0C;
    14c2:	7c e0       	ldi	r23, 0x0C	; 12
    14c4:	b7 2e       	mov	r11, r23
		else if(analog_data[i]<=29) analog_data[i] = 0x06;
		else if(analog_data[i]<=34) analog_data[i] = 0x07;
		else if(analog_data[i]<=38) analog_data[i] = 0x08;
		else if(analog_data[i]<=42) analog_data[i] = 0x09;
		else if(analog_data[i]<=46) analog_data[i] = 0x0A;
		else if(analog_data[i]<=50) analog_data[i] = 0x0B;
    14c6:	6b e0       	ldi	r22, 0x0B	; 11
    14c8:	c6 2e       	mov	r12, r22
		else if(analog_data[i]<=25) analog_data[i] = 0x05;
		else if(analog_data[i]<=29) analog_data[i] = 0x06;
		else if(analog_data[i]<=34) analog_data[i] = 0x07;
		else if(analog_data[i]<=38) analog_data[i] = 0x08;
		else if(analog_data[i]<=42) analog_data[i] = 0x09;
		else if(analog_data[i]<=46) analog_data[i] = 0x0A;
    14ca:	5a e0       	ldi	r21, 0x0A	; 10
    14cc:	d5 2e       	mov	r13, r21
		else if(analog_data[i]<=21) analog_data[i] = 0x04;
		else if(analog_data[i]<=25) analog_data[i] = 0x05;
		else if(analog_data[i]<=29) analog_data[i] = 0x06;
		else if(analog_data[i]<=34) analog_data[i] = 0x07;
		else if(analog_data[i]<=38) analog_data[i] = 0x08;
		else if(analog_data[i]<=42) analog_data[i] = 0x09;
    14ce:	49 e0       	ldi	r20, 0x09	; 9
    14d0:	e4 2e       	mov	r14, r20
		else if(analog_data[i]<=17) analog_data[i] = 0x03;
		else if(analog_data[i]<=21) analog_data[i] = 0x04;
		else if(analog_data[i]<=25) analog_data[i] = 0x05;
		else if(analog_data[i]<=29) analog_data[i] = 0x06;
		else if(analog_data[i]<=34) analog_data[i] = 0x07;
		else if(analog_data[i]<=38) analog_data[i] = 0x08;
    14d2:	98 e0       	ldi	r25, 0x08	; 8
    14d4:	f9 2e       	mov	r15, r25
		else if(analog_data[i]<=13) analog_data[i] = 0x02;
		else if(analog_data[i]<=17) analog_data[i] = 0x03;
		else if(analog_data[i]<=21) analog_data[i] = 0x04;
		else if(analog_data[i]<=25) analog_data[i] = 0x05;
		else if(analog_data[i]<=29) analog_data[i] = 0x06;
		else if(analog_data[i]<=34) analog_data[i] = 0x07;
    14d6:	07 e0       	ldi	r16, 0x07	; 7
		else if(analog_data[i]<=11)	analog_data[i] = 0x01;
		else if(analog_data[i]<=13) analog_data[i] = 0x02;
		else if(analog_data[i]<=17) analog_data[i] = 0x03;
		else if(analog_data[i]<=21) analog_data[i] = 0x04;
		else if(analog_data[i]<=25) analog_data[i] = 0x05;
		else if(analog_data[i]<=29) analog_data[i] = 0x06;
    14d8:	16 e0       	ldi	r17, 0x06	; 6
			 if(analog_data[i]<=10)	analog_data[i] = 0x00;
		else if(analog_data[i]<=11)	analog_data[i] = 0x01;
		else if(analog_data[i]<=13) analog_data[i] = 0x02;
		else if(analog_data[i]<=17) analog_data[i] = 0x03;
		else if(analog_data[i]<=21) analog_data[i] = 0x04;
		else if(analog_data[i]<=25) analog_data[i] = 0x05;
    14da:	75 e0       	ldi	r23, 0x05	; 5
	for(i=0; i<2; i++){
			 if(analog_data[i]<=10)	analog_data[i] = 0x00;
		else if(analog_data[i]<=11)	analog_data[i] = 0x01;
		else if(analog_data[i]<=13) analog_data[i] = 0x02;
		else if(analog_data[i]<=17) analog_data[i] = 0x03;
		else if(analog_data[i]<=21) analog_data[i] = 0x04;
    14dc:	64 e0       	ldi	r22, 0x04	; 4
	analog_data[3] = (unsigned char)GetAnalogueRightY( data );
	for(i=0; i<2; i++){
			 if(analog_data[i]<=10)	analog_data[i] = 0x00;
		else if(analog_data[i]<=11)	analog_data[i] = 0x01;
		else if(analog_data[i]<=13) analog_data[i] = 0x02;
		else if(analog_data[i]<=17) analog_data[i] = 0x03;
    14de:	53 e0       	ldi	r21, 0x03	; 3
	analog_data[2] = (unsigned char)GetAnalogueRightX( data );
	analog_data[3] = (unsigned char)GetAnalogueRightY( data );
	for(i=0; i<2; i++){
			 if(analog_data[i]<=10)	analog_data[i] = 0x00;
		else if(analog_data[i]<=11)	analog_data[i] = 0x01;
		else if(analog_data[i]<=13) analog_data[i] = 0x02;
    14e0:	42 e0       	ldi	r20, 0x02	; 2
	analog_data[1] = (unsigned char)GetAnalogueLeftY( data );
	analog_data[2] = (unsigned char)GetAnalogueRightX( data );
	analog_data[3] = (unsigned char)GetAnalogueRightY( data );
	for(i=0; i<2; i++){
			 if(analog_data[i]<=10)	analog_data[i] = 0x00;
		else if(analog_data[i]<=11)	analog_data[i] = 0x01;
    14e2:	91 e0       	ldi	r25, 0x01	; 1
	analog_data[0] = (unsigned char)GetAnalogueLeftX( data );
	analog_data[1] = (unsigned char)GetAnalogueLeftY( data );
	analog_data[2] = (unsigned char)GetAnalogueRightX( data );
	analog_data[3] = (unsigned char)GetAnalogueRightY( data );
	for(i=0; i<2; i++){
			 if(analog_data[i]<=10)	analog_data[i] = 0x00;
    14e4:	80 81       	ld	r24, Z
    14e6:	8b 30       	cpi	r24, 0x0B	; 11
    14e8:	10 f4       	brcc	.+4      	; 0x14ee <get_classic_analog+0xa8>
    14ea:	10 82       	st	Z, r1
    14ec:	35 c0       	rjmp	.+106    	; 0x1558 <get_classic_analog+0x112>
		else if(analog_data[i]<=11)	analog_data[i] = 0x01;
    14ee:	8b 30       	cpi	r24, 0x0B	; 11
    14f0:	11 f4       	brne	.+4      	; 0x14f6 <get_classic_analog+0xb0>
    14f2:	90 83       	st	Z, r25
    14f4:	31 c0       	rjmp	.+98     	; 0x1558 <get_classic_analog+0x112>
		else if(analog_data[i]<=13) analog_data[i] = 0x02;
    14f6:	8e 30       	cpi	r24, 0x0E	; 14
    14f8:	10 f4       	brcc	.+4      	; 0x14fe <get_classic_analog+0xb8>
    14fa:	40 83       	st	Z, r20
    14fc:	2d c0       	rjmp	.+90     	; 0x1558 <get_classic_analog+0x112>
		else if(analog_data[i]<=17) analog_data[i] = 0x03;
    14fe:	82 31       	cpi	r24, 0x12	; 18
    1500:	10 f4       	brcc	.+4      	; 0x1506 <get_classic_analog+0xc0>
    1502:	50 83       	st	Z, r21
    1504:	29 c0       	rjmp	.+82     	; 0x1558 <get_classic_analog+0x112>
		else if(analog_data[i]<=21) analog_data[i] = 0x04;
    1506:	86 31       	cpi	r24, 0x16	; 22
    1508:	10 f4       	brcc	.+4      	; 0x150e <get_classic_analog+0xc8>
    150a:	60 83       	st	Z, r22
    150c:	25 c0       	rjmp	.+74     	; 0x1558 <get_classic_analog+0x112>
		else if(analog_data[i]<=25) analog_data[i] = 0x05;
    150e:	8a 31       	cpi	r24, 0x1A	; 26
    1510:	10 f4       	brcc	.+4      	; 0x1516 <get_classic_analog+0xd0>
    1512:	70 83       	st	Z, r23
    1514:	21 c0       	rjmp	.+66     	; 0x1558 <get_classic_analog+0x112>
		else if(analog_data[i]<=29) analog_data[i] = 0x06;
    1516:	8e 31       	cpi	r24, 0x1E	; 30
    1518:	10 f4       	brcc	.+4      	; 0x151e <get_classic_analog+0xd8>
    151a:	10 83       	st	Z, r17
    151c:	1d c0       	rjmp	.+58     	; 0x1558 <get_classic_analog+0x112>
		else if(analog_data[i]<=34) analog_data[i] = 0x07;
    151e:	83 32       	cpi	r24, 0x23	; 35
    1520:	10 f4       	brcc	.+4      	; 0x1526 <get_classic_analog+0xe0>
    1522:	00 83       	st	Z, r16
    1524:	19 c0       	rjmp	.+50     	; 0x1558 <get_classic_analog+0x112>
		else if(analog_data[i]<=38) analog_data[i] = 0x08;
    1526:	87 32       	cpi	r24, 0x27	; 39
    1528:	10 f4       	brcc	.+4      	; 0x152e <get_classic_analog+0xe8>
    152a:	f0 82       	st	Z, r15
    152c:	15 c0       	rjmp	.+42     	; 0x1558 <get_classic_analog+0x112>
		else if(analog_data[i]<=42) analog_data[i] = 0x09;
    152e:	8b 32       	cpi	r24, 0x2B	; 43
    1530:	10 f4       	brcc	.+4      	; 0x1536 <get_classic_analog+0xf0>
    1532:	e0 82       	st	Z, r14
    1534:	11 c0       	rjmp	.+34     	; 0x1558 <get_classic_analog+0x112>
		else if(analog_data[i]<=46) analog_data[i] = 0x0A;
    1536:	8f 32       	cpi	r24, 0x2F	; 47
    1538:	10 f4       	brcc	.+4      	; 0x153e <get_classic_analog+0xf8>
    153a:	d0 82       	st	Z, r13
    153c:	0d c0       	rjmp	.+26     	; 0x1558 <get_classic_analog+0x112>
		else if(analog_data[i]<=50) analog_data[i] = 0x0B;
    153e:	83 33       	cpi	r24, 0x33	; 51
    1540:	10 f4       	brcc	.+4      	; 0x1546 <get_classic_analog+0x100>
    1542:	c0 82       	st	Z, r12
    1544:	09 c0       	rjmp	.+18     	; 0x1558 <get_classic_analog+0x112>
		else if(analog_data[i]<=53) analog_data[i] = 0x0C;
    1546:	86 33       	cpi	r24, 0x36	; 54
    1548:	10 f4       	brcc	.+4      	; 0x154e <get_classic_analog+0x108>
    154a:	b0 82       	st	Z, r11
    154c:	05 c0       	rjmp	.+10     	; 0x1558 <get_classic_analog+0x112>
		else if(analog_data[i]<=55) analog_data[i] = 0x0D;
    154e:	88 33       	cpi	r24, 0x38	; 56
    1550:	10 f4       	brcc	.+4      	; 0x1556 <get_classic_analog+0x110>
    1552:	a0 82       	st	Z, r10
    1554:	01 c0       	rjmp	.+2      	; 0x1558 <get_classic_analog+0x112>
		else if(analog_data[i]> 55) analog_data[i] = 0x0E;	
    1556:	90 82       	st	Z, r9
	int i;	
	analog_data[0] = (unsigned char)GetAnalogueLeftX( data );
	analog_data[1] = (unsigned char)GetAnalogueLeftY( data );
	analog_data[2] = (unsigned char)GetAnalogueRightX( data );
	analog_data[3] = (unsigned char)GetAnalogueRightY( data );
	for(i=0; i<2; i++){
    1558:	2f 5f       	subi	r18, 0xFF	; 255
    155a:	3f 4f       	sbci	r19, 0xFF	; 255
    155c:	31 96       	adiw	r30, 0x01	; 1
    155e:	22 30       	cpi	r18, 0x02	; 2
    1560:	31 05       	cpc	r19, r1
    1562:	09 f0       	breq	.+2      	; 0x1566 <get_classic_analog+0x120>
    1564:	bf cf       	rjmp	.-130    	; 0x14e4 <get_classic_analog+0x9e>
		else if(analog_data[i]<=20) analog_data[i] = 0x09;
		else if(analog_data[i]<=22) analog_data[i] = 0x0A;
		else if(analog_data[i]<=23) analog_data[i] = 0x0B;
		else if(analog_data[i]<=24) analog_data[i] = 0x0C;
		else if(analog_data[i]<=25) analog_data[i] = 0x0D;
		else if(analog_data[i]> 25) analog_data[i] = 0x0E;
    1566:	8e e0       	ldi	r24, 0x0E	; 14
    1568:	b8 2e       	mov	r11, r24
		else if(analog_data[i]<=18) analog_data[i] = 0x08;
		else if(analog_data[i]<=20) analog_data[i] = 0x09;
		else if(analog_data[i]<=22) analog_data[i] = 0x0A;
		else if(analog_data[i]<=23) analog_data[i] = 0x0B;
		else if(analog_data[i]<=24) analog_data[i] = 0x0C;
		else if(analog_data[i]<=25) analog_data[i] = 0x0D;
    156a:	0d e0       	ldi	r16, 0x0D	; 13
    156c:	c0 2e       	mov	r12, r16
		else if(analog_data[i]<=16) analog_data[i] = 0x07;
		else if(analog_data[i]<=18) analog_data[i] = 0x08;
		else if(analog_data[i]<=20) analog_data[i] = 0x09;
		else if(analog_data[i]<=22) analog_data[i] = 0x0A;
		else if(analog_data[i]<=23) analog_data[i] = 0x0B;
		else if(analog_data[i]<=24) analog_data[i] = 0x0C;
    156e:	1c e0       	ldi	r17, 0x0C	; 12
    1570:	d1 2e       	mov	r13, r17
		else if(analog_data[i]<=14) analog_data[i] = 0x06;
		else if(analog_data[i]<=16) analog_data[i] = 0x07;
		else if(analog_data[i]<=18) analog_data[i] = 0x08;
		else if(analog_data[i]<=20) analog_data[i] = 0x09;
		else if(analog_data[i]<=22) analog_data[i] = 0x0A;
		else if(analog_data[i]<=23) analog_data[i] = 0x0B;
    1572:	fb e0       	ldi	r31, 0x0B	; 11
    1574:	ef 2e       	mov	r14, r31
		else if(analog_data[i]<=12) analog_data[i] = 0x05;
		else if(analog_data[i]<=14) analog_data[i] = 0x06;
		else if(analog_data[i]<=16) analog_data[i] = 0x07;
		else if(analog_data[i]<=18) analog_data[i] = 0x08;
		else if(analog_data[i]<=20) analog_data[i] = 0x09;
		else if(analog_data[i]<=22) analog_data[i] = 0x0A;
    1576:	ea e0       	ldi	r30, 0x0A	; 10
    1578:	fe 2e       	mov	r15, r30
		else if(analog_data[i]<=10) analog_data[i] = 0x04;
		else if(analog_data[i]<=12) analog_data[i] = 0x05;
		else if(analog_data[i]<=14) analog_data[i] = 0x06;
		else if(analog_data[i]<=16) analog_data[i] = 0x07;
		else if(analog_data[i]<=18) analog_data[i] = 0x08;
		else if(analog_data[i]<=20) analog_data[i] = 0x09;
    157a:	09 e0       	ldi	r16, 0x09	; 9
		else if(analog_data[i]<=8)  analog_data[i] = 0x03;
		else if(analog_data[i]<=10) analog_data[i] = 0x04;
		else if(analog_data[i]<=12) analog_data[i] = 0x05;
		else if(analog_data[i]<=14) analog_data[i] = 0x06;
		else if(analog_data[i]<=16) analog_data[i] = 0x07;
		else if(analog_data[i]<=18) analog_data[i] = 0x08;
    157c:	18 e0       	ldi	r17, 0x08	; 8
		else if(analog_data[i]<=7)  analog_data[i] = 0x02;
		else if(analog_data[i]<=8)  analog_data[i] = 0x03;
		else if(analog_data[i]<=10) analog_data[i] = 0x04;
		else if(analog_data[i]<=12) analog_data[i] = 0x05;
		else if(analog_data[i]<=14) analog_data[i] = 0x06;
		else if(analog_data[i]<=16) analog_data[i] = 0x07;
    157e:	f7 e0       	ldi	r31, 0x07	; 7
		else if(analog_data[i]<=6)  analog_data[i] = 0x01;
		else if(analog_data[i]<=7)  analog_data[i] = 0x02;
		else if(analog_data[i]<=8)  analog_data[i] = 0x03;
		else if(analog_data[i]<=10) analog_data[i] = 0x04;
		else if(analog_data[i]<=12) analog_data[i] = 0x05;
		else if(analog_data[i]<=14) analog_data[i] = 0x06;
    1580:	e6 e0       	ldi	r30, 0x06	; 6
			 if(analog_data[i]<=5)  analog_data[i] = 0x00;
		else if(analog_data[i]<=6)  analog_data[i] = 0x01;
		else if(analog_data[i]<=7)  analog_data[i] = 0x02;
		else if(analog_data[i]<=8)  analog_data[i] = 0x03;
		else if(analog_data[i]<=10) analog_data[i] = 0x04;
		else if(analog_data[i]<=12) analog_data[i] = 0x05;
    1582:	75 e0       	ldi	r23, 0x05	; 5
	for(i=2; i<5; i++){
			 if(analog_data[i]<=5)  analog_data[i] = 0x00;
		else if(analog_data[i]<=6)  analog_data[i] = 0x01;
		else if(analog_data[i]<=7)  analog_data[i] = 0x02;
		else if(analog_data[i]<=8)  analog_data[i] = 0x03;
		else if(analog_data[i]<=10) analog_data[i] = 0x04;
    1584:	64 e0       	ldi	r22, 0x04	; 4
	}
	for(i=2; i<5; i++){
			 if(analog_data[i]<=5)  analog_data[i] = 0x00;
		else if(analog_data[i]<=6)  analog_data[i] = 0x01;
		else if(analog_data[i]<=7)  analog_data[i] = 0x02;
		else if(analog_data[i]<=8)  analog_data[i] = 0x03;
    1586:	53 e0       	ldi	r21, 0x03	; 3
		else if(analog_data[i]> 55) analog_data[i] = 0x0E;	
	}
	for(i=2; i<5; i++){
			 if(analog_data[i]<=5)  analog_data[i] = 0x00;
		else if(analog_data[i]<=6)  analog_data[i] = 0x01;
		else if(analog_data[i]<=7)  analog_data[i] = 0x02;
    1588:	42 e0       	ldi	r20, 0x02	; 2
		else if(analog_data[i]<=55) analog_data[i] = 0x0D;
		else if(analog_data[i]> 55) analog_data[i] = 0x0E;	
	}
	for(i=2; i<5; i++){
			 if(analog_data[i]<=5)  analog_data[i] = 0x00;
		else if(analog_data[i]<=6)  analog_data[i] = 0x01;
    158a:	91 e0       	ldi	r25, 0x01	; 1
		else if(analog_data[i]<=53) analog_data[i] = 0x0C;
		else if(analog_data[i]<=55) analog_data[i] = 0x0D;
		else if(analog_data[i]> 55) analog_data[i] = 0x0E;	
	}
	for(i=2; i<5; i++){
			 if(analog_data[i]<=5)  analog_data[i] = 0x00;
    158c:	12 96       	adiw	r26, 0x02	; 2
    158e:	8c 91       	ld	r24, X
    1590:	12 97       	sbiw	r26, 0x02	; 2
    1592:	86 30       	cpi	r24, 0x06	; 6
    1594:	20 f4       	brcc	.+8      	; 0x159e <get_classic_analog+0x158>
    1596:	12 96       	adiw	r26, 0x02	; 2
    1598:	1c 92       	st	X, r1
    159a:	12 97       	sbiw	r26, 0x02	; 2
    159c:	51 c0       	rjmp	.+162    	; 0x1640 <get_classic_analog+0x1fa>
		else if(analog_data[i]<=6)  analog_data[i] = 0x01;
    159e:	86 30       	cpi	r24, 0x06	; 6
    15a0:	21 f4       	brne	.+8      	; 0x15aa <get_classic_analog+0x164>
    15a2:	12 96       	adiw	r26, 0x02	; 2
    15a4:	9c 93       	st	X, r25
    15a6:	12 97       	sbiw	r26, 0x02	; 2
    15a8:	4b c0       	rjmp	.+150    	; 0x1640 <get_classic_analog+0x1fa>
		else if(analog_data[i]<=7)  analog_data[i] = 0x02;
    15aa:	87 30       	cpi	r24, 0x07	; 7
    15ac:	21 f4       	brne	.+8      	; 0x15b6 <get_classic_analog+0x170>
    15ae:	12 96       	adiw	r26, 0x02	; 2
    15b0:	4c 93       	st	X, r20
    15b2:	12 97       	sbiw	r26, 0x02	; 2
    15b4:	45 c0       	rjmp	.+138    	; 0x1640 <get_classic_analog+0x1fa>
		else if(analog_data[i]<=8)  analog_data[i] = 0x03;
    15b6:	88 30       	cpi	r24, 0x08	; 8
    15b8:	21 f4       	brne	.+8      	; 0x15c2 <get_classic_analog+0x17c>
    15ba:	12 96       	adiw	r26, 0x02	; 2
    15bc:	5c 93       	st	X, r21
    15be:	12 97       	sbiw	r26, 0x02	; 2
    15c0:	3f c0       	rjmp	.+126    	; 0x1640 <get_classic_analog+0x1fa>
		else if(analog_data[i]<=10) analog_data[i] = 0x04;
    15c2:	8b 30       	cpi	r24, 0x0B	; 11
    15c4:	20 f4       	brcc	.+8      	; 0x15ce <get_classic_analog+0x188>
    15c6:	12 96       	adiw	r26, 0x02	; 2
    15c8:	6c 93       	st	X, r22
    15ca:	12 97       	sbiw	r26, 0x02	; 2
    15cc:	39 c0       	rjmp	.+114    	; 0x1640 <get_classic_analog+0x1fa>
		else if(analog_data[i]<=12) analog_data[i] = 0x05;
    15ce:	8d 30       	cpi	r24, 0x0D	; 13
    15d0:	20 f4       	brcc	.+8      	; 0x15da <get_classic_analog+0x194>
    15d2:	12 96       	adiw	r26, 0x02	; 2
    15d4:	7c 93       	st	X, r23
    15d6:	12 97       	sbiw	r26, 0x02	; 2
    15d8:	33 c0       	rjmp	.+102    	; 0x1640 <get_classic_analog+0x1fa>
		else if(analog_data[i]<=14) analog_data[i] = 0x06;
    15da:	8f 30       	cpi	r24, 0x0F	; 15
    15dc:	20 f4       	brcc	.+8      	; 0x15e6 <get_classic_analog+0x1a0>
    15de:	12 96       	adiw	r26, 0x02	; 2
    15e0:	ec 93       	st	X, r30
    15e2:	12 97       	sbiw	r26, 0x02	; 2
    15e4:	2d c0       	rjmp	.+90     	; 0x1640 <get_classic_analog+0x1fa>
		else if(analog_data[i]<=16) analog_data[i] = 0x07;
    15e6:	81 31       	cpi	r24, 0x11	; 17
    15e8:	20 f4       	brcc	.+8      	; 0x15f2 <get_classic_analog+0x1ac>
    15ea:	12 96       	adiw	r26, 0x02	; 2
    15ec:	fc 93       	st	X, r31
    15ee:	12 97       	sbiw	r26, 0x02	; 2
    15f0:	27 c0       	rjmp	.+78     	; 0x1640 <get_classic_analog+0x1fa>
		else if(analog_data[i]<=18) analog_data[i] = 0x08;
    15f2:	83 31       	cpi	r24, 0x13	; 19
    15f4:	20 f4       	brcc	.+8      	; 0x15fe <get_classic_analog+0x1b8>
    15f6:	12 96       	adiw	r26, 0x02	; 2
    15f8:	1c 93       	st	X, r17
    15fa:	12 97       	sbiw	r26, 0x02	; 2
    15fc:	21 c0       	rjmp	.+66     	; 0x1640 <get_classic_analog+0x1fa>
		else if(analog_data[i]<=20) analog_data[i] = 0x09;
    15fe:	85 31       	cpi	r24, 0x15	; 21
    1600:	20 f4       	brcc	.+8      	; 0x160a <get_classic_analog+0x1c4>
    1602:	12 96       	adiw	r26, 0x02	; 2
    1604:	0c 93       	st	X, r16
    1606:	12 97       	sbiw	r26, 0x02	; 2
    1608:	1b c0       	rjmp	.+54     	; 0x1640 <get_classic_analog+0x1fa>
		else if(analog_data[i]<=22) analog_data[i] = 0x0A;
    160a:	87 31       	cpi	r24, 0x17	; 23
    160c:	20 f4       	brcc	.+8      	; 0x1616 <get_classic_analog+0x1d0>
    160e:	12 96       	adiw	r26, 0x02	; 2
    1610:	fc 92       	st	X, r15
    1612:	12 97       	sbiw	r26, 0x02	; 2
    1614:	15 c0       	rjmp	.+42     	; 0x1640 <get_classic_analog+0x1fa>
		else if(analog_data[i]<=23) analog_data[i] = 0x0B;
    1616:	87 31       	cpi	r24, 0x17	; 23
    1618:	21 f4       	brne	.+8      	; 0x1622 <get_classic_analog+0x1dc>
    161a:	12 96       	adiw	r26, 0x02	; 2
    161c:	ec 92       	st	X, r14
    161e:	12 97       	sbiw	r26, 0x02	; 2
    1620:	0f c0       	rjmp	.+30     	; 0x1640 <get_classic_analog+0x1fa>
		else if(analog_data[i]<=24) analog_data[i] = 0x0C;
    1622:	88 31       	cpi	r24, 0x18	; 24
    1624:	21 f4       	brne	.+8      	; 0x162e <get_classic_analog+0x1e8>
    1626:	12 96       	adiw	r26, 0x02	; 2
    1628:	dc 92       	st	X, r13
    162a:	12 97       	sbiw	r26, 0x02	; 2
    162c:	09 c0       	rjmp	.+18     	; 0x1640 <get_classic_analog+0x1fa>
		else if(analog_data[i]<=25) analog_data[i] = 0x0D;
    162e:	89 31       	cpi	r24, 0x19	; 25
    1630:	21 f4       	brne	.+8      	; 0x163a <get_classic_analog+0x1f4>
    1632:	12 96       	adiw	r26, 0x02	; 2
    1634:	cc 92       	st	X, r12
    1636:	12 97       	sbiw	r26, 0x02	; 2
    1638:	03 c0       	rjmp	.+6      	; 0x1640 <get_classic_analog+0x1fa>
		else if(analog_data[i]> 25) analog_data[i] = 0x0E;
    163a:	12 96       	adiw	r26, 0x02	; 2
    163c:	bc 92       	st	X, r11
    163e:	12 97       	sbiw	r26, 0x02	; 2
		else if(analog_data[i]<=50) analog_data[i] = 0x0B;
		else if(analog_data[i]<=53) analog_data[i] = 0x0C;
		else if(analog_data[i]<=55) analog_data[i] = 0x0D;
		else if(analog_data[i]> 55) analog_data[i] = 0x0E;	
	}
	for(i=2; i<5; i++){
    1640:	2f 5f       	subi	r18, 0xFF	; 255
    1642:	3f 4f       	sbci	r19, 0xFF	; 255
    1644:	11 96       	adiw	r26, 0x01	; 1
    1646:	25 30       	cpi	r18, 0x05	; 5
    1648:	31 05       	cpc	r19, r1
    164a:	09 f0       	breq	.+2      	; 0x164e <get_classic_analog+0x208>
    164c:	9f cf       	rjmp	.-194    	; 0x158c <get_classic_analog+0x146>
		else if(analog_data[i]<=23) analog_data[i] = 0x0B;
		else if(analog_data[i]<=24) analog_data[i] = 0x0C;
		else if(analog_data[i]<=25) analog_data[i] = 0x0D;
		else if(analog_data[i]> 25) analog_data[i] = 0x0E;
	}
}
    164e:	1f 91       	pop	r17
    1650:	0f 91       	pop	r16
    1652:	ff 90       	pop	r15
    1654:	ef 90       	pop	r14
    1656:	df 90       	pop	r13
    1658:	cf 90       	pop	r12
    165a:	bf 90       	pop	r11
    165c:	af 90       	pop	r10
    165e:	9f 90       	pop	r9
    1660:	08 95       	ret

00001662 <__udivmodhi4>:
    1662:	aa 1b       	sub	r26, r26
    1664:	bb 1b       	sub	r27, r27
    1666:	51 e1       	ldi	r21, 0x11	; 17
    1668:	07 c0       	rjmp	.+14     	; 0x1678 <__udivmodhi4_ep>

0000166a <__udivmodhi4_loop>:
    166a:	aa 1f       	adc	r26, r26
    166c:	bb 1f       	adc	r27, r27
    166e:	a6 17       	cp	r26, r22
    1670:	b7 07       	cpc	r27, r23
    1672:	10 f0       	brcs	.+4      	; 0x1678 <__udivmodhi4_ep>
    1674:	a6 1b       	sub	r26, r22
    1676:	b7 0b       	sbc	r27, r23

00001678 <__udivmodhi4_ep>:
    1678:	88 1f       	adc	r24, r24
    167a:	99 1f       	adc	r25, r25
    167c:	5a 95       	dec	r21
    167e:	a9 f7       	brne	.-22     	; 0x166a <__udivmodhi4_loop>
    1680:	80 95       	com	r24
    1682:	90 95       	com	r25
    1684:	bc 01       	movw	r22, r24
    1686:	cd 01       	movw	r24, r26
    1688:	08 95       	ret

0000168a <__udivmodsi4>:
    168a:	a1 e2       	ldi	r26, 0x21	; 33
    168c:	1a 2e       	mov	r1, r26
    168e:	aa 1b       	sub	r26, r26
    1690:	bb 1b       	sub	r27, r27
    1692:	fd 01       	movw	r30, r26
    1694:	0d c0       	rjmp	.+26     	; 0x16b0 <__udivmodsi4_ep>

00001696 <__udivmodsi4_loop>:
    1696:	aa 1f       	adc	r26, r26
    1698:	bb 1f       	adc	r27, r27
    169a:	ee 1f       	adc	r30, r30
    169c:	ff 1f       	adc	r31, r31
    169e:	a2 17       	cp	r26, r18
    16a0:	b3 07       	cpc	r27, r19
    16a2:	e4 07       	cpc	r30, r20
    16a4:	f5 07       	cpc	r31, r21
    16a6:	20 f0       	brcs	.+8      	; 0x16b0 <__udivmodsi4_ep>
    16a8:	a2 1b       	sub	r26, r18
    16aa:	b3 0b       	sbc	r27, r19
    16ac:	e4 0b       	sbc	r30, r20
    16ae:	f5 0b       	sbc	r31, r21

000016b0 <__udivmodsi4_ep>:
    16b0:	66 1f       	adc	r22, r22
    16b2:	77 1f       	adc	r23, r23
    16b4:	88 1f       	adc	r24, r24
    16b6:	99 1f       	adc	r25, r25
    16b8:	1a 94       	dec	r1
    16ba:	69 f7       	brne	.-38     	; 0x1696 <__udivmodsi4_loop>
    16bc:	60 95       	com	r22
    16be:	70 95       	com	r23
    16c0:	80 95       	com	r24
    16c2:	90 95       	com	r25
    16c4:	9b 01       	movw	r18, r22
    16c6:	ac 01       	movw	r20, r24
    16c8:	bd 01       	movw	r22, r26
    16ca:	cf 01       	movw	r24, r30
    16cc:	08 95       	ret

000016ce <_exit>:
    16ce:	f8 94       	cli

000016d0 <__stop_program>:
    16d0:	ff cf       	rjmp	.-2      	; 0x16d0 <__stop_program>
